
../bare-crypto-app/enclave/encl.elf:     file format elf64-x86-64


Disassembly of section .tcs:

0000000000000000 <__enclave_base>:
	...
      10:	00 10                	add    %dl,(%rax)
      12:	02 00                	add    (%rax),%al
	...
      1c:	01 00                	add    %eax,(%rax)
      1e:	00 00                	add    %al,(%rax)
      20:	11 12                	adc    %edx,(%rdx)
	...
      3e:	00 00                	add    %al,(%rax)
      40:	ff                   	(bad)  
      41:	ff                   	(bad)  
      42:	ff                   	(bad)  
      43:	ff                   	(bad)  
      44:	ff                   	(bad)  
      45:	ff                   	(bad)  
      46:	ff                   	(bad)  
      47:	ff 00                	incl   (%rax)
	...

Disassembly of section .text:

0000000000001000 <malloc>:
    1000:	f3 0f 1e fa          	endbr64 
    1004:	48 8d 47 ff          	lea    -0x1(%rdi),%rax
    1008:	31 d2                	xor    %edx,%edx
    100a:	48 83 f8 ee          	cmp    $0xffffffffffffffee,%rax
    100e:	77 2e                	ja     103e <malloc+0x3e>
    1010:	48 89 f8             	mov    %rdi,%rax
    1013:	48 8d 57 10          	lea    0x10(%rdi),%rdx
    1017:	83 e0 03             	and    $0x3,%eax
    101a:	74 15                	je     1031 <malloc+0x31>
    101c:	48 8d 48 fb          	lea    -0x5(%rax),%rcx
    1020:	48 39 d1             	cmp    %rdx,%rcx
    1023:	72 17                	jb     103c <malloc+0x3c>
    1025:	48 83 c7 14          	add    $0x14,%rdi
    1029:	48 29 c7             	sub    %rax,%rdi
    102c:	48 89 fa             	mov    %rdi,%rdx
    102f:	74 0d                	je     103e <malloc+0x3e>
    1031:	48 81 fa fc 4f 00 00 	cmp    $0x4ffc,%rdx
    1038:	76 04                	jbe    103e <malloc+0x3e>
    103a:	eb fe                	jmp    103a <malloc+0x3a>
    103c:	31 d2                	xor    %edx,%edx
    103e:	80 3d db 1f 02 00 00 	cmpb   $0x0,0x21fdb(%rip)        # 23020 <xHeapHasBeenInitialised>
    1045:	75 48                	jne    108f <malloc+0x8f>
    1047:	31 f6                	xor    %esi,%esi
    1049:	31 c9                	xor    %ecx,%ecx
    104b:	48 8d 05 31 20 02 00 	lea    0x22031(%rip),%rax        # 23083 <ucHeap+0x3>
    1052:	48 c7 05 db 1f 02 00 	movq   $0x4ffc,0x21fdb(%rip)        # 23038 <xEnd+0x8>
    1059:	fc 4f 00 00 
    105d:	48 83 e0 fc          	and    $0xfffffffffffffffc,%rax
    1061:	48 89 35 c8 1f 02 00 	mov    %rsi,0x21fc8(%rip)        # 23030 <xEnd>
    1068:	48 8d 35 c1 1f 02 00 	lea    0x21fc1(%rip),%rsi        # 23030 <xEnd>
    106f:	48 89 05 ca 1f 02 00 	mov    %rax,0x21fca(%rip)        # 23040 <xStart>
    1076:	48 89 0d cb 1f 02 00 	mov    %rcx,0x21fcb(%rip)        # 23048 <xStart+0x8>
    107d:	48 c7 40 08 fc 4f 00 	movq   $0x4ffc,0x8(%rax)
    1084:	00 
    1085:	48 89 30             	mov    %rsi,(%rax)
    1088:	c6 05 91 1f 02 00 01 	movb   $0x1,0x21f91(%rip)        # 23020 <xHeapHasBeenInitialised>
    108f:	31 c9                	xor    %ecx,%ecx
    1091:	48 85 d2             	test   %rdx,%rdx
    1094:	0f 84 a0 00 00 00    	je     113a <malloc+0x13a>
    109a:	48 8b 3d 5f ef 01 00 	mov    0x1ef5f(%rip),%rdi        # 20000 <xFreeBytesRemaining>
    10a1:	48 8b 05 98 1f 02 00 	mov    0x21f98(%rip),%rax        # 23040 <xStart>
    10a8:	4c 8d 05 91 1f 02 00 	lea    0x21f91(%rip),%r8        # 23040 <xStart>
    10af:	48 39 d7             	cmp    %rdx,%rdi
    10b2:	0f 82 82 00 00 00    	jb     113a <malloc+0x13a>
    10b8:	48 8b 70 08          	mov    0x8(%rax),%rsi
    10bc:	48 39 d6             	cmp    %rdx,%rsi
    10bf:	73 10                	jae    10d1 <malloc+0xd1>
    10c1:	48 8b 08             	mov    (%rax),%rcx
    10c4:	48 85 c9             	test   %rcx,%rcx
    10c7:	74 08                	je     10d1 <malloc+0xd1>
    10c9:	49 89 c0             	mov    %rax,%r8
    10cc:	48 89 c8             	mov    %rcx,%rax
    10cf:	eb e7                	jmp    10b8 <malloc+0xb8>
    10d1:	4c 8d 0d 58 1f 02 00 	lea    0x21f58(%rip),%r9        # 23030 <xEnd>
    10d8:	31 c9                	xor    %ecx,%ecx
    10da:	4c 39 c8             	cmp    %r9,%rax
    10dd:	74 5b                	je     113a <malloc+0x13a>
    10df:	49 8b 08             	mov    (%r8),%rcx
    10e2:	4c 8b 08             	mov    (%rax),%r9
    10e5:	48 29 d6             	sub    %rdx,%rsi
    10e8:	4d 89 08             	mov    %r9,(%r8)
    10eb:	48 83 c1 10          	add    $0x10,%rcx
    10ef:	48 83 fe 20          	cmp    $0x20,%rsi
    10f3:	76 29                	jbe    111e <malloc+0x11e>
    10f5:	4c 8d 04 10          	lea    (%rax,%rdx,1),%r8
    10f9:	49 89 70 08          	mov    %rsi,0x8(%r8)
    10fd:	48 89 50 08          	mov    %rdx,0x8(%rax)
    1101:	4d 8b 48 08          	mov    0x8(%r8),%r9
    1105:	48 8d 15 34 1f 02 00 	lea    0x21f34(%rip),%rdx        # 23040 <xStart>
    110c:	48 89 d6             	mov    %rdx,%rsi
    110f:	48 8b 12             	mov    (%rdx),%rdx
    1112:	4c 39 4a 08          	cmp    %r9,0x8(%rdx)
    1116:	72 f4                	jb     110c <malloc+0x10c>
    1118:	49 89 10             	mov    %rdx,(%r8)
    111b:	4c 89 06             	mov    %r8,(%rsi)
    111e:	48 8b 50 08          	mov    0x8(%rax),%rdx
    1122:	48 29 d7             	sub    %rdx,%rdi
    1125:	48 0f ba ea 3f       	bts    $0x3f,%rdx
    112a:	48 89 50 08          	mov    %rdx,0x8(%rax)
    112e:	31 d2                	xor    %edx,%edx
    1130:	48 89 3d c9 ee 01 00 	mov    %rdi,0x1eec9(%rip)        # 20000 <xFreeBytesRemaining>
    1137:	48 89 10             	mov    %rdx,(%rax)
    113a:	48 89 c8             	mov    %rcx,%rax
    113d:	c3                   	ret    

000000000000113e <free>:
    113e:	f3 0f 1e fa          	endbr64 
    1142:	48 85 ff             	test   %rdi,%rdi
    1145:	74 57                	je     119e <free+0x60>
    1147:	48 8b 57 f8          	mov    -0x8(%rdi),%rdx
    114b:	53                   	push   %rbx
    114c:	48 89 fb             	mov    %rdi,%rbx
    114f:	48 85 d2             	test   %rdx,%rdx
    1152:	78 02                	js     1156 <free+0x18>
    1154:	eb fe                	jmp    1154 <free+0x16>
    1156:	48 83 7f f0 00       	cmpq   $0x0,-0x10(%rdi)
    115b:	74 02                	je     115f <free+0x21>
    115d:	eb fe                	jmp    115d <free+0x1f>
    115f:	48 0f ba f2 3f       	btr    $0x3f,%rdx
    1164:	31 f6                	xor    %esi,%esi
    1166:	48 89 57 f8          	mov    %rdx,-0x8(%rdi)
    116a:	48 83 ea 10          	sub    $0x10,%rdx
    116e:	e8 98 01 00 00       	call   130b <memset>
    1173:	48 8b 53 f8          	mov    -0x8(%rbx),%rdx
    1177:	48 8d 05 c2 1e 02 00 	lea    0x21ec2(%rip),%rax        # 23040 <xStart>
    117e:	48 89 c1             	mov    %rax,%rcx
    1181:	48 8b 00             	mov    (%rax),%rax
    1184:	48 39 50 08          	cmp    %rdx,0x8(%rax)
    1188:	72 f4                	jb     117e <free+0x40>
    118a:	48 89 43 f0          	mov    %rax,-0x10(%rbx)
    118e:	48 83 eb 10          	sub    $0x10,%rbx
    1192:	48 89 19             	mov    %rbx,(%rcx)
    1195:	5b                   	pop    %rbx
    1196:	48 01 15 63 ee 01 00 	add    %rdx,0x1ee63(%rip)        # 20000 <xFreeBytesRemaining>
    119d:	c3                   	ret    
    119e:	c3                   	ret    

000000000000119f <xPortGetFreeHeapSize>:
    119f:	f3 0f 1e fa          	endbr64 
    11a3:	48 8b 05 56 ee 01 00 	mov    0x1ee56(%rip),%rax        # 20000 <xFreeBytesRemaining>
    11aa:	c3                   	ret    

00000000000011ab <vPortInitialiseBlocks>:
    11ab:	f3 0f 1e fa          	endbr64 
    11af:	c3                   	ret    

00000000000011b0 <calloc>:
    11b0:	f3 0f 1e fa          	endbr64 
    11b4:	53                   	push   %rbx
    11b5:	48 85 ff             	test   %rdi,%rdi
    11b8:	74 0a                	je     11c4 <calloc+0x14>
    11ba:	48 89 f8             	mov    %rdi,%rax
    11bd:	31 db                	xor    %ebx,%ebx
    11bf:	48 f7 e6             	mul    %rsi
    11c2:	70 21                	jo     11e5 <calloc+0x35>
    11c4:	48 0f af fe          	imul   %rsi,%rdi
    11c8:	49 89 fa             	mov    %rdi,%r10
    11cb:	e8 30 fe ff ff       	call   1000 <malloc>
    11d0:	48 89 c3             	mov    %rax,%rbx
    11d3:	48 85 c0             	test   %rax,%rax
    11d6:	74 0d                	je     11e5 <calloc+0x35>
    11d8:	4c 89 d2             	mov    %r10,%rdx
    11db:	31 f6                	xor    %esi,%esi
    11dd:	48 89 c7             	mov    %rax,%rdi
    11e0:	e8 26 01 00 00       	call   130b <memset>
    11e5:	48 89 d8             	mov    %rbx,%rax
    11e8:	5b                   	pop    %rbx
    11e9:	c3                   	ret    

00000000000011ea <vPortHeapResetState>:
    11ea:	f3 0f 1e fa          	endbr64 
    11ee:	48 c7 05 07 ee 01 00 	movq   $0x4ffc,0x1ee07(%rip)        # 20000 <xFreeBytesRemaining>
    11f5:	fc 4f 00 00 
    11f9:	c6 05 20 1e 02 00 00 	movb   $0x0,0x21e20(%rip)        # 23020 <xHeapHasBeenInitialised>
    1200:	c3                   	ret    

0000000000001201 <get_enclave_base>:
    1201:	48 8d 05 f8 ed ff ff 	lea    -0x1208(%rip),%rax        # 0 <__enclave_base>
    1208:	c3                   	ret    

0000000000001209 <get_enclave_size>:
    1209:	48 8b 05 26 00 00 00 	mov    0x26(%rip),%rax        # 1236 <__enclave_size>
    1210:	c3                   	ret    

0000000000001211 <encl_entry>:
    1211:	48 8d 05 e8 1d 02 00 	lea    0x21de8(%rip),%rax        # 23000 <g_ecall_table>
    1218:	48 94                	xchg   %rax,%rsp
    121a:	50                   	push   %rax
    121b:	51                   	push   %rcx
    121c:	48 89 f7             	mov    %rsi,%rdi
    121f:	48 89 d6             	mov    %rdx,%rsi
    1222:	e8 61 00 00 00       	call   1288 <encl_body>
    1227:	5b                   	pop    %rbx
    1228:	58                   	pop    %rax
    1229:	48 89 c4             	mov    %rax,%rsp
    122c:	48 c7 c0 04 00 00 00 	mov    $0x4,%rax
    1233:	0f 01 d7             	enclu  

0000000000001236 <__enclave_size>:
	...

000000000000123e <exit>:
    123e:	f3 0f 1e fa          	endbr64 
    1242:	eb fe                	jmp    1242 <exit+0x4>

0000000000001244 <fprintf>:
    1244:	f3 0f 1e fa          	endbr64 
    1248:	31 c0                	xor    %eax,%eax
    124a:	c3                   	ret    

000000000000124b <do_encl_op_hmac>:
    124b:	f3 0f 1e fa          	endbr64 
    124f:	48 83 ec 18          	sub    $0x18,%rsp
    1253:	41 89 d0             	mov    %edx,%r8d
    1256:	48 89 f1             	mov    %rsi,%rcx
    1259:	48 ba 08 09 0a 0b 0c 	movabs $0xf0e0d0c0b0a0908,%rdx
    1260:	0d 0e 0f 
    1263:	48 89 54 24 08       	mov    %rdx,0x8(%rsp)
    1268:	48 89 e6             	mov    %rsp,%rsi
    126b:	ba 10 00 00 00       	mov    $0x10,%edx
    1270:	48 b8 00 01 02 03 04 	movabs $0x706050403020100,%rax
    1277:	05 06 07 
    127a:	48 89 04 24          	mov    %rax,(%rsp)
    127e:	e8 4d 0a 00 00       	call   1cd0 <Hacl_HMAC_compute_sha2_256>
    1283:	48 83 c4 18          	add    $0x18,%rsp
    1287:	c3                   	ret    

0000000000001288 <encl_body>:
    1288:	f3 0f 1e fa          	endbr64 
    128c:	55                   	push   %rbp
    128d:	be 08 00 00 00       	mov    $0x8,%esi
    1292:	48 89 fd             	mov    %rdi,%rbp
    1295:	53                   	push   %rbx
    1296:	48 89 d3             	mov    %rdx,%rbx
    1299:	51                   	push   %rcx
    129a:	e8 84 00 00 00       	call   1323 <sgx_is_outside_enclave>
    129f:	85 c0                	test   %eax,%eax
    12a1:	75 05                	jne    12a8 <encl_body+0x20>
    12a3:	e8 2f 01 00 00       	call   13d7 <panic>
    12a8:	48 83 fb 05          	cmp    $0x5,%rbx
    12ac:	77 1f                	ja     12cd <encl_body+0x45>
    12ae:	48 c1 e3 04          	shl    $0x4,%rbx
    12b2:	48 8d 15 47 1d 02 00 	lea    0x21d47(%rip),%rdx        # 23000 <g_ecall_table>
    12b9:	48 8d 05 40 ed ff ff 	lea    -0x12c0(%rip),%rax        # 0 <__enclave_base>
    12c0:	48 89 ef             	mov    %rbp,%rdi
    12c3:	48 03 44 1a 08       	add    0x8(%rdx,%rbx,1),%rax
    12c8:	5a                   	pop    %rdx
    12c9:	5b                   	pop    %rbx
    12ca:	5d                   	pop    %rbp
    12cb:	ff e0                	jmp    *%rax
    12cd:	58                   	pop    %rax
    12ce:	5b                   	pop    %rbx
    12cf:	5d                   	pop    %rbp
    12d0:	c3                   	ret    

00000000000012d1 <memcpy>:
    12d1:	f3 0f 1e fa          	endbr64 
    12d5:	48 89 f8             	mov    %rdi,%rax
    12d8:	31 c9                	xor    %ecx,%ecx
    12da:	48 39 d1             	cmp    %rdx,%rcx
    12dd:	74 0d                	je     12ec <memcpy+0x1b>
    12df:	40 8a 3c 0e          	mov    (%rsi,%rcx,1),%dil
    12e3:	40 88 3c 08          	mov    %dil,(%rax,%rcx,1)
    12e7:	48 ff c1             	inc    %rcx
    12ea:	eb ee                	jmp    12da <memcpy+0x9>
    12ec:	c3                   	ret    

00000000000012ed <memcpy_s>:
    12ed:	f3 0f 1e fa          	endbr64 
    12f1:	48 89 d6             	mov    %rdx,%rsi
    12f4:	48 89 ca             	mov    %rcx,%rdx
    12f7:	eb d8                	jmp    12d1 <memcpy>

00000000000012f9 <memcpy_verw_s>:
    12f9:	f3 0f 1e fa          	endbr64 
    12fd:	48 89 d6             	mov    %rdx,%rsi
    1300:	48 89 ca             	mov    %rcx,%rdx
    1303:	e8 c9 ff ff ff       	call   12d1 <memcpy>
    1308:	31 c0                	xor    %eax,%eax
    130a:	c3                   	ret    

000000000000130b <memset>:
    130b:	f3 0f 1e fa          	endbr64 
    130f:	48 89 f8             	mov    %rdi,%rax
    1312:	31 c9                	xor    %ecx,%ecx
    1314:	48 39 d1             	cmp    %rdx,%rcx
    1317:	74 09                	je     1322 <memset+0x17>
    1319:	40 88 34 08          	mov    %sil,(%rax,%rcx,1)
    131d:	48 ff c1             	inc    %rcx
    1320:	eb f2                	jmp    1314 <memset+0x9>
    1322:	c3                   	ret    

0000000000001323 <sgx_is_outside_enclave>:
    1323:	f3 0f 1e fa          	endbr64 
    1327:	41 55                	push   %r13
    1329:	48 ff ce             	dec    %rsi
    132c:	41 54                	push   %r12
    132e:	48 01 fe             	add    %rdi,%rsi
    1331:	55                   	push   %rbp
    1332:	41 0f 92 c5          	setb   %r13b
    1336:	49 89 f4             	mov    %rsi,%r12
    1339:	53                   	push   %rbx
    133a:	48 89 fb             	mov    %rdi,%rbx
    133d:	45 0f b6 ed          	movzbl %r13b,%r13d
    1341:	51                   	push   %rcx
    1342:	e8 ba fe ff ff       	call   1201 <get_enclave_base>
    1347:	48 89 c5             	mov    %rax,%rbp
    134a:	e8 ba fe ff ff       	call   1209 <get_enclave_size>
    134f:	48 89 c2             	mov    %rax,%rdx
    1352:	31 c0                	xor    %eax,%eax
    1354:	4d 85 ed             	test   %r13,%r13
    1357:	75 1b                	jne    1374 <sgx_is_outside_enclave+0x51>
    1359:	48 01 d5             	add    %rdx,%rbp
    135c:	b8 01 00 00 00       	mov    $0x1,%eax
    1361:	48 39 dd             	cmp    %rbx,%rbp
    1364:	72 0e                	jb     1374 <sgx_is_outside_enclave+0x51>
    1366:	e8 96 fe ff ff       	call   1201 <get_enclave_base>
    136b:	49 39 c4             	cmp    %rax,%r12
    136e:	0f 92 c0             	setb   %al
    1371:	0f b6 c0             	movzbl %al,%eax
    1374:	5a                   	pop    %rdx
    1375:	5b                   	pop    %rbx
    1376:	5d                   	pop    %rbp
    1377:	41 5c                	pop    %r12
    1379:	41 5d                	pop    %r13
    137b:	c3                   	ret    

000000000000137c <sgx_is_within_enclave>:
    137c:	f3 0f 1e fa          	endbr64 
    1380:	41 56                	push   %r14
    1382:	48 ff ce             	dec    %rsi
    1385:	41 55                	push   %r13
    1387:	48 01 fe             	add    %rdi,%rsi
    138a:	41 54                	push   %r12
    138c:	41 0f 92 c6          	setb   %r14b
    1390:	49 89 f4             	mov    %rsi,%r12
    1393:	55                   	push   %rbp
    1394:	45 0f b6 f6          	movzbl %r14b,%r14d
    1398:	53                   	push   %rbx
    1399:	48 89 fb             	mov    %rdi,%rbx
    139c:	e8 60 fe ff ff       	call   1201 <get_enclave_base>
    13a1:	48 89 c5             	mov    %rax,%rbp
    13a4:	e8 60 fe ff ff       	call   1209 <get_enclave_size>
    13a9:	4d 85 f6             	test   %r14,%r14
    13ac:	75 1e                	jne    13cc <sgx_is_within_enclave+0x50>
    13ae:	49 89 c5             	mov    %rax,%r13
    13b1:	e8 4b fe ff ff       	call   1201 <get_enclave_base>
    13b6:	4c 01 ed             	add    %r13,%rbp
    13b9:	4c 39 e5             	cmp    %r12,%rbp
    13bc:	0f 93 c2             	setae  %dl
    13bf:	48 39 c3             	cmp    %rax,%rbx
    13c2:	0f 93 c0             	setae  %al
    13c5:	0f b6 c0             	movzbl %al,%eax
    13c8:	21 d0                	and    %edx,%eax
    13ca:	eb 02                	jmp    13ce <sgx_is_within_enclave+0x52>
    13cc:	31 c0                	xor    %eax,%eax
    13ce:	5b                   	pop    %rbx
    13cf:	5d                   	pop    %rbp
    13d0:	41 5c                	pop    %r12
    13d2:	41 5d                	pop    %r13
    13d4:	41 5e                	pop    %r14
    13d6:	c3                   	ret    

00000000000013d7 <panic>:
    13d7:	f3 0f 1e fa          	endbr64 
    13db:	0f 0b                	ud2    
    13dd:	c3                   	ret    

00000000000013de <assert_inside_enclave>:
    13de:	f3 0f 1e fa          	endbr64 
    13e2:	51                   	push   %rcx
    13e3:	e8 94 ff ff ff       	call   137c <sgx_is_within_enclave>
    13e8:	85 c0                	test   %eax,%eax
    13ea:	75 03                	jne    13ef <assert_inside_enclave+0x11>
    13ec:	5a                   	pop    %rdx
    13ed:	eb e8                	jmp    13d7 <panic>
    13ef:	58                   	pop    %rax
    13f0:	c3                   	ret    

00000000000013f1 <sgx_do_encl_op_hmac>:
    13f1:	f3 0f 1e fa          	endbr64 
    13f5:	41 57                	push   %r15
    13f7:	41 56                	push   %r14
    13f9:	41 55                	push   %r13
    13fb:	41 54                	push   %r12
    13fd:	55                   	push   %rbp
    13fe:	53                   	push   %rbx
    13ff:	48 83 ec 28          	sub    $0x28,%rsp
    1403:	48 85 ff             	test   %rdi,%rdi
    1406:	75 0b                	jne    1413 <sgx_do_encl_op_hmac+0x22>
    1408:	41 bc 03 00 01 00    	mov    $0x10003,%r12d
    140e:	e9 4d 01 00 00       	jmp    1560 <sgx_do_encl_op_hmac+0x16f>
    1413:	be 18 00 00 00       	mov    $0x18,%esi
    1418:	48 89 fb             	mov    %rdi,%rbx
    141b:	e8 03 ff ff ff       	call   1323 <sgx_is_outside_enclave>
    1420:	85 c0                	test   %eax,%eax
    1422:	74 e4                	je     1408 <sgx_do_encl_op_hmac+0x17>
    1424:	0f ae e8             	lfence 
    1427:	b9 18 00 00 00       	mov    $0x18,%ecx
    142c:	48 8d 7c 24 08       	lea    0x8(%rsp),%rdi
    1431:	48 89 da             	mov    %rbx,%rdx
    1434:	be 18 00 00 00       	mov    $0x18,%esi
    1439:	e8 af fe ff ff       	call   12ed <memcpy_s>
    143e:	41 bc 01 00 01 00    	mov    $0x10001,%r12d
    1444:	48 89 c5             	mov    %rax,%rbp
    1447:	48 85 c0             	test   %rax,%rax
    144a:	0f 85 10 01 00 00    	jne    1560 <sgx_do_encl_op_hmac+0x16f>
    1450:	44 8b 64 24 18       	mov    0x18(%rsp),%r12d
    1455:	4c 8b 6c 24 08       	mov    0x8(%rsp),%r13
    145a:	4c 8b 74 24 10       	mov    0x10(%rsp),%r14
    145f:	4d 89 e7             	mov    %r12,%r15
    1462:	4d 85 ed             	test   %r13,%r13
    1465:	75 07                	jne    146e <sgx_do_encl_op_hmac+0x7d>
    1467:	4d 85 f6             	test   %r14,%r14
    146a:	75 15                	jne    1481 <sgx_do_encl_op_hmac+0x90>
    146c:	eb 26                	jmp    1494 <sgx_do_encl_op_hmac+0xa3>
    146e:	be 20 00 00 00       	mov    $0x20,%esi
    1473:	4c 89 ef             	mov    %r13,%rdi
    1476:	e8 a8 fe ff ff       	call   1323 <sgx_is_outside_enclave>
    147b:	85 c0                	test   %eax,%eax
    147d:	75 e8                	jne    1467 <sgx_do_encl_op_hmac+0x76>
    147f:	eb 87                	jmp    1408 <sgx_do_encl_op_hmac+0x17>
    1481:	4c 89 e6             	mov    %r12,%rsi
    1484:	4c 89 f7             	mov    %r14,%rdi
    1487:	e8 97 fe ff ff       	call   1323 <sgx_is_outside_enclave>
    148c:	85 c0                	test   %eax,%eax
    148e:	0f 84 74 ff ff ff    	je     1408 <sgx_do_encl_op_hmac+0x17>
    1494:	0f ae e8             	lfence 
    1497:	31 db                	xor    %ebx,%ebx
    1499:	4d 85 ed             	test   %r13,%r13
    149c:	74 25                	je     14c3 <sgx_do_encl_op_hmac+0xd2>
    149e:	bf 20 00 00 00       	mov    $0x20,%edi
    14a3:	e8 58 fb ff ff       	call   1000 <malloc>
    14a8:	48 89 c3             	mov    %rax,%rbx
    14ab:	48 85 c0             	test   %rax,%rax
    14ae:	0f 84 a6 00 00 00    	je     155a <sgx_do_encl_op_hmac+0x169>
    14b4:	ba 20 00 00 00       	mov    $0x20,%edx
    14b9:	31 f6                	xor    %esi,%esi
    14bb:	48 89 c7             	mov    %rax,%rdi
    14be:	e8 48 fe ff ff       	call   130b <memset>
    14c3:	4d 85 f6             	test   %r14,%r14
    14c6:	74 2b                	je     14f3 <sgx_do_encl_op_hmac+0x102>
    14c8:	4d 85 e4             	test   %r12,%r12
    14cb:	74 26                	je     14f3 <sgx_do_encl_op_hmac+0x102>
    14cd:	4c 89 e7             	mov    %r12,%rdi
    14d0:	e8 2b fb ff ff       	call   1000 <malloc>
    14d5:	48 89 c5             	mov    %rax,%rbp
    14d8:	48 85 c0             	test   %rax,%rax
    14db:	74 72                	je     154f <sgx_do_encl_op_hmac+0x15e>
    14dd:	4c 89 e1             	mov    %r12,%rcx
    14e0:	4c 89 f2             	mov    %r14,%rdx
    14e3:	4c 89 e6             	mov    %r12,%rsi
    14e6:	48 89 c7             	mov    %rax,%rdi
    14e9:	e8 ff fd ff ff       	call   12ed <memcpy_s>
    14ee:	48 85 c0             	test   %rax,%rax
    14f1:	75 4f                	jne    1542 <sgx_do_encl_op_hmac+0x151>
    14f3:	44 89 fa             	mov    %r15d,%edx
    14f6:	48 89 ee             	mov    %rbp,%rsi
    14f9:	48 89 df             	mov    %rbx,%rdi
    14fc:	45 31 e4             	xor    %r12d,%r12d
    14ff:	e8 47 fd ff ff       	call   124b <do_encl_op_hmac>
    1504:	48 85 db             	test   %rbx,%rbx
    1507:	74 2a                	je     1533 <sgx_do_encl_op_hmac+0x142>
    1509:	b9 20 00 00 00       	mov    $0x20,%ecx
    150e:	48 89 da             	mov    %rbx,%rdx
    1511:	be 20 00 00 00       	mov    $0x20,%esi
    1516:	4c 89 ef             	mov    %r13,%rdi
    1519:	e8 db fd ff ff       	call   12f9 <memcpy_verw_s>
    151e:	48 f7 d8             	neg    %rax
    1521:	45 19 e4             	sbb    %r12d,%r12d
    1524:	41 81 e4 01 00 01 00 	and    $0x10001,%r12d
    152b:	48 89 df             	mov    %rbx,%rdi
    152e:	e8 0b fc ff ff       	call   113e <free>
    1533:	48 85 ed             	test   %rbp,%rbp
    1536:	74 28                	je     1560 <sgx_do_encl_op_hmac+0x16f>
    1538:	48 89 ef             	mov    %rbp,%rdi
    153b:	e8 fe fb ff ff       	call   113e <free>
    1540:	eb 1e                	jmp    1560 <sgx_do_encl_op_hmac+0x16f>
    1542:	41 bc 01 00 01 00    	mov    $0x10001,%r12d
    1548:	48 85 db             	test   %rbx,%rbx
    154b:	75 de                	jne    152b <sgx_do_encl_op_hmac+0x13a>
    154d:	eb e9                	jmp    1538 <sgx_do_encl_op_hmac+0x147>
    154f:	41 bc 04 00 01 00    	mov    $0x10004,%r12d
    1555:	48 85 db             	test   %rbx,%rbx
    1558:	75 d1                	jne    152b <sgx_do_encl_op_hmac+0x13a>
    155a:	41 bc 04 00 01 00    	mov    $0x10004,%r12d
    1560:	48 83 c4 28          	add    $0x28,%rsp
    1564:	44 89 e0             	mov    %r12d,%eax
    1567:	5b                   	pop    %rbx
    1568:	5d                   	pop    %rbp
    1569:	41 5c                	pop    %r12
    156b:	41 5d                	pop    %r13
    156d:	41 5e                	pop    %r14
    156f:	41 5f                	pop    %r15
    1571:	c3                   	ret    
    1572:	66 2e 0f 1f 84 00 00 	cs nopw 0x0(%rax,%rax,1)
    1579:	00 00 00 
    157c:	0f 1f 40 00          	nopl   0x0(%rax)

0000000000001580 <Hacl_HMAC_compute_md5>:
    1580:	f3 0f 1e fa          	endbr64 
    1584:	41 57                	push   %r15
    1586:	41 56                	push   %r14
    1588:	49 89 f6             	mov    %rsi,%r14
    158b:	31 f6                	xor    %esi,%esi
    158d:	41 55                	push   %r13
    158f:	49 89 cd             	mov    %rcx,%r13
    1592:	41 54                	push   %r12
    1594:	49 89 fc             	mov    %rdi,%r12
    1597:	55                   	push   %rbp
    1598:	89 d5                	mov    %edx,%ebp
    159a:	ba 40 00 00 00       	mov    $0x40,%edx
    159f:	53                   	push   %rbx
    15a0:	44 89 c3             	mov    %r8d,%ebx
    15a3:	48 81 ec f8 00 00 00 	sub    $0xf8,%rsp
    15aa:	4c 8d 7c 24 30       	lea    0x30(%rsp),%r15
    15af:	4c 89 ff             	mov    %r15,%rdi
    15b2:	e8 54 fd ff ff       	call   130b <memset>
    15b7:	83 fd 40             	cmp    $0x40,%ebp
    15ba:	0f 87 e2 01 00 00    	ja     17a2 <Hacl_HMAC_compute_md5+0x222>
    15c0:	89 ea                	mov    %ebp,%edx
    15c2:	4c 89 f6             	mov    %r14,%rsi
    15c5:	4c 89 ff             	mov    %r15,%rdi
    15c8:	e8 04 fd ff ff       	call   12d1 <memcpy>
    15cd:	48 8d 6c 24 70       	lea    0x70(%rsp),%rbp
    15d2:	ba 40 00 00 00       	mov    $0x40,%edx
    15d7:	be 36 00 00 00       	mov    $0x36,%esi
    15dc:	48 89 ef             	mov    %rbp,%rdi
    15df:	4c 8d b4 24 b0 00 00 	lea    0xb0(%rsp),%r14
    15e6:	00 
    15e7:	e8 1f fd ff ff       	call   130b <memset>
    15ec:	66 0f 6f 44 24 70    	movdqa 0x70(%rsp),%xmm0
    15f2:	ba 40 00 00 00       	mov    $0x40,%edx
    15f7:	4c 89 f7             	mov    %r14,%rdi
    15fa:	66 0f ef 44 24 30    	pxor   0x30(%rsp),%xmm0
    1600:	be 5c 00 00 00       	mov    $0x5c,%esi
    1605:	0f 29 44 24 70       	movaps %xmm0,0x70(%rsp)
    160a:	66 0f 6f 84 24 80 00 	movdqa 0x80(%rsp),%xmm0
    1611:	00 00 
    1613:	66 0f ef 44 24 40    	pxor   0x40(%rsp),%xmm0
    1619:	0f 29 84 24 80 00 00 	movaps %xmm0,0x80(%rsp)
    1620:	00 
    1621:	66 0f 6f 84 24 90 00 	movdqa 0x90(%rsp),%xmm0
    1628:	00 00 
    162a:	66 0f ef 44 24 50    	pxor   0x50(%rsp),%xmm0
    1630:	0f 29 84 24 90 00 00 	movaps %xmm0,0x90(%rsp)
    1637:	00 
    1638:	66 0f 6f 84 24 a0 00 	movdqa 0xa0(%rsp),%xmm0
    163f:	00 00 
    1641:	66 0f ef 44 24 60    	pxor   0x60(%rsp),%xmm0
    1647:	0f 29 84 24 a0 00 00 	movaps %xmm0,0xa0(%rsp)
    164e:	00 
    164f:	e8 b7 fc ff ff       	call   130b <memset>
    1654:	66 0f 6f 84 24 b0 00 	movdqa 0xb0(%rsp),%xmm0
    165b:	00 00 
    165d:	66 0f ef 44 24 30    	pxor   0x30(%rsp),%xmm0
    1663:	0f 29 84 24 b0 00 00 	movaps %xmm0,0xb0(%rsp)
    166a:	00 
    166b:	66 0f 6f 84 24 c0 00 	movdqa 0xc0(%rsp),%xmm0
    1672:	00 00 
    1674:	66 0f ef 44 24 40    	pxor   0x40(%rsp),%xmm0
    167a:	0f 29 84 24 c0 00 00 	movaps %xmm0,0xc0(%rsp)
    1681:	00 
    1682:	66 0f 6f 84 24 d0 00 	movdqa 0xd0(%rsp),%xmm0
    1689:	00 00 
    168b:	66 0f ef 44 24 50    	pxor   0x50(%rsp),%xmm0
    1691:	0f 29 84 24 d0 00 00 	movaps %xmm0,0xd0(%rsp)
    1698:	00 
    1699:	66 0f 6f 84 24 e0 00 	movdqa 0xe0(%rsp),%xmm0
    16a0:	00 00 
    16a2:	66 0f ef 44 24 60    	pxor   0x60(%rsp),%xmm0
    16a8:	0f 29 84 24 e0 00 00 	movaps %xmm0,0xe0(%rsp)
    16af:	00 
    16b0:	66 0f 6f 05 28 cf 01 	movdqa 0x1cf28(%rip),%xmm0        # 1e5e0 <g_dyn_entry_table+0x8>
    16b7:	00 
    16b8:	0f 29 44 24 20       	movaps %xmm0,0x20(%rsp)
    16bd:	85 db                	test   %ebx,%ebx
    16bf:	0f 84 f9 00 00 00    	je     17be <Hacl_HMAC_compute_md5+0x23e>
    16c5:	89 d9                	mov    %ebx,%ecx
    16c7:	41 89 df             	mov    %ebx,%r15d
    16ca:	c1 e9 06             	shr    $0x6,%ecx
    16cd:	41 83 e7 3f          	and    $0x3f,%r15d
    16d1:	83 fb 3f             	cmp    $0x3f,%ebx
    16d4:	0f 86 da 00 00 00    	jbe    17b4 <Hacl_HMAC_compute_md5+0x234>
    16da:	45 85 ff             	test   %r15d,%r15d
    16dd:	0f 85 d1 00 00 00    	jne    17b4 <Hacl_HMAC_compute_md5+0x234>
    16e3:	83 e9 01             	sub    $0x1,%ecx
    16e6:	89 c8                	mov    %ecx,%eax
    16e8:	c1 e0 06             	shl    $0x6,%eax
    16eb:	29 c3                	sub    %eax,%ebx
    16ed:	41 89 df             	mov    %ebx,%r15d
    16f0:	48 8d 5c 24 20       	lea    0x20(%rsp),%rbx
    16f5:	89 4c 24 1c          	mov    %ecx,0x1c(%rsp)
    16f9:	ba 01 00 00 00       	mov    $0x1,%edx
    16fe:	48 89 ee             	mov    %rbp,%rsi
    1701:	49 8d 4c 05 00       	lea    0x0(%r13,%rax,1),%rcx
    1706:	48 89 df             	mov    %rbx,%rdi
    1709:	48 89 44 24 10       	mov    %rax,0x10(%rsp)
    170e:	48 89 4c 24 08       	mov    %rcx,0x8(%rsp)
    1713:	e8 08 93 00 00       	call   aa20 <Hacl_Hash_MD5_update_multi>
    1718:	8b 54 24 1c          	mov    0x1c(%rsp),%edx
    171c:	4c 89 ee             	mov    %r13,%rsi
    171f:	48 89 df             	mov    %rbx,%rdi
    1722:	e8 f9 92 00 00       	call   aa20 <Hacl_Hash_MD5_update_multi>
    1727:	48 8b 44 24 10       	mov    0x10(%rsp),%rax
    172c:	44 89 f9             	mov    %r15d,%ecx
    172f:	48 89 df             	mov    %rbx,%rdi
    1732:	48 8b 54 24 08       	mov    0x8(%rsp),%rdx
    1737:	48 8d 70 40          	lea    0x40(%rax),%rsi
    173b:	e8 d0 a9 00 00       	call   c110 <Hacl_Hash_MD5_update_last>
    1740:	48 89 ee             	mov    %rbp,%rsi
    1743:	48 89 df             	mov    %rbx,%rdi
    1746:	e8 55 92 00 00       	call   a9a0 <Hacl_Hash_MD5_finish>
    174b:	48 89 df             	mov    %rbx,%rdi
    174e:	e8 3d 92 00 00       	call   a990 <Hacl_Hash_MD5_init>
    1753:	4c 89 f6             	mov    %r14,%rsi
    1756:	48 89 df             	mov    %rbx,%rdi
    1759:	ba 01 00 00 00       	mov    $0x1,%edx
    175e:	e8 bd 92 00 00       	call   aa20 <Hacl_Hash_MD5_update_multi>
    1763:	48 89 ee             	mov    %rbp,%rsi
    1766:	48 89 df             	mov    %rbx,%rdi
    1769:	31 d2                	xor    %edx,%edx
    176b:	e8 b0 92 00 00       	call   aa20 <Hacl_Hash_MD5_update_multi>
    1770:	48 89 ea             	mov    %rbp,%rdx
    1773:	48 89 df             	mov    %rbx,%rdi
    1776:	b9 10 00 00 00       	mov    $0x10,%ecx
    177b:	be 40 00 00 00       	mov    $0x40,%esi
    1780:	e8 8b a9 00 00       	call   c110 <Hacl_Hash_MD5_update_last>
    1785:	4c 89 e6             	mov    %r12,%rsi
    1788:	48 89 df             	mov    %rbx,%rdi
    178b:	e8 10 92 00 00       	call   a9a0 <Hacl_Hash_MD5_finish>
    1790:	48 81 c4 f8 00 00 00 	add    $0xf8,%rsp
    1797:	5b                   	pop    %rbx
    1798:	5d                   	pop    %rbp
    1799:	41 5c                	pop    %r12
    179b:	41 5d                	pop    %r13
    179d:	41 5e                	pop    %r14
    179f:	41 5f                	pop    %r15
    17a1:	c3                   	ret    
    17a2:	89 ea                	mov    %ebp,%edx
    17a4:	4c 89 f6             	mov    %r14,%rsi
    17a7:	4c 89 ff             	mov    %r15,%rdi
    17aa:	e8 41 ab 00 00       	call   c2f0 <Hacl_Hash_MD5_hash_oneshot>
    17af:	e9 19 fe ff ff       	jmp    15cd <Hacl_HMAC_compute_md5+0x4d>
    17b4:	89 c8                	mov    %ecx,%eax
    17b6:	c1 e0 06             	shl    $0x6,%eax
    17b9:	e9 32 ff ff ff       	jmp    16f0 <Hacl_HMAC_compute_md5+0x170>
    17be:	48 8d 5c 24 20       	lea    0x20(%rsp),%rbx
    17c3:	b9 40 00 00 00       	mov    $0x40,%ecx
    17c8:	48 89 ea             	mov    %rbp,%rdx
    17cb:	31 f6                	xor    %esi,%esi
    17cd:	48 89 df             	mov    %rbx,%rdi
    17d0:	e8 3b a9 00 00       	call   c110 <Hacl_Hash_MD5_update_last>
    17d5:	e9 66 ff ff ff       	jmp    1740 <Hacl_HMAC_compute_md5+0x1c0>
    17da:	66 0f 1f 44 00 00    	nopw   0x0(%rax,%rax,1)

00000000000017e0 <Hacl_HMAC_compute_sha1>:
    17e0:	f3 0f 1e fa          	endbr64 
    17e4:	41 57                	push   %r15
    17e6:	41 56                	push   %r14
    17e8:	49 89 f6             	mov    %rsi,%r14
    17eb:	31 f6                	xor    %esi,%esi
    17ed:	41 55                	push   %r13
    17ef:	49 89 cd             	mov    %rcx,%r13
    17f2:	41 54                	push   %r12
    17f4:	49 89 fc             	mov    %rdi,%r12
    17f7:	55                   	push   %rbp
    17f8:	89 d5                	mov    %edx,%ebp
    17fa:	ba 40 00 00 00       	mov    $0x40,%edx
    17ff:	53                   	push   %rbx
    1800:	44 89 c3             	mov    %r8d,%ebx
    1803:	48 81 ec 08 01 00 00 	sub    $0x108,%rsp
    180a:	4c 8d 7c 24 40       	lea    0x40(%rsp),%r15
    180f:	4c 89 ff             	mov    %r15,%rdi
    1812:	e8 f4 fa ff ff       	call   130b <memset>
    1817:	83 fd 40             	cmp    $0x40,%ebp
    181a:	0f 87 f3 01 00 00    	ja     1a13 <Hacl_HMAC_compute_sha1+0x233>
    1820:	89 ea                	mov    %ebp,%edx
    1822:	4c 89 f6             	mov    %r14,%rsi
    1825:	4c 89 ff             	mov    %r15,%rdi
    1828:	e8 a4 fa ff ff       	call   12d1 <memcpy>
    182d:	48 8d ac 24 80 00 00 	lea    0x80(%rsp),%rbp
    1834:	00 
    1835:	ba 40 00 00 00       	mov    $0x40,%edx
    183a:	be 36 00 00 00       	mov    $0x36,%esi
    183f:	48 89 ef             	mov    %rbp,%rdi
    1842:	4c 8d b4 24 c0 00 00 	lea    0xc0(%rsp),%r14
    1849:	00 
    184a:	e8 bc fa ff ff       	call   130b <memset>
    184f:	ba 40 00 00 00       	mov    $0x40,%edx
    1854:	be 5c 00 00 00       	mov    $0x5c,%esi
    1859:	4c 89 f7             	mov    %r14,%rdi
    185c:	66 0f 6f 84 24 80 00 	movdqa 0x80(%rsp),%xmm0
    1863:	00 00 
    1865:	66 0f ef 44 24 40    	pxor   0x40(%rsp),%xmm0
    186b:	0f 29 84 24 80 00 00 	movaps %xmm0,0x80(%rsp)
    1872:	00 
    1873:	66 0f 6f 84 24 90 00 	movdqa 0x90(%rsp),%xmm0
    187a:	00 00 
    187c:	66 0f ef 44 24 50    	pxor   0x50(%rsp),%xmm0
    1882:	0f 29 84 24 90 00 00 	movaps %xmm0,0x90(%rsp)
    1889:	00 
    188a:	66 0f 6f 84 24 a0 00 	movdqa 0xa0(%rsp),%xmm0
    1891:	00 00 
    1893:	66 0f ef 44 24 60    	pxor   0x60(%rsp),%xmm0
    1899:	0f 29 84 24 a0 00 00 	movaps %xmm0,0xa0(%rsp)
    18a0:	00 
    18a1:	66 0f 6f 84 24 b0 00 	movdqa 0xb0(%rsp),%xmm0
    18a8:	00 00 
    18aa:	66 0f ef 44 24 70    	pxor   0x70(%rsp),%xmm0
    18b0:	0f 29 84 24 b0 00 00 	movaps %xmm0,0xb0(%rsp)
    18b7:	00 
    18b8:	e8 4e fa ff ff       	call   130b <memset>
    18bd:	c7 44 24 30 f0 e1 d2 	movl   $0xc3d2e1f0,0x30(%rsp)
    18c4:	c3 
    18c5:	66 0f 6f 84 24 c0 00 	movdqa 0xc0(%rsp),%xmm0
    18cc:	00 00 
    18ce:	66 0f ef 44 24 40    	pxor   0x40(%rsp),%xmm0
    18d4:	0f 29 84 24 c0 00 00 	movaps %xmm0,0xc0(%rsp)
    18db:	00 
    18dc:	66 0f 6f 84 24 d0 00 	movdqa 0xd0(%rsp),%xmm0
    18e3:	00 00 
    18e5:	66 0f ef 44 24 50    	pxor   0x50(%rsp),%xmm0
    18eb:	0f 29 84 24 d0 00 00 	movaps %xmm0,0xd0(%rsp)
    18f2:	00 
    18f3:	66 0f 6f 84 24 e0 00 	movdqa 0xe0(%rsp),%xmm0
    18fa:	00 00 
    18fc:	66 0f ef 44 24 60    	pxor   0x60(%rsp),%xmm0
    1902:	0f 29 84 24 e0 00 00 	movaps %xmm0,0xe0(%rsp)
    1909:	00 
    190a:	66 0f 6f 84 24 f0 00 	movdqa 0xf0(%rsp),%xmm0
    1911:	00 00 
    1913:	66 0f ef 44 24 70    	pxor   0x70(%rsp),%xmm0
    1919:	0f 29 84 24 f0 00 00 	movaps %xmm0,0xf0(%rsp)
    1920:	00 
    1921:	66 0f 6f 05 b7 cc 01 	movdqa 0x1ccb7(%rip),%xmm0        # 1e5e0 <g_dyn_entry_table+0x8>
    1928:	00 
    1929:	0f 29 44 24 20       	movaps %xmm0,0x20(%rsp)
    192e:	85 db                	test   %ebx,%ebx
    1930:	0f 84 f9 00 00 00    	je     1a2f <Hacl_HMAC_compute_sha1+0x24f>
    1936:	89 d9                	mov    %ebx,%ecx
    1938:	41 89 df             	mov    %ebx,%r15d
    193b:	c1 e9 06             	shr    $0x6,%ecx
    193e:	41 83 e7 3f          	and    $0x3f,%r15d
    1942:	83 fb 3f             	cmp    $0x3f,%ebx
    1945:	0f 86 da 00 00 00    	jbe    1a25 <Hacl_HMAC_compute_sha1+0x245>
    194b:	45 85 ff             	test   %r15d,%r15d
    194e:	0f 85 d1 00 00 00    	jne    1a25 <Hacl_HMAC_compute_sha1+0x245>
    1954:	83 e9 01             	sub    $0x1,%ecx
    1957:	89 c8                	mov    %ecx,%eax
    1959:	c1 e0 06             	shl    $0x6,%eax
    195c:	29 c3                	sub    %eax,%ebx
    195e:	41 89 df             	mov    %ebx,%r15d
    1961:	48 8d 5c 24 20       	lea    0x20(%rsp),%rbx
    1966:	89 4c 24 1c          	mov    %ecx,0x1c(%rsp)
    196a:	ba 01 00 00 00       	mov    $0x1,%edx
    196f:	48 89 ee             	mov    %rbp,%rsi
    1972:	49 8d 4c 05 00       	lea    0x0(%r13,%rax,1),%rcx
    1977:	48 89 df             	mov    %rbx,%rdi
    197a:	48 89 44 24 10       	mov    %rax,0x10(%rsp)
    197f:	48 89 4c 24 08       	mov    %rcx,0x8(%rsp)
    1984:	e8 27 b1 00 00       	call   cab0 <Hacl_Hash_SHA1_update_multi>
    1989:	8b 54 24 1c          	mov    0x1c(%rsp),%edx
    198d:	4c 89 ee             	mov    %r13,%rsi
    1990:	48 89 df             	mov    %rbx,%rdi
    1993:	e8 18 b1 00 00       	call   cab0 <Hacl_Hash_SHA1_update_multi>
    1998:	48 8b 44 24 10       	mov    0x10(%rsp),%rax
    199d:	44 89 f9             	mov    %r15d,%ecx
    19a0:	48 89 df             	mov    %rbx,%rdi
    19a3:	48 8b 54 24 08       	mov    0x8(%rsp),%rdx
    19a8:	48 8d 70 40          	lea    0x40(%rax),%rsi
    19ac:	e8 4f b1 00 00       	call   cb00 <Hacl_Hash_SHA1_update_last>
    19b1:	48 89 ee             	mov    %rbp,%rsi
    19b4:	48 89 df             	mov    %rbx,%rdi
    19b7:	e8 54 b0 00 00       	call   ca10 <Hacl_Hash_SHA1_finish>
    19bc:	48 89 df             	mov    %rbx,%rdi
    19bf:	e8 2c b0 00 00       	call   c9f0 <Hacl_Hash_SHA1_init>
    19c4:	4c 89 f6             	mov    %r14,%rsi
    19c7:	48 89 df             	mov    %rbx,%rdi
    19ca:	ba 01 00 00 00       	mov    $0x1,%edx
    19cf:	e8 dc b0 00 00       	call   cab0 <Hacl_Hash_SHA1_update_multi>
    19d4:	48 89 ee             	mov    %rbp,%rsi
    19d7:	48 89 df             	mov    %rbx,%rdi
    19da:	31 d2                	xor    %edx,%edx
    19dc:	e8 cf b0 00 00       	call   cab0 <Hacl_Hash_SHA1_update_multi>
    19e1:	48 89 ea             	mov    %rbp,%rdx
    19e4:	48 89 df             	mov    %rbx,%rdi
    19e7:	b9 14 00 00 00       	mov    $0x14,%ecx
    19ec:	be 40 00 00 00       	mov    $0x40,%esi
    19f1:	e8 0a b1 00 00       	call   cb00 <Hacl_Hash_SHA1_update_last>
    19f6:	4c 89 e6             	mov    %r12,%rsi
    19f9:	48 89 df             	mov    %rbx,%rdi
    19fc:	e8 0f b0 00 00       	call   ca10 <Hacl_Hash_SHA1_finish>
    1a01:	48 81 c4 08 01 00 00 	add    $0x108,%rsp
    1a08:	5b                   	pop    %rbx
    1a09:	5d                   	pop    %rbp
    1a0a:	41 5c                	pop    %r12
    1a0c:	41 5d                	pop    %r13
    1a0e:	41 5e                	pop    %r14
    1a10:	41 5f                	pop    %r15
    1a12:	c3                   	ret    
    1a13:	89 ea                	mov    %ebp,%edx
    1a15:	4c 89 f6             	mov    %r14,%rsi
    1a18:	4c 89 ff             	mov    %r15,%rdi
    1a1b:	e8 c0 b2 00 00       	call   cce0 <Hacl_Hash_SHA1_hash_oneshot>
    1a20:	e9 08 fe ff ff       	jmp    182d <Hacl_HMAC_compute_sha1+0x4d>
    1a25:	89 c8                	mov    %ecx,%eax
    1a27:	c1 e0 06             	shl    $0x6,%eax
    1a2a:	e9 32 ff ff ff       	jmp    1961 <Hacl_HMAC_compute_sha1+0x181>
    1a2f:	48 8d 5c 24 20       	lea    0x20(%rsp),%rbx
    1a34:	b9 40 00 00 00       	mov    $0x40,%ecx
    1a39:	48 89 ea             	mov    %rbp,%rdx
    1a3c:	31 f6                	xor    %esi,%esi
    1a3e:	48 89 df             	mov    %rbx,%rdi
    1a41:	e8 ba b0 00 00       	call   cb00 <Hacl_Hash_SHA1_update_last>
    1a46:	e9 66 ff ff ff       	jmp    19b1 <Hacl_HMAC_compute_sha1+0x1d1>
    1a4b:	0f 1f 44 00 00       	nopl   0x0(%rax,%rax,1)

0000000000001a50 <Hacl_HMAC_compute_sha2_224>:
    1a50:	f3 0f 1e fa          	endbr64 
    1a54:	41 57                	push   %r15
    1a56:	41 56                	push   %r14
    1a58:	49 89 f6             	mov    %rsi,%r14
    1a5b:	31 f6                	xor    %esi,%esi
    1a5d:	41 55                	push   %r13
    1a5f:	49 89 cd             	mov    %rcx,%r13
    1a62:	41 54                	push   %r12
    1a64:	49 89 fc             	mov    %rdi,%r12
    1a67:	55                   	push   %rbp
    1a68:	89 d5                	mov    %edx,%ebp
    1a6a:	ba 40 00 00 00       	mov    $0x40,%edx
    1a6f:	53                   	push   %rbx
    1a70:	44 89 c3             	mov    %r8d,%ebx
    1a73:	48 81 ec 08 01 00 00 	sub    $0x108,%rsp
    1a7a:	4c 8d 7c 24 40       	lea    0x40(%rsp),%r15
    1a7f:	4c 89 ff             	mov    %r15,%rdi
    1a82:	e8 84 f8 ff ff       	call   130b <memset>
    1a87:	83 fd 40             	cmp    $0x40,%ebp
    1a8a:	0f 87 fc 01 00 00    	ja     1c8c <Hacl_HMAC_compute_sha2_224+0x23c>
    1a90:	89 ea                	mov    %ebp,%edx
    1a92:	4c 89 f6             	mov    %r14,%rsi
    1a95:	4c 89 ff             	mov    %r15,%rdi
    1a98:	e8 34 f8 ff ff       	call   12d1 <memcpy>
    1a9d:	48 8d ac 24 80 00 00 	lea    0x80(%rsp),%rbp
    1aa4:	00 
    1aa5:	ba 40 00 00 00       	mov    $0x40,%edx
    1aaa:	be 36 00 00 00       	mov    $0x36,%esi
    1aaf:	48 89 ef             	mov    %rbp,%rdi
    1ab2:	4c 8d b4 24 c0 00 00 	lea    0xc0(%rsp),%r14
    1ab9:	00 
    1aba:	e8 4c f8 ff ff       	call   130b <memset>
    1abf:	ba 40 00 00 00       	mov    $0x40,%edx
    1ac4:	be 5c 00 00 00       	mov    $0x5c,%esi
    1ac9:	4c 89 f7             	mov    %r14,%rdi
    1acc:	66 0f 6f 84 24 80 00 	movdqa 0x80(%rsp),%xmm0
    1ad3:	00 00 
    1ad5:	66 0f ef 44 24 40    	pxor   0x40(%rsp),%xmm0
    1adb:	0f 29 84 24 80 00 00 	movaps %xmm0,0x80(%rsp)
    1ae2:	00 
    1ae3:	66 0f 6f 84 24 90 00 	movdqa 0x90(%rsp),%xmm0
    1aea:	00 00 
    1aec:	66 0f ef 44 24 50    	pxor   0x50(%rsp),%xmm0
    1af2:	0f 29 84 24 90 00 00 	movaps %xmm0,0x90(%rsp)
    1af9:	00 
    1afa:	66 0f 6f 84 24 a0 00 	movdqa 0xa0(%rsp),%xmm0
    1b01:	00 00 
    1b03:	66 0f ef 44 24 60    	pxor   0x60(%rsp),%xmm0
    1b09:	0f 29 84 24 a0 00 00 	movaps %xmm0,0xa0(%rsp)
    1b10:	00 
    1b11:	66 0f 6f 84 24 b0 00 	movdqa 0xb0(%rsp),%xmm0
    1b18:	00 00 
    1b1a:	66 0f ef 44 24 70    	pxor   0x70(%rsp),%xmm0
    1b20:	0f 29 84 24 b0 00 00 	movaps %xmm0,0xb0(%rsp)
    1b27:	00 
    1b28:	e8 de f7 ff ff       	call   130b <memset>
    1b2d:	66 0f 6f 84 24 c0 00 	movdqa 0xc0(%rsp),%xmm0
    1b34:	00 00 
    1b36:	66 0f ef 44 24 40    	pxor   0x40(%rsp),%xmm0
    1b3c:	0f 29 84 24 c0 00 00 	movaps %xmm0,0xc0(%rsp)
    1b43:	00 
    1b44:	66 0f 6f 84 24 d0 00 	movdqa 0xd0(%rsp),%xmm0
    1b4b:	00 00 
    1b4d:	66 0f ef 44 24 50    	pxor   0x50(%rsp),%xmm0
    1b53:	0f 29 84 24 d0 00 00 	movaps %xmm0,0xd0(%rsp)
    1b5a:	00 
    1b5b:	66 0f 6f 84 24 e0 00 	movdqa 0xe0(%rsp),%xmm0
    1b62:	00 00 
    1b64:	66 0f ef 44 24 60    	pxor   0x60(%rsp),%xmm0
    1b6a:	0f 29 84 24 e0 00 00 	movaps %xmm0,0xe0(%rsp)
    1b71:	00 
    1b72:	66 0f 6f 84 24 f0 00 	movdqa 0xf0(%rsp),%xmm0
    1b79:	00 00 
    1b7b:	66 0f ef 44 24 70    	pxor   0x70(%rsp),%xmm0
    1b81:	0f 29 84 24 f0 00 00 	movaps %xmm0,0xf0(%rsp)
    1b88:	00 
    1b89:	66 0f 6f 05 5f ca 01 	movdqa 0x1ca5f(%rip),%xmm0        # 1e5f0 <g_dyn_entry_table+0x18>
    1b90:	00 
    1b91:	0f 29 44 24 20       	movaps %xmm0,0x20(%rsp)
    1b96:	66 0f 6f 05 62 ca 01 	movdqa 0x1ca62(%rip),%xmm0        # 1e600 <g_dyn_entry_table+0x28>
    1b9d:	00 
    1b9e:	0f 29 44 24 30       	movaps %xmm0,0x30(%rsp)
    1ba3:	85 db                	test   %ebx,%ebx
    1ba5:	0f 84 fb 00 00 00    	je     1ca6 <Hacl_HMAC_compute_sha2_224+0x256>
    1bab:	89 d8                	mov    %ebx,%eax
    1bad:	41 89 df             	mov    %ebx,%r15d
    1bb0:	c1 e8 06             	shr    $0x6,%eax
    1bb3:	41 83 e7 3f          	and    $0x3f,%r15d
    1bb7:	83 fb 3f             	cmp    $0x3f,%ebx
    1bba:	0f 86 de 00 00 00    	jbe    1c9e <Hacl_HMAC_compute_sha2_224+0x24e>
    1bc0:	45 85 ff             	test   %r15d,%r15d
    1bc3:	0f 85 d5 00 00 00    	jne    1c9e <Hacl_HMAC_compute_sha2_224+0x24e>
    1bc9:	83 e8 01             	sub    $0x1,%eax
    1bcc:	c1 e0 06             	shl    $0x6,%eax
    1bcf:	29 c3                	sub    %eax,%ebx
    1bd1:	41 89 df             	mov    %ebx,%r15d
    1bd4:	89 c1                	mov    %eax,%ecx
    1bd6:	48 8d 5c 24 20       	lea    0x20(%rsp),%rbx
    1bdb:	89 44 24 1c          	mov    %eax,0x1c(%rsp)
    1bdf:	48 89 ee             	mov    %rbp,%rsi
    1be2:	49 8d 44 0d 00       	lea    0x0(%r13,%rcx,1),%rax
    1be7:	48 89 da             	mov    %rbx,%rdx
    1bea:	bf 40 00 00 00       	mov    $0x40,%edi
    1bef:	48 89 4c 24 10       	mov    %rcx,0x10(%rsp)
    1bf4:	48 89 44 24 08       	mov    %rax,0x8(%rsp)
    1bf9:	e8 12 23 01 00       	call   13f10 <Hacl_Hash_SHA2_sha224_update_nblocks>
    1bfe:	8b 7c 24 1c          	mov    0x1c(%rsp),%edi
    1c02:	48 89 da             	mov    %rbx,%rdx
    1c05:	4c 89 ee             	mov    %r13,%rsi
    1c08:	e8 03 23 01 00       	call   13f10 <Hacl_Hash_SHA2_sha224_update_nblocks>
    1c0d:	48 8b 4c 24 10       	mov    0x10(%rsp),%rcx
    1c12:	44 89 f8             	mov    %r15d,%eax
    1c15:	44 89 fe             	mov    %r15d,%esi
    1c18:	48 8b 54 24 08       	mov    0x8(%rsp),%rdx
    1c1d:	48 8d 7c 01 40       	lea    0x40(%rcx,%rax,1),%rdi
    1c22:	48 89 d9             	mov    %rbx,%rcx
    1c25:	e8 f6 22 01 00       	call   13f20 <Hacl_Hash_SHA2_sha224_update_last>
    1c2a:	48 89 ee             	mov    %rbp,%rsi
    1c2d:	48 89 df             	mov    %rbx,%rdi
    1c30:	e8 fb 22 01 00       	call   13f30 <Hacl_Hash_SHA2_sha224_finish>
    1c35:	48 89 df             	mov    %rbx,%rdi
    1c38:	e8 b3 22 01 00       	call   13ef0 <Hacl_Hash_SHA2_sha224_init>
    1c3d:	48 89 da             	mov    %rbx,%rdx
    1c40:	4c 89 f6             	mov    %r14,%rsi
    1c43:	bf 40 00 00 00       	mov    $0x40,%edi
    1c48:	e8 c3 22 01 00       	call   13f10 <Hacl_Hash_SHA2_sha224_update_nblocks>
    1c4d:	48 89 da             	mov    %rbx,%rdx
    1c50:	48 89 ee             	mov    %rbp,%rsi
    1c53:	31 ff                	xor    %edi,%edi
    1c55:	e8 b6 22 01 00       	call   13f10 <Hacl_Hash_SHA2_sha224_update_nblocks>
    1c5a:	48 89 d9             	mov    %rbx,%rcx
    1c5d:	48 89 ea             	mov    %rbp,%rdx
    1c60:	be 1c 00 00 00       	mov    $0x1c,%esi
    1c65:	bf 5c 00 00 00       	mov    $0x5c,%edi
    1c6a:	e8 b1 22 01 00       	call   13f20 <Hacl_Hash_SHA2_sha224_update_last>
    1c6f:	4c 89 e6             	mov    %r12,%rsi
    1c72:	48 89 df             	mov    %rbx,%rdi
    1c75:	e8 b6 22 01 00       	call   13f30 <Hacl_Hash_SHA2_sha224_finish>
    1c7a:	48 81 c4 08 01 00 00 	add    $0x108,%rsp
    1c81:	5b                   	pop    %rbx
    1c82:	5d                   	pop    %rbp
    1c83:	41 5c                	pop    %r12
    1c85:	41 5d                	pop    %r13
    1c87:	41 5e                	pop    %r14
    1c89:	41 5f                	pop    %r15
    1c8b:	c3                   	ret    
    1c8c:	89 ea                	mov    %ebp,%edx
    1c8e:	4c 89 f6             	mov    %r14,%rsi
    1c91:	4c 89 ff             	mov    %r15,%rdi
    1c94:	e8 37 31 01 00       	call   14dd0 <Hacl_Hash_SHA2_hash_224>
    1c99:	e9 ff fd ff ff       	jmp    1a9d <Hacl_HMAC_compute_sha2_224+0x4d>
    1c9e:	c1 e0 06             	shl    $0x6,%eax
    1ca1:	e9 2e ff ff ff       	jmp    1bd4 <Hacl_HMAC_compute_sha2_224+0x184>
    1ca6:	48 8d 5c 24 20       	lea    0x20(%rsp),%rbx
    1cab:	48 89 ea             	mov    %rbp,%rdx
    1cae:	be 40 00 00 00       	mov    $0x40,%esi
    1cb3:	bf 40 00 00 00       	mov    $0x40,%edi
    1cb8:	48 89 d9             	mov    %rbx,%rcx
    1cbb:	e8 60 22 01 00       	call   13f20 <Hacl_Hash_SHA2_sha224_update_last>
    1cc0:	e9 65 ff ff ff       	jmp    1c2a <Hacl_HMAC_compute_sha2_224+0x1da>
    1cc5:	66 66 2e 0f 1f 84 00 	data16 cs nopw 0x0(%rax,%rax,1)
    1ccc:	00 00 00 00 

0000000000001cd0 <Hacl_HMAC_compute_sha2_256>:
    1cd0:	f3 0f 1e fa          	endbr64 
    1cd4:	41 57                	push   %r15
    1cd6:	41 56                	push   %r14
    1cd8:	49 89 f6             	mov    %rsi,%r14
    1cdb:	31 f6                	xor    %esi,%esi
    1cdd:	41 55                	push   %r13
    1cdf:	49 89 cd             	mov    %rcx,%r13
    1ce2:	41 54                	push   %r12
    1ce4:	49 89 fc             	mov    %rdi,%r12
    1ce7:	55                   	push   %rbp
    1ce8:	89 d5                	mov    %edx,%ebp
    1cea:	ba 40 00 00 00       	mov    $0x40,%edx
    1cef:	53                   	push   %rbx
    1cf0:	44 89 c3             	mov    %r8d,%ebx
    1cf3:	48 81 ec 08 01 00 00 	sub    $0x108,%rsp
    1cfa:	4c 8d 7c 24 40       	lea    0x40(%rsp),%r15
    1cff:	4c 89 ff             	mov    %r15,%rdi
    1d02:	e8 04 f6 ff ff       	call   130b <memset>
    1d07:	83 fd 40             	cmp    $0x40,%ebp
    1d0a:	0f 87 fc 01 00 00    	ja     1f0c <Hacl_HMAC_compute_sha2_256+0x23c>
    1d10:	89 ea                	mov    %ebp,%edx
    1d12:	4c 89 f6             	mov    %r14,%rsi
    1d15:	4c 89 ff             	mov    %r15,%rdi
    1d18:	e8 b4 f5 ff ff       	call   12d1 <memcpy>
    1d1d:	48 8d ac 24 80 00 00 	lea    0x80(%rsp),%rbp
    1d24:	00 
    1d25:	ba 40 00 00 00       	mov    $0x40,%edx
    1d2a:	be 36 00 00 00       	mov    $0x36,%esi
    1d2f:	48 89 ef             	mov    %rbp,%rdi
    1d32:	4c 8d b4 24 c0 00 00 	lea    0xc0(%rsp),%r14
    1d39:	00 
    1d3a:	e8 cc f5 ff ff       	call   130b <memset>
    1d3f:	ba 40 00 00 00       	mov    $0x40,%edx
    1d44:	be 5c 00 00 00       	mov    $0x5c,%esi
    1d49:	4c 89 f7             	mov    %r14,%rdi
    1d4c:	66 0f 6f 84 24 80 00 	movdqa 0x80(%rsp),%xmm0
    1d53:	00 00 
    1d55:	66 0f ef 44 24 40    	pxor   0x40(%rsp),%xmm0
    1d5b:	0f 29 84 24 80 00 00 	movaps %xmm0,0x80(%rsp)
    1d62:	00 
    1d63:	66 0f 6f 84 24 90 00 	movdqa 0x90(%rsp),%xmm0
    1d6a:	00 00 
    1d6c:	66 0f ef 44 24 50    	pxor   0x50(%rsp),%xmm0
    1d72:	0f 29 84 24 90 00 00 	movaps %xmm0,0x90(%rsp)
    1d79:	00 
    1d7a:	66 0f 6f 84 24 a0 00 	movdqa 0xa0(%rsp),%xmm0
    1d81:	00 00 
    1d83:	66 0f ef 44 24 60    	pxor   0x60(%rsp),%xmm0
    1d89:	0f 29 84 24 a0 00 00 	movaps %xmm0,0xa0(%rsp)
    1d90:	00 
    1d91:	66 0f 6f 84 24 b0 00 	movdqa 0xb0(%rsp),%xmm0
    1d98:	00 00 
    1d9a:	66 0f ef 44 24 70    	pxor   0x70(%rsp),%xmm0
    1da0:	0f 29 84 24 b0 00 00 	movaps %xmm0,0xb0(%rsp)
    1da7:	00 
    1da8:	e8 5e f5 ff ff       	call   130b <memset>
    1dad:	66 0f 6f 84 24 c0 00 	movdqa 0xc0(%rsp),%xmm0
    1db4:	00 00 
    1db6:	66 0f ef 44 24 40    	pxor   0x40(%rsp),%xmm0
    1dbc:	0f 29 84 24 c0 00 00 	movaps %xmm0,0xc0(%rsp)
    1dc3:	00 
    1dc4:	66 0f 6f 84 24 d0 00 	movdqa 0xd0(%rsp),%xmm0
    1dcb:	00 00 
    1dcd:	66 0f ef 44 24 50    	pxor   0x50(%rsp),%xmm0
    1dd3:	0f 29 84 24 d0 00 00 	movaps %xmm0,0xd0(%rsp)
    1dda:	00 
    1ddb:	66 0f 6f 84 24 e0 00 	movdqa 0xe0(%rsp),%xmm0
    1de2:	00 00 
    1de4:	66 0f ef 44 24 60    	pxor   0x60(%rsp),%xmm0
    1dea:	0f 29 84 24 e0 00 00 	movaps %xmm0,0xe0(%rsp)
    1df1:	00 
    1df2:	66 0f 6f 84 24 f0 00 	movdqa 0xf0(%rsp),%xmm0
    1df9:	00 00 
    1dfb:	66 0f ef 44 24 70    	pxor   0x70(%rsp),%xmm0
    1e01:	0f 29 84 24 f0 00 00 	movaps %xmm0,0xf0(%rsp)
    1e08:	00 
    1e09:	66 0f 6f 05 ff c7 01 	movdqa 0x1c7ff(%rip),%xmm0        # 1e610 <g_dyn_entry_table+0x38>
    1e10:	00 
    1e11:	0f 29 44 24 20       	movaps %xmm0,0x20(%rsp)
    1e16:	66 0f 6f 05 02 c8 01 	movdqa 0x1c802(%rip),%xmm0        # 1e620 <g_dyn_entry_table+0x48>
    1e1d:	00 
    1e1e:	0f 29 44 24 30       	movaps %xmm0,0x30(%rsp)
    1e23:	85 db                	test   %ebx,%ebx
    1e25:	0f 84 fb 00 00 00    	je     1f26 <Hacl_HMAC_compute_sha2_256+0x256>
    1e2b:	89 d8                	mov    %ebx,%eax
    1e2d:	41 89 df             	mov    %ebx,%r15d
    1e30:	c1 e8 06             	shr    $0x6,%eax
    1e33:	41 83 e7 3f          	and    $0x3f,%r15d
    1e37:	83 fb 3f             	cmp    $0x3f,%ebx
    1e3a:	0f 86 de 00 00 00    	jbe    1f1e <Hacl_HMAC_compute_sha2_256+0x24e>
    1e40:	45 85 ff             	test   %r15d,%r15d
    1e43:	0f 85 d5 00 00 00    	jne    1f1e <Hacl_HMAC_compute_sha2_256+0x24e>
    1e49:	83 e8 01             	sub    $0x1,%eax
    1e4c:	c1 e0 06             	shl    $0x6,%eax
    1e4f:	29 c3                	sub    %eax,%ebx
    1e51:	41 89 df             	mov    %ebx,%r15d
    1e54:	89 c1                	mov    %eax,%ecx
    1e56:	48 8d 5c 24 20       	lea    0x20(%rsp),%rbx
    1e5b:	89 44 24 1c          	mov    %eax,0x1c(%rsp)
    1e5f:	48 89 ee             	mov    %rbp,%rsi
    1e62:	49 8d 44 0d 00       	lea    0x0(%r13,%rcx,1),%rax
    1e67:	48 89 da             	mov    %rbx,%rdx
    1e6a:	bf 40 00 00 00       	mov    $0x40,%edi
    1e6f:	48 89 4c 24 10       	mov    %rcx,0x10(%rsp)
    1e74:	48 89 44 24 08       	mov    %rax,0x8(%rsp)
    1e79:	e8 e2 1d 01 00       	call   13c60 <Hacl_Hash_SHA2_sha256_update_nblocks>
    1e7e:	8b 7c 24 1c          	mov    0x1c(%rsp),%edi
    1e82:	48 89 da             	mov    %rbx,%rdx
    1e85:	4c 89 ee             	mov    %r13,%rsi
    1e88:	e8 d3 1d 01 00       	call   13c60 <Hacl_Hash_SHA2_sha256_update_nblocks>
    1e8d:	48 8b 4c 24 10       	mov    0x10(%rsp),%rcx
    1e92:	44 89 f8             	mov    %r15d,%eax
    1e95:	44 89 fe             	mov    %r15d,%esi
    1e98:	48 8b 54 24 08       	mov    0x8(%rsp),%rdx
    1e9d:	48 8d 7c 01 40       	lea    0x40(%rcx,%rax,1),%rdi
    1ea2:	48 89 d9             	mov    %rbx,%rcx
    1ea5:	e8 06 1e 01 00       	call   13cb0 <Hacl_Hash_SHA2_sha256_update_last>
    1eaa:	48 89 ee             	mov    %rbp,%rsi
    1ead:	48 89 df             	mov    %rbx,%rdi
    1eb0:	e8 1b 1f 01 00       	call   13dd0 <Hacl_Hash_SHA2_sha256_finish>
    1eb5:	48 89 df             	mov    %rbx,%rdi
    1eb8:	e8 83 1d 01 00       	call   13c40 <Hacl_Hash_SHA2_sha256_init>
    1ebd:	48 89 da             	mov    %rbx,%rdx
    1ec0:	4c 89 f6             	mov    %r14,%rsi
    1ec3:	bf 40 00 00 00       	mov    $0x40,%edi
    1ec8:	e8 93 1d 01 00       	call   13c60 <Hacl_Hash_SHA2_sha256_update_nblocks>
    1ecd:	48 89 da             	mov    %rbx,%rdx
    1ed0:	48 89 ee             	mov    %rbp,%rsi
    1ed3:	31 ff                	xor    %edi,%edi
    1ed5:	e8 86 1d 01 00       	call   13c60 <Hacl_Hash_SHA2_sha256_update_nblocks>
    1eda:	48 89 d9             	mov    %rbx,%rcx
    1edd:	48 89 ea             	mov    %rbp,%rdx
    1ee0:	be 20 00 00 00       	mov    $0x20,%esi
    1ee5:	bf 60 00 00 00       	mov    $0x60,%edi
    1eea:	e8 c1 1d 01 00       	call   13cb0 <Hacl_Hash_SHA2_sha256_update_last>
    1eef:	4c 89 e6             	mov    %r12,%rsi
    1ef2:	48 89 df             	mov    %rbx,%rdi
    1ef5:	e8 d6 1e 01 00       	call   13dd0 <Hacl_Hash_SHA2_sha256_finish>
    1efa:	48 81 c4 08 01 00 00 	add    $0x108,%rsp
    1f01:	5b                   	pop    %rbx
    1f02:	5d                   	pop    %rbp
    1f03:	41 5c                	pop    %r12
    1f05:	41 5d                	pop    %r13
    1f07:	41 5e                	pop    %r14
    1f09:	41 5f                	pop    %r15
    1f0b:	c3                   	ret    
    1f0c:	89 ea                	mov    %ebp,%edx
    1f0e:	4c 89 f6             	mov    %r14,%rsi
    1f11:	4c 89 ff             	mov    %r15,%rdi
    1f14:	e8 a7 2a 01 00       	call   149c0 <Hacl_Hash_SHA2_hash_256>
    1f19:	e9 ff fd ff ff       	jmp    1d1d <Hacl_HMAC_compute_sha2_256+0x4d>
    1f1e:	c1 e0 06             	shl    $0x6,%eax
    1f21:	e9 2e ff ff ff       	jmp    1e54 <Hacl_HMAC_compute_sha2_256+0x184>
    1f26:	48 8d 5c 24 20       	lea    0x20(%rsp),%rbx
    1f2b:	48 89 ea             	mov    %rbp,%rdx
    1f2e:	be 40 00 00 00       	mov    $0x40,%esi
    1f33:	bf 40 00 00 00       	mov    $0x40,%edi
    1f38:	48 89 d9             	mov    %rbx,%rcx
    1f3b:	e8 70 1d 01 00       	call   13cb0 <Hacl_Hash_SHA2_sha256_update_last>
    1f40:	e9 65 ff ff ff       	jmp    1eaa <Hacl_HMAC_compute_sha2_256+0x1da>
    1f45:	66 66 2e 0f 1f 84 00 	data16 cs nopw 0x0(%rax,%rax,1)
    1f4c:	00 00 00 00 

0000000000001f50 <Hacl_HMAC_compute_sha2_384>:
    1f50:	f3 0f 1e fa          	endbr64 
    1f54:	41 57                	push   %r15
    1f56:	41 56                	push   %r14
    1f58:	49 89 f6             	mov    %rsi,%r14
    1f5b:	31 f6                	xor    %esi,%esi
    1f5d:	41 55                	push   %r13
    1f5f:	49 89 fd             	mov    %rdi,%r13
    1f62:	41 54                	push   %r12
    1f64:	49 89 cc             	mov    %rcx,%r12
    1f67:	55                   	push   %rbp
    1f68:	89 d5                	mov    %edx,%ebp
    1f6a:	ba 80 00 00 00       	mov    $0x80,%edx
    1f6f:	53                   	push   %rbx
    1f70:	44 89 c3             	mov    %r8d,%ebx
    1f73:	48 81 ec e8 01 00 00 	sub    $0x1e8,%rsp
    1f7a:	4c 8d 7c 24 60       	lea    0x60(%rsp),%r15
    1f7f:	4c 89 ff             	mov    %r15,%rdi
    1f82:	e8 84 f3 ff ff       	call   130b <memset>
    1f87:	81 fd 80 00 00 00    	cmp    $0x80,%ebp
    1f8d:	0f 87 07 03 00 00    	ja     229a <Hacl_HMAC_compute_sha2_384+0x34a>
    1f93:	89 ea                	mov    %ebp,%edx
    1f95:	4c 89 f6             	mov    %r14,%rsi
    1f98:	4c 89 ff             	mov    %r15,%rdi
    1f9b:	e8 31 f3 ff ff       	call   12d1 <memcpy>
    1fa0:	48 8d ac 24 e0 00 00 	lea    0xe0(%rsp),%rbp
    1fa7:	00 
    1fa8:	ba 80 00 00 00       	mov    $0x80,%edx
    1fad:	be 36 00 00 00       	mov    $0x36,%esi
    1fb2:	48 89 ef             	mov    %rbp,%rdi
    1fb5:	4c 8d b4 24 60 01 00 	lea    0x160(%rsp),%r14
    1fbc:	00 
    1fbd:	e8 49 f3 ff ff       	call   130b <memset>
    1fc2:	ba 80 00 00 00       	mov    $0x80,%edx
    1fc7:	be 5c 00 00 00       	mov    $0x5c,%esi
    1fcc:	4c 89 f7             	mov    %r14,%rdi
    1fcf:	66 0f 6f 84 24 e0 00 	movdqa 0xe0(%rsp),%xmm0
    1fd6:	00 00 
    1fd8:	66 0f ef 44 24 60    	pxor   0x60(%rsp),%xmm0
    1fde:	0f 29 84 24 e0 00 00 	movaps %xmm0,0xe0(%rsp)
    1fe5:	00 
    1fe6:	66 0f 6f 84 24 f0 00 	movdqa 0xf0(%rsp),%xmm0
    1fed:	00 00 
    1fef:	66 0f ef 44 24 70    	pxor   0x70(%rsp),%xmm0
    1ff5:	0f 29 84 24 f0 00 00 	movaps %xmm0,0xf0(%rsp)
    1ffc:	00 
    1ffd:	66 0f 6f 84 24 00 01 	movdqa 0x100(%rsp),%xmm0
    2004:	00 00 
    2006:	66 0f ef 84 24 80 00 	pxor   0x80(%rsp),%xmm0
    200d:	00 00 
    200f:	0f 29 84 24 00 01 00 	movaps %xmm0,0x100(%rsp)
    2016:	00 
    2017:	66 0f 6f 84 24 10 01 	movdqa 0x110(%rsp),%xmm0
    201e:	00 00 
    2020:	66 0f ef 84 24 90 00 	pxor   0x90(%rsp),%xmm0
    2027:	00 00 
    2029:	0f 29 84 24 10 01 00 	movaps %xmm0,0x110(%rsp)
    2030:	00 
    2031:	66 0f 6f 84 24 20 01 	movdqa 0x120(%rsp),%xmm0
    2038:	00 00 
    203a:	66 0f ef 84 24 a0 00 	pxor   0xa0(%rsp),%xmm0
    2041:	00 00 
    2043:	0f 29 84 24 20 01 00 	movaps %xmm0,0x120(%rsp)
    204a:	00 
    204b:	66 0f 6f 84 24 30 01 	movdqa 0x130(%rsp),%xmm0
    2052:	00 00 
    2054:	66 0f ef 84 24 b0 00 	pxor   0xb0(%rsp),%xmm0
    205b:	00 00 
    205d:	0f 29 84 24 30 01 00 	movaps %xmm0,0x130(%rsp)
    2064:	00 
    2065:	66 0f 6f 84 24 40 01 	movdqa 0x140(%rsp),%xmm0
    206c:	00 00 
    206e:	66 0f ef 84 24 c0 00 	pxor   0xc0(%rsp),%xmm0
    2075:	00 00 
    2077:	0f 29 84 24 40 01 00 	movaps %xmm0,0x140(%rsp)
    207e:	00 
    207f:	66 0f 6f 84 24 50 01 	movdqa 0x150(%rsp),%xmm0
    2086:	00 00 
    2088:	66 0f ef 84 24 d0 00 	pxor   0xd0(%rsp),%xmm0
    208f:	00 00 
    2091:	0f 29 84 24 50 01 00 	movaps %xmm0,0x150(%rsp)
    2098:	00 
    2099:	e8 6d f2 ff ff       	call   130b <memset>
    209e:	66 0f 6f 84 24 60 01 	movdqa 0x160(%rsp),%xmm0
    20a5:	00 00 
    20a7:	66 0f ef 44 24 60    	pxor   0x60(%rsp),%xmm0
    20ad:	0f 29 84 24 60 01 00 	movaps %xmm0,0x160(%rsp)
    20b4:	00 
    20b5:	66 0f 6f 84 24 70 01 	movdqa 0x170(%rsp),%xmm0
    20bc:	00 00 
    20be:	66 0f ef 44 24 70    	pxor   0x70(%rsp),%xmm0
    20c4:	0f 29 84 24 70 01 00 	movaps %xmm0,0x170(%rsp)
    20cb:	00 
    20cc:	66 0f 6f 84 24 80 01 	movdqa 0x180(%rsp),%xmm0
    20d3:	00 00 
    20d5:	66 0f ef 84 24 80 00 	pxor   0x80(%rsp),%xmm0
    20dc:	00 00 
    20de:	0f 29 84 24 80 01 00 	movaps %xmm0,0x180(%rsp)
    20e5:	00 
    20e6:	66 0f 6f 84 24 90 01 	movdqa 0x190(%rsp),%xmm0
    20ed:	00 00 
    20ef:	66 0f ef 84 24 90 00 	pxor   0x90(%rsp),%xmm0
    20f6:	00 00 
    20f8:	0f 29 84 24 90 01 00 	movaps %xmm0,0x190(%rsp)
    20ff:	00 
    2100:	66 0f 6f 84 24 a0 01 	movdqa 0x1a0(%rsp),%xmm0
    2107:	00 00 
    2109:	66 0f ef 84 24 a0 00 	pxor   0xa0(%rsp),%xmm0
    2110:	00 00 
    2112:	0f 29 84 24 a0 01 00 	movaps %xmm0,0x1a0(%rsp)
    2119:	00 
    211a:	66 0f 6f 84 24 b0 01 	movdqa 0x1b0(%rsp),%xmm0
    2121:	00 00 
    2123:	66 0f ef 84 24 b0 00 	pxor   0xb0(%rsp),%xmm0
    212a:	00 00 
    212c:	0f 29 84 24 b0 01 00 	movaps %xmm0,0x1b0(%rsp)
    2133:	00 
    2134:	66 0f 6f 84 24 c0 01 	movdqa 0x1c0(%rsp),%xmm0
    213b:	00 00 
    213d:	66 0f ef 84 24 c0 00 	pxor   0xc0(%rsp),%xmm0
    2144:	00 00 
    2146:	0f 29 84 24 c0 01 00 	movaps %xmm0,0x1c0(%rsp)
    214d:	00 
    214e:	66 0f 6f 84 24 d0 01 	movdqa 0x1d0(%rsp),%xmm0
    2155:	00 00 
    2157:	66 0f ef 84 24 d0 00 	pxor   0xd0(%rsp),%xmm0
    215e:	00 00 
    2160:	0f 29 84 24 d0 01 00 	movaps %xmm0,0x1d0(%rsp)
    2167:	00 
    2168:	66 0f 6f 05 c0 c4 01 	movdqa 0x1c4c0(%rip),%xmm0        # 1e630 <g_dyn_entry_table+0x58>
    216f:	00 
    2170:	0f 29 44 24 20       	movaps %xmm0,0x20(%rsp)
    2175:	66 0f 6f 05 c3 c4 01 	movdqa 0x1c4c3(%rip),%xmm0        # 1e640 <g_dyn_entry_table+0x68>
    217c:	00 
    217d:	0f 29 44 24 30       	movaps %xmm0,0x30(%rsp)
    2182:	66 0f 6f 05 c6 c4 01 	movdqa 0x1c4c6(%rip),%xmm0        # 1e650 <g_dyn_entry_table+0x78>
    2189:	00 
    218a:	0f 29 44 24 40       	movaps %xmm0,0x40(%rsp)
    218f:	66 0f 6f 05 c9 c4 01 	movdqa 0x1c4c9(%rip),%xmm0        # 1e660 <g_dyn_entry_table+0x88>
    2196:	00 
    2197:	0f 29 44 24 50       	movaps %xmm0,0x50(%rsp)
    219c:	85 db                	test   %ebx,%ebx
    219e:	0f 84 10 01 00 00    	je     22b4 <Hacl_HMAC_compute_sha2_384+0x364>
    21a4:	89 d9                	mov    %ebx,%ecx
    21a6:	41 89 df             	mov    %ebx,%r15d
    21a9:	c1 e9 07             	shr    $0x7,%ecx
    21ac:	41 83 e7 7f          	and    $0x7f,%r15d
    21b0:	83 fb 7f             	cmp    $0x7f,%ebx
    21b3:	0f 86 f3 00 00 00    	jbe    22ac <Hacl_HMAC_compute_sha2_384+0x35c>
    21b9:	45 85 ff             	test   %r15d,%r15d
    21bc:	0f 85 ea 00 00 00    	jne    22ac <Hacl_HMAC_compute_sha2_384+0x35c>
    21c2:	83 e9 01             	sub    $0x1,%ecx
    21c5:	c1 e1 07             	shl    $0x7,%ecx
    21c8:	29 cb                	sub    %ecx,%ebx
    21ca:	41 89 df             	mov    %ebx,%r15d
    21cd:	89 c8                	mov    %ecx,%eax
    21cf:	48 8d 5c 24 20       	lea    0x20(%rsp),%rbx
    21d4:	89 4c 24 1c          	mov    %ecx,0x1c(%rsp)
    21d8:	48 89 ee             	mov    %rbp,%rsi
    21db:	49 8d 0c 04          	lea    (%r12,%rax,1),%rcx
    21df:	48 89 da             	mov    %rbx,%rdx
    21e2:	bf 80 00 00 00       	mov    $0x80,%edi
    21e7:	48 89 44 24 10       	mov    %rax,0x10(%rsp)
    21ec:	48 89 4c 24 08       	mov    %rcx,0x8(%rsp)
    21f1:	e8 fa 21 01 00       	call   143f0 <Hacl_Hash_SHA2_sha384_update_nblocks>
    21f6:	8b 7c 24 1c          	mov    0x1c(%rsp),%edi
    21fa:	48 89 da             	mov    %rbx,%rdx
    21fd:	4c 89 e6             	mov    %r12,%rsi
    2200:	e8 eb 21 01 00       	call   143f0 <Hacl_Hash_SHA2_sha384_update_nblocks>
    2205:	48 8b 44 24 10       	mov    0x10(%rsp),%rax
    220a:	44 89 f9             	mov    %r15d,%ecx
    220d:	31 d2                	xor    %edx,%edx
    220f:	49 89 d8             	mov    %rbx,%r8
    2212:	48 01 c8             	add    %rcx,%rax
    2215:	48 8b 4c 24 08       	mov    0x8(%rsp),%rcx
    221a:	48 83 d2 00          	adc    $0x0,%rdx
    221e:	48 05 80 00 00 00    	add    $0x80,%rax
    2224:	48 83 d2 00          	adc    $0x0,%rdx
    2228:	48 89 c7             	mov    %rax,%rdi
    222b:	48 89 d6             	mov    %rdx,%rsi
    222e:	44 89 fa             	mov    %r15d,%edx
    2231:	e8 ca 21 01 00       	call   14400 <Hacl_Hash_SHA2_sha384_update_last>
    2236:	48 89 ee             	mov    %rbp,%rsi
    2239:	48 89 df             	mov    %rbx,%rdi
    223c:	e8 cf 21 01 00       	call   14410 <Hacl_Hash_SHA2_sha384_finish>
    2241:	48 89 df             	mov    %rbx,%rdi
    2244:	e8 67 21 01 00       	call   143b0 <Hacl_Hash_SHA2_sha384_init>
    2249:	48 89 da             	mov    %rbx,%rdx
    224c:	4c 89 f6             	mov    %r14,%rsi
    224f:	bf 80 00 00 00       	mov    $0x80,%edi
    2254:	e8 97 21 01 00       	call   143f0 <Hacl_Hash_SHA2_sha384_update_nblocks>
    2259:	48 89 da             	mov    %rbx,%rdx
    225c:	48 89 ee             	mov    %rbp,%rsi
    225f:	31 ff                	xor    %edi,%edi
    2261:	e8 8a 21 01 00       	call   143f0 <Hacl_Hash_SHA2_sha384_update_nblocks>
    2266:	49 89 d8             	mov    %rbx,%r8
    2269:	48 89 e9             	mov    %rbp,%rcx
    226c:	ba 30 00 00 00       	mov    $0x30,%edx
    2271:	bf b0 00 00 00       	mov    $0xb0,%edi
    2276:	31 f6                	xor    %esi,%esi
    2278:	e8 83 21 01 00       	call   14400 <Hacl_Hash_SHA2_sha384_update_last>
    227d:	4c 89 ee             	mov    %r13,%rsi
    2280:	48 89 df             	mov    %rbx,%rdi
    2283:	e8 88 21 01 00       	call   14410 <Hacl_Hash_SHA2_sha384_finish>
    2288:	48 81 c4 e8 01 00 00 	add    $0x1e8,%rsp
    228f:	5b                   	pop    %rbx
    2290:	5d                   	pop    %rbp
    2291:	41 5c                	pop    %r12
    2293:	41 5d                	pop    %r13
    2295:	41 5e                	pop    %r14
    2297:	41 5f                	pop    %r15
    2299:	c3                   	ret    
    229a:	89 ea                	mov    %ebp,%edx
    229c:	4c 89 f6             	mov    %r14,%rsi
    229f:	4c 89 ff             	mov    %r15,%rdi
    22a2:	e8 19 35 01 00       	call   157c0 <Hacl_Hash_SHA2_hash_384>
    22a7:	e9 f4 fc ff ff       	jmp    1fa0 <Hacl_HMAC_compute_sha2_384+0x50>
    22ac:	c1 e1 07             	shl    $0x7,%ecx
    22af:	e9 19 ff ff ff       	jmp    21cd <Hacl_HMAC_compute_sha2_384+0x27d>
    22b4:	48 8d 5c 24 20       	lea    0x20(%rsp),%rbx
    22b9:	48 89 e9             	mov    %rbp,%rcx
    22bc:	ba 80 00 00 00       	mov    $0x80,%edx
    22c1:	31 f6                	xor    %esi,%esi
    22c3:	49 89 d8             	mov    %rbx,%r8
    22c6:	bf 80 00 00 00       	mov    $0x80,%edi
    22cb:	e8 30 21 01 00       	call   14400 <Hacl_Hash_SHA2_sha384_update_last>
    22d0:	e9 61 ff ff ff       	jmp    2236 <Hacl_HMAC_compute_sha2_384+0x2e6>
    22d5:	66 66 2e 0f 1f 84 00 	data16 cs nopw 0x0(%rax,%rax,1)
    22dc:	00 00 00 00 

00000000000022e0 <Hacl_HMAC_compute_sha2_512>:
    22e0:	f3 0f 1e fa          	endbr64 
    22e4:	41 57                	push   %r15
    22e6:	41 56                	push   %r14
    22e8:	49 89 f6             	mov    %rsi,%r14
    22eb:	31 f6                	xor    %esi,%esi
    22ed:	41 55                	push   %r13
    22ef:	49 89 fd             	mov    %rdi,%r13
    22f2:	41 54                	push   %r12
    22f4:	49 89 cc             	mov    %rcx,%r12
    22f7:	55                   	push   %rbp
    22f8:	89 d5                	mov    %edx,%ebp
    22fa:	ba 80 00 00 00       	mov    $0x80,%edx
    22ff:	53                   	push   %rbx
    2300:	44 89 c3             	mov    %r8d,%ebx
    2303:	48 81 ec e8 01 00 00 	sub    $0x1e8,%rsp
    230a:	4c 8d 7c 24 60       	lea    0x60(%rsp),%r15
    230f:	4c 89 ff             	mov    %r15,%rdi
    2312:	e8 f4 ef ff ff       	call   130b <memset>
    2317:	81 fd 80 00 00 00    	cmp    $0x80,%ebp
    231d:	0f 87 07 03 00 00    	ja     262a <Hacl_HMAC_compute_sha2_512+0x34a>
    2323:	89 ea                	mov    %ebp,%edx
    2325:	4c 89 f6             	mov    %r14,%rsi
    2328:	4c 89 ff             	mov    %r15,%rdi
    232b:	e8 a1 ef ff ff       	call   12d1 <memcpy>
    2330:	48 8d ac 24 e0 00 00 	lea    0xe0(%rsp),%rbp
    2337:	00 
    2338:	ba 80 00 00 00       	mov    $0x80,%edx
    233d:	be 36 00 00 00       	mov    $0x36,%esi
    2342:	48 89 ef             	mov    %rbp,%rdi
    2345:	4c 8d b4 24 60 01 00 	lea    0x160(%rsp),%r14
    234c:	00 
    234d:	e8 b9 ef ff ff       	call   130b <memset>
    2352:	ba 80 00 00 00       	mov    $0x80,%edx
    2357:	be 5c 00 00 00       	mov    $0x5c,%esi
    235c:	4c 89 f7             	mov    %r14,%rdi
    235f:	66 0f 6f 84 24 e0 00 	movdqa 0xe0(%rsp),%xmm0
    2366:	00 00 
    2368:	66 0f ef 44 24 60    	pxor   0x60(%rsp),%xmm0
    236e:	0f 29 84 24 e0 00 00 	movaps %xmm0,0xe0(%rsp)
    2375:	00 
    2376:	66 0f 6f 84 24 f0 00 	movdqa 0xf0(%rsp),%xmm0
    237d:	00 00 
    237f:	66 0f ef 44 24 70    	pxor   0x70(%rsp),%xmm0
    2385:	0f 29 84 24 f0 00 00 	movaps %xmm0,0xf0(%rsp)
    238c:	00 
    238d:	66 0f 6f 84 24 00 01 	movdqa 0x100(%rsp),%xmm0
    2394:	00 00 
    2396:	66 0f ef 84 24 80 00 	pxor   0x80(%rsp),%xmm0
    239d:	00 00 
    239f:	0f 29 84 24 00 01 00 	movaps %xmm0,0x100(%rsp)
    23a6:	00 
    23a7:	66 0f 6f 84 24 10 01 	movdqa 0x110(%rsp),%xmm0
    23ae:	00 00 
    23b0:	66 0f ef 84 24 90 00 	pxor   0x90(%rsp),%xmm0
    23b7:	00 00 
    23b9:	0f 29 84 24 10 01 00 	movaps %xmm0,0x110(%rsp)
    23c0:	00 
    23c1:	66 0f 6f 84 24 20 01 	movdqa 0x120(%rsp),%xmm0
    23c8:	00 00 
    23ca:	66 0f ef 84 24 a0 00 	pxor   0xa0(%rsp),%xmm0
    23d1:	00 00 
    23d3:	0f 29 84 24 20 01 00 	movaps %xmm0,0x120(%rsp)
    23da:	00 
    23db:	66 0f 6f 84 24 30 01 	movdqa 0x130(%rsp),%xmm0
    23e2:	00 00 
    23e4:	66 0f ef 84 24 b0 00 	pxor   0xb0(%rsp),%xmm0
    23eb:	00 00 
    23ed:	0f 29 84 24 30 01 00 	movaps %xmm0,0x130(%rsp)
    23f4:	00 
    23f5:	66 0f 6f 84 24 40 01 	movdqa 0x140(%rsp),%xmm0
    23fc:	00 00 
    23fe:	66 0f ef 84 24 c0 00 	pxor   0xc0(%rsp),%xmm0
    2405:	00 00 
    2407:	0f 29 84 24 40 01 00 	movaps %xmm0,0x140(%rsp)
    240e:	00 
    240f:	66 0f 6f 84 24 50 01 	movdqa 0x150(%rsp),%xmm0
    2416:	00 00 
    2418:	66 0f ef 84 24 d0 00 	pxor   0xd0(%rsp),%xmm0
    241f:	00 00 
    2421:	0f 29 84 24 50 01 00 	movaps %xmm0,0x150(%rsp)
    2428:	00 
    2429:	e8 dd ee ff ff       	call   130b <memset>
    242e:	66 0f 6f 84 24 60 01 	movdqa 0x160(%rsp),%xmm0
    2435:	00 00 
    2437:	66 0f ef 44 24 60    	pxor   0x60(%rsp),%xmm0
    243d:	0f 29 84 24 60 01 00 	movaps %xmm0,0x160(%rsp)
    2444:	00 
    2445:	66 0f 6f 84 24 70 01 	movdqa 0x170(%rsp),%xmm0
    244c:	00 00 
    244e:	66 0f ef 44 24 70    	pxor   0x70(%rsp),%xmm0
    2454:	0f 29 84 24 70 01 00 	movaps %xmm0,0x170(%rsp)
    245b:	00 
    245c:	66 0f 6f 84 24 80 01 	movdqa 0x180(%rsp),%xmm0
    2463:	00 00 
    2465:	66 0f ef 84 24 80 00 	pxor   0x80(%rsp),%xmm0
    246c:	00 00 
    246e:	0f 29 84 24 80 01 00 	movaps %xmm0,0x180(%rsp)
    2475:	00 
    2476:	66 0f 6f 84 24 90 01 	movdqa 0x190(%rsp),%xmm0
    247d:	00 00 
    247f:	66 0f ef 84 24 90 00 	pxor   0x90(%rsp),%xmm0
    2486:	00 00 
    2488:	0f 29 84 24 90 01 00 	movaps %xmm0,0x190(%rsp)
    248f:	00 
    2490:	66 0f 6f 84 24 a0 01 	movdqa 0x1a0(%rsp),%xmm0
    2497:	00 00 
    2499:	66 0f ef 84 24 a0 00 	pxor   0xa0(%rsp),%xmm0
    24a0:	00 00 
    24a2:	0f 29 84 24 a0 01 00 	movaps %xmm0,0x1a0(%rsp)
    24a9:	00 
    24aa:	66 0f 6f 84 24 b0 01 	movdqa 0x1b0(%rsp),%xmm0
    24b1:	00 00 
    24b3:	66 0f ef 84 24 b0 00 	pxor   0xb0(%rsp),%xmm0
    24ba:	00 00 
    24bc:	0f 29 84 24 b0 01 00 	movaps %xmm0,0x1b0(%rsp)
    24c3:	00 
    24c4:	66 0f 6f 84 24 c0 01 	movdqa 0x1c0(%rsp),%xmm0
    24cb:	00 00 
    24cd:	66 0f ef 84 24 c0 00 	pxor   0xc0(%rsp),%xmm0
    24d4:	00 00 
    24d6:	0f 29 84 24 c0 01 00 	movaps %xmm0,0x1c0(%rsp)
    24dd:	00 
    24de:	66 0f 6f 84 24 d0 01 	movdqa 0x1d0(%rsp),%xmm0
    24e5:	00 00 
    24e7:	66 0f ef 84 24 d0 00 	pxor   0xd0(%rsp),%xmm0
    24ee:	00 00 
    24f0:	0f 29 84 24 d0 01 00 	movaps %xmm0,0x1d0(%rsp)
    24f7:	00 
    24f8:	66 0f 6f 05 70 c1 01 	movdqa 0x1c170(%rip),%xmm0        # 1e670 <g_dyn_entry_table+0x98>
    24ff:	00 
    2500:	0f 29 44 24 20       	movaps %xmm0,0x20(%rsp)
    2505:	66 0f 6f 05 73 c1 01 	movdqa 0x1c173(%rip),%xmm0        # 1e680 <g_dyn_entry_table+0xa8>
    250c:	00 
    250d:	0f 29 44 24 30       	movaps %xmm0,0x30(%rsp)
    2512:	66 0f 6f 05 76 c1 01 	movdqa 0x1c176(%rip),%xmm0        # 1e690 <g_dyn_entry_table+0xb8>
    2519:	00 
    251a:	0f 29 44 24 40       	movaps %xmm0,0x40(%rsp)
    251f:	66 0f 6f 05 79 c1 01 	movdqa 0x1c179(%rip),%xmm0        # 1e6a0 <g_dyn_entry_table+0xc8>
    2526:	00 
    2527:	0f 29 44 24 50       	movaps %xmm0,0x50(%rsp)
    252c:	85 db                	test   %ebx,%ebx
    252e:	0f 84 10 01 00 00    	je     2644 <Hacl_HMAC_compute_sha2_512+0x364>
    2534:	89 d9                	mov    %ebx,%ecx
    2536:	41 89 df             	mov    %ebx,%r15d
    2539:	c1 e9 07             	shr    $0x7,%ecx
    253c:	41 83 e7 7f          	and    $0x7f,%r15d
    2540:	83 fb 7f             	cmp    $0x7f,%ebx
    2543:	0f 86 f3 00 00 00    	jbe    263c <Hacl_HMAC_compute_sha2_512+0x35c>
    2549:	45 85 ff             	test   %r15d,%r15d
    254c:	0f 85 ea 00 00 00    	jne    263c <Hacl_HMAC_compute_sha2_512+0x35c>
    2552:	83 e9 01             	sub    $0x1,%ecx
    2555:	c1 e1 07             	shl    $0x7,%ecx
    2558:	29 cb                	sub    %ecx,%ebx
    255a:	41 89 df             	mov    %ebx,%r15d
    255d:	89 c8                	mov    %ecx,%eax
    255f:	48 8d 5c 24 20       	lea    0x20(%rsp),%rbx
    2564:	89 4c 24 1c          	mov    %ecx,0x1c(%rsp)
    2568:	48 89 ee             	mov    %rbp,%rsi
    256b:	49 8d 0c 04          	lea    (%r12,%rax,1),%rcx
    256f:	48 89 da             	mov    %rbx,%rdx
    2572:	bf 80 00 00 00       	mov    $0x80,%edi
    2577:	48 89 44 24 10       	mov    %rax,0x10(%rsp)
    257c:	48 89 4c 24 08       	mov    %rcx,0x8(%rsp)
    2581:	e8 0a 1b 01 00       	call   14090 <Hacl_Hash_SHA2_sha512_update_nblocks>
    2586:	8b 7c 24 1c          	mov    0x1c(%rsp),%edi
    258a:	48 89 da             	mov    %rbx,%rdx
    258d:	4c 89 e6             	mov    %r12,%rsi
    2590:	e8 fb 1a 01 00       	call   14090 <Hacl_Hash_SHA2_sha512_update_nblocks>
    2595:	48 8b 44 24 10       	mov    0x10(%rsp),%rax
    259a:	44 89 f9             	mov    %r15d,%ecx
    259d:	31 d2                	xor    %edx,%edx
    259f:	49 89 d8             	mov    %rbx,%r8
    25a2:	48 01 c8             	add    %rcx,%rax
    25a5:	48 8b 4c 24 08       	mov    0x8(%rsp),%rcx
    25aa:	48 83 d2 00          	adc    $0x0,%rdx
    25ae:	48 05 80 00 00 00    	add    $0x80,%rax
    25b4:	48 83 d2 00          	adc    $0x0,%rdx
    25b8:	48 89 c7             	mov    %rax,%rdi
    25bb:	48 89 d6             	mov    %rdx,%rsi
    25be:	44 89 fa             	mov    %r15d,%edx
    25c1:	e8 1a 1b 01 00       	call   140e0 <Hacl_Hash_SHA2_sha512_update_last>
    25c6:	48 89 ee             	mov    %rbp,%rsi
    25c9:	48 89 df             	mov    %rbx,%rdi
    25cc:	e8 9f 1c 01 00       	call   14270 <Hacl_Hash_SHA2_sha512_finish>
    25d1:	48 89 df             	mov    %rbx,%rdi
    25d4:	e8 77 1a 01 00       	call   14050 <Hacl_Hash_SHA2_sha512_init>
    25d9:	48 89 da             	mov    %rbx,%rdx
    25dc:	4c 89 f6             	mov    %r14,%rsi
    25df:	bf 80 00 00 00       	mov    $0x80,%edi
    25e4:	e8 a7 1a 01 00       	call   14090 <Hacl_Hash_SHA2_sha512_update_nblocks>
    25e9:	48 89 da             	mov    %rbx,%rdx
    25ec:	48 89 ee             	mov    %rbp,%rsi
    25ef:	31 ff                	xor    %edi,%edi
    25f1:	e8 9a 1a 01 00       	call   14090 <Hacl_Hash_SHA2_sha512_update_nblocks>
    25f6:	49 89 d8             	mov    %rbx,%r8
    25f9:	48 89 e9             	mov    %rbp,%rcx
    25fc:	ba 40 00 00 00       	mov    $0x40,%edx
    2601:	bf c0 00 00 00       	mov    $0xc0,%edi
    2606:	31 f6                	xor    %esi,%esi
    2608:	e8 d3 1a 01 00       	call   140e0 <Hacl_Hash_SHA2_sha512_update_last>
    260d:	4c 89 ee             	mov    %r13,%rsi
    2610:	48 89 df             	mov    %rbx,%rdi
    2613:	e8 58 1c 01 00       	call   14270 <Hacl_Hash_SHA2_sha512_finish>
    2618:	48 81 c4 e8 01 00 00 	add    $0x1e8,%rsp
    261f:	5b                   	pop    %rbx
    2620:	5d                   	pop    %rbp
    2621:	41 5c                	pop    %r12
    2623:	41 5d                	pop    %r13
    2625:	41 5e                	pop    %r14
    2627:	41 5f                	pop    %r15
    2629:	c3                   	ret    
    262a:	89 ea                	mov    %ebp,%edx
    262c:	4c 89 f6             	mov    %r14,%rsi
    262f:	4c 89 ff             	mov    %r15,%rdi
    2632:	e8 f9 2c 01 00       	call   15330 <Hacl_Hash_SHA2_hash_512>
    2637:	e9 f4 fc ff ff       	jmp    2330 <Hacl_HMAC_compute_sha2_512+0x50>
    263c:	c1 e1 07             	shl    $0x7,%ecx
    263f:	e9 19 ff ff ff       	jmp    255d <Hacl_HMAC_compute_sha2_512+0x27d>
    2644:	48 8d 5c 24 20       	lea    0x20(%rsp),%rbx
    2649:	48 89 e9             	mov    %rbp,%rcx
    264c:	ba 80 00 00 00       	mov    $0x80,%edx
    2651:	31 f6                	xor    %esi,%esi
    2653:	49 89 d8             	mov    %rbx,%r8
    2656:	bf 80 00 00 00       	mov    $0x80,%edi
    265b:	e8 80 1a 01 00       	call   140e0 <Hacl_Hash_SHA2_sha512_update_last>
    2660:	e9 61 ff ff ff       	jmp    25c6 <Hacl_HMAC_compute_sha2_512+0x2e6>
    2665:	66 66 2e 0f 1f 84 00 	data16 cs nopw 0x0(%rax,%rax,1)
    266c:	00 00 00 00 

0000000000002670 <Hacl_HMAC_compute_sha3_224>:
    2670:	f3 0f 1e fa          	endbr64 
    2674:	41 57                	push   %r15
    2676:	41 56                	push   %r14
    2678:	41 55                	push   %r13
    267a:	49 89 f5             	mov    %rsi,%r13
    267d:	31 f6                	xor    %esi,%esi
    267f:	41 54                	push   %r12
    2681:	41 89 d4             	mov    %edx,%r12d
    2684:	ba 90 00 00 00       	mov    $0x90,%edx
    2689:	55                   	push   %rbp
    268a:	48 89 cd             	mov    %rcx,%rbp
    268d:	53                   	push   %rbx
    268e:	44 89 c3             	mov    %r8d,%ebx
    2691:	48 81 ec b8 06 00 00 	sub    $0x6b8,%rsp
    2698:	4c 8d 74 24 30       	lea    0x30(%rsp),%r14
    269d:	48 89 7c 24 08       	mov    %rdi,0x8(%rsp)
    26a2:	4c 89 f7             	mov    %r14,%rdi
    26a5:	e8 61 ec ff ff       	call   130b <memset>
    26aa:	41 81 fc 90 00 00 00 	cmp    $0x90,%r12d
    26b1:	0f 87 02 05 00 00    	ja     2bb9 <Hacl_HMAC_compute_sha3_224+0x549>
    26b7:	44 89 e2             	mov    %r12d,%edx
    26ba:	4c 89 ee             	mov    %r13,%rsi
    26bd:	4c 89 f7             	mov    %r14,%rdi
    26c0:	e8 0c ec ff ff       	call   12d1 <memcpy>
    26c5:	4c 8d ac 24 c0 00 00 	lea    0xc0(%rsp),%r13
    26cc:	00 
    26cd:	ba 90 00 00 00       	mov    $0x90,%edx
    26d2:	be 36 00 00 00       	mov    $0x36,%esi
    26d7:	4c 89 ef             	mov    %r13,%rdi
    26da:	4c 8d a4 24 e0 01 00 	lea    0x1e0(%rsp),%r12
    26e1:	00 
    26e2:	e8 24 ec ff ff       	call   130b <memset>
    26e7:	ba 90 00 00 00       	mov    $0x90,%edx
    26ec:	be 5c 00 00 00       	mov    $0x5c,%esi
    26f1:	66 0f 6f 84 24 c0 00 	movdqa 0xc0(%rsp),%xmm0
    26f8:	00 00 
    26fa:	66 0f ef 44 24 30    	pxor   0x30(%rsp),%xmm0
    2700:	48 8d 84 24 50 01 00 	lea    0x150(%rsp),%rax
    2707:	00 
    2708:	48 89 c7             	mov    %rax,%rdi
    270b:	48 89 44 24 10       	mov    %rax,0x10(%rsp)
    2710:	0f 29 84 24 c0 00 00 	movaps %xmm0,0xc0(%rsp)
    2717:	00 
    2718:	66 0f 6f 84 24 d0 00 	movdqa 0xd0(%rsp),%xmm0
    271f:	00 00 
    2721:	66 0f ef 44 24 40    	pxor   0x40(%rsp),%xmm0
    2727:	0f 29 84 24 d0 00 00 	movaps %xmm0,0xd0(%rsp)
    272e:	00 
    272f:	66 0f 6f 84 24 e0 00 	movdqa 0xe0(%rsp),%xmm0
    2736:	00 00 
    2738:	66 0f ef 44 24 50    	pxor   0x50(%rsp),%xmm0
    273e:	0f 29 84 24 e0 00 00 	movaps %xmm0,0xe0(%rsp)
    2745:	00 
    2746:	66 0f 6f 84 24 f0 00 	movdqa 0xf0(%rsp),%xmm0
    274d:	00 00 
    274f:	66 0f ef 44 24 60    	pxor   0x60(%rsp),%xmm0
    2755:	0f 29 84 24 f0 00 00 	movaps %xmm0,0xf0(%rsp)
    275c:	00 
    275d:	66 0f 6f 84 24 00 01 	movdqa 0x100(%rsp),%xmm0
    2764:	00 00 
    2766:	66 0f ef 44 24 70    	pxor   0x70(%rsp),%xmm0
    276c:	0f 29 84 24 00 01 00 	movaps %xmm0,0x100(%rsp)
    2773:	00 
    2774:	66 0f 6f 84 24 10 01 	movdqa 0x110(%rsp),%xmm0
    277b:	00 00 
    277d:	66 0f ef 84 24 80 00 	pxor   0x80(%rsp),%xmm0
    2784:	00 00 
    2786:	0f 29 84 24 10 01 00 	movaps %xmm0,0x110(%rsp)
    278d:	00 
    278e:	66 0f 6f 84 24 20 01 	movdqa 0x120(%rsp),%xmm0
    2795:	00 00 
    2797:	66 0f ef 84 24 90 00 	pxor   0x90(%rsp),%xmm0
    279e:	00 00 
    27a0:	0f 29 84 24 20 01 00 	movaps %xmm0,0x120(%rsp)
    27a7:	00 
    27a8:	66 0f 6f 84 24 30 01 	movdqa 0x130(%rsp),%xmm0
    27af:	00 00 
    27b1:	66 0f ef 84 24 a0 00 	pxor   0xa0(%rsp),%xmm0
    27b8:	00 00 
    27ba:	0f 29 84 24 30 01 00 	movaps %xmm0,0x130(%rsp)
    27c1:	00 
    27c2:	66 0f 6f 84 24 40 01 	movdqa 0x140(%rsp),%xmm0
    27c9:	00 00 
    27cb:	66 0f ef 84 24 b0 00 	pxor   0xb0(%rsp),%xmm0
    27d2:	00 00 
    27d4:	0f 29 84 24 40 01 00 	movaps %xmm0,0x140(%rsp)
    27db:	00 
    27dc:	e8 2a eb ff ff       	call   130b <memset>
    27e1:	b9 19 00 00 00       	mov    $0x19,%ecx
    27e6:	31 c0                	xor    %eax,%eax
    27e8:	4c 89 e7             	mov    %r12,%rdi
    27eb:	66 0f 6f 84 24 50 01 	movdqa 0x150(%rsp),%xmm0
    27f2:	00 00 
    27f4:	66 0f ef 44 24 30    	pxor   0x30(%rsp),%xmm0
    27fa:	f3 48 ab             	rep stos %rax,%es:(%rdi)
    27fd:	0f 29 84 24 50 01 00 	movaps %xmm0,0x150(%rsp)
    2804:	00 
    2805:	66 0f 6f 84 24 60 01 	movdqa 0x160(%rsp),%xmm0
    280c:	00 00 
    280e:	66 0f ef 44 24 40    	pxor   0x40(%rsp),%xmm0
    2814:	0f 29 84 24 60 01 00 	movaps %xmm0,0x160(%rsp)
    281b:	00 
    281c:	66 0f 6f 84 24 70 01 	movdqa 0x170(%rsp),%xmm0
    2823:	00 00 
    2825:	66 0f ef 44 24 50    	pxor   0x50(%rsp),%xmm0
    282b:	0f 29 84 24 70 01 00 	movaps %xmm0,0x170(%rsp)
    2832:	00 
    2833:	66 0f 6f 84 24 80 01 	movdqa 0x180(%rsp),%xmm0
    283a:	00 00 
    283c:	66 0f ef 44 24 60    	pxor   0x60(%rsp),%xmm0
    2842:	0f 29 84 24 80 01 00 	movaps %xmm0,0x180(%rsp)
    2849:	00 
    284a:	66 0f 6f 84 24 90 01 	movdqa 0x190(%rsp),%xmm0
    2851:	00 00 
    2853:	66 0f ef 44 24 70    	pxor   0x70(%rsp),%xmm0
    2859:	0f 29 84 24 90 01 00 	movaps %xmm0,0x190(%rsp)
    2860:	00 
    2861:	66 0f 6f 84 24 a0 01 	movdqa 0x1a0(%rsp),%xmm0
    2868:	00 00 
    286a:	66 0f ef 84 24 80 00 	pxor   0x80(%rsp),%xmm0
    2871:	00 00 
    2873:	0f 29 84 24 a0 01 00 	movaps %xmm0,0x1a0(%rsp)
    287a:	00 
    287b:	66 0f 6f 84 24 b0 01 	movdqa 0x1b0(%rsp),%xmm0
    2882:	00 00 
    2884:	66 0f ef 84 24 90 00 	pxor   0x90(%rsp),%xmm0
    288b:	00 00 
    288d:	0f 29 84 24 b0 01 00 	movaps %xmm0,0x1b0(%rsp)
    2894:	00 
    2895:	66 0f 6f 84 24 c0 01 	movdqa 0x1c0(%rsp),%xmm0
    289c:	00 00 
    289e:	66 0f ef 84 24 a0 00 	pxor   0xa0(%rsp),%xmm0
    28a5:	00 00 
    28a7:	0f 29 84 24 c0 01 00 	movaps %xmm0,0x1c0(%rsp)
    28ae:	00 
    28af:	66 0f 6f 84 24 d0 01 	movdqa 0x1d0(%rsp),%xmm0
    28b6:	00 00 
    28b8:	66 0f ef 84 24 b0 00 	pxor   0xb0(%rsp),%xmm0
    28bf:	00 00 
    28c1:	0f 29 84 24 d0 01 00 	movaps %xmm0,0x1d0(%rsp)
    28c8:	00 
    28c9:	85 db                	test   %ebx,%ebx
    28cb:	0f 84 06 03 00 00    	je     2bd7 <Hacl_HMAC_compute_sha3_224+0x567>
    28d1:	41 89 df             	mov    %ebx,%r15d
    28d4:	41 89 de             	mov    %ebx,%r14d
    28d7:	4d 69 ff 39 8e e3 38 	imul   $0x38e38e39,%r15,%r15
    28de:	49 c1 ef 25          	shr    $0x25,%r15
    28e2:	42 8d 04 fd 00 00 00 	lea    0x0(,%r15,8),%eax
    28e9:	00 
    28ea:	42 8d 14 38          	lea    (%rax,%r15,1),%edx
    28ee:	c1 e2 04             	shl    $0x4,%edx
    28f1:	41 29 d6             	sub    %edx,%r14d
    28f4:	81 fb 8f 00 00 00    	cmp    $0x8f,%ebx
    28fa:	0f 86 cc 02 00 00    	jbe    2bcc <Hacl_HMAC_compute_sha3_224+0x55c>
    2900:	45 85 f6             	test   %r14d,%r14d
    2903:	0f 85 c3 02 00 00    	jne    2bcc <Hacl_HMAC_compute_sha3_224+0x55c>
    2909:	41 83 ef 01          	sub    $0x1,%r15d
    290d:	43 8d 04 ff          	lea    (%r15,%r15,8),%eax
    2911:	c1 e0 04             	shl    $0x4,%eax
    2914:	29 c3                	sub    %eax,%ebx
    2916:	41 89 de             	mov    %ebx,%r14d
    2919:	b9 01 00 00 00       	mov    $0x1,%ecx
    291e:	4c 89 ea             	mov    %r13,%rdx
    2921:	4c 89 e6             	mov    %r12,%rsi
    2924:	bf 09 00 00 00       	mov    $0x9,%edi
    2929:	48 8d 5c 05 00       	lea    0x0(%rbp,%rax,1),%rbx
    292e:	e8 cd 43 01 00       	call   16d00 <Hacl_Hash_SHA3_update_multi_sha3>
    2933:	44 89 f9             	mov    %r15d,%ecx
    2936:	48 89 ea             	mov    %rbp,%rdx
    2939:	4c 89 e6             	mov    %r12,%rsi
    293c:	bf 09 00 00 00       	mov    $0x9,%edi
    2941:	e8 ba 43 01 00       	call   16d00 <Hacl_Hash_SHA3_update_multi_sha3>
    2946:	44 89 f1             	mov    %r14d,%ecx
    2949:	48 89 da             	mov    %rbx,%rdx
    294c:	4c 89 e6             	mov    %r12,%rsi
    294f:	bf 09 00 00 00       	mov    $0x9,%edi
    2954:	e8 c7 44 01 00       	call   16e20 <Hacl_Hash_SHA3_update_last_sha3>
    2959:	31 c0                	xor    %eax,%eax
    295b:	b9 20 00 00 00       	mov    $0x20,%ecx
    2960:	66 0f ef c0          	pxor   %xmm0,%xmm0
    2964:	ba c8 00 00 00       	mov    $0xc8,%edx
    2969:	48 8d bc 24 b0 03 00 	lea    0x3b0(%rsp),%rdi
    2970:	00 
    2971:	4c 8d bc 24 b0 03 00 	lea    0x3b0(%rsp),%r15
    2978:	00 
    2979:	4c 89 e6             	mov    %r12,%rsi
    297c:	0f 29 84 24 b0 02 00 	movaps %xmm0,0x2b0(%rsp)
    2983:	00 
    2984:	f3 48 ab             	rep stos %rax,%es:(%rdi)
    2987:	4c 89 ff             	mov    %r15,%rdi
    298a:	0f 29 84 24 c0 02 00 	movaps %xmm0,0x2c0(%rsp)
    2991:	00 
    2992:	48 8d ac 24 b0 04 00 	lea    0x4b0(%rsp),%rbp
    2999:	00 
    299a:	0f 29 84 24 d0 02 00 	movaps %xmm0,0x2d0(%rsp)
    29a1:	00 
    29a2:	48 8d 9c 24 b0 05 00 	lea    0x5b0(%rsp),%rbx
    29a9:	00 
    29aa:	0f 29 84 24 e0 02 00 	movaps %xmm0,0x2e0(%rsp)
    29b1:	00 
    29b2:	0f 29 84 24 f0 02 00 	movaps %xmm0,0x2f0(%rsp)
    29b9:	00 
    29ba:	0f 29 84 24 00 03 00 	movaps %xmm0,0x300(%rsp)
    29c1:	00 
    29c2:	0f 29 84 24 10 03 00 	movaps %xmm0,0x310(%rsp)
    29c9:	00 
    29ca:	0f 29 84 24 20 03 00 	movaps %xmm0,0x320(%rsp)
    29d1:	00 
    29d2:	0f 29 84 24 30 03 00 	movaps %xmm0,0x330(%rsp)
    29d9:	00 
    29da:	0f 29 84 24 40 03 00 	movaps %xmm0,0x340(%rsp)
    29e1:	00 
    29e2:	0f 29 84 24 50 03 00 	movaps %xmm0,0x350(%rsp)
    29e9:	00 
    29ea:	0f 29 84 24 60 03 00 	movaps %xmm0,0x360(%rsp)
    29f1:	00 
    29f2:	0f 29 84 24 70 03 00 	movaps %xmm0,0x370(%rsp)
    29f9:	00 
    29fa:	0f 29 84 24 80 03 00 	movaps %xmm0,0x380(%rsp)
    2a01:	00 
    2a02:	0f 29 84 24 90 03 00 	movaps %xmm0,0x390(%rsp)
    2a09:	00 
    2a0a:	0f 29 84 24 a0 03 00 	movaps %xmm0,0x3a0(%rsp)
    2a11:	00 
    2a12:	e8 ba e8 ff ff       	call   12d1 <memcpy>
    2a17:	48 8d 84 24 b0 02 00 	lea    0x2b0(%rsp),%rax
    2a1e:	00 
    2a1f:	48 89 44 24 18       	mov    %rax,0x18(%rsp)
    2a24:	49 89 c6             	mov    %rax,%r14
    2a27:	66 0f 1f 84 00 00 00 	nopw   0x0(%rax,%rax,1)
    2a2e:	00 00 
    2a30:	49 8b 07             	mov    (%r15),%rax
    2a33:	4c 89 f7             	mov    %r14,%rdi
    2a36:	ba 08 00 00 00       	mov    $0x8,%edx
    2a3b:	48 89 de             	mov    %rbx,%rsi
    2a3e:	49 83 c7 08          	add    $0x8,%r15
    2a42:	49 83 c6 08          	add    $0x8,%r14
    2a46:	48 89 84 24 b0 05 00 	mov    %rax,0x5b0(%rsp)
    2a4d:	00 
    2a4e:	e8 7e e8 ff ff       	call   12d1 <memcpy>
    2a53:	49 39 ef             	cmp    %rbp,%r15
    2a56:	75 d8                	jne    2a30 <Hacl_HMAC_compute_sha3_224+0x3c0>
    2a58:	48 8b 74 24 18       	mov    0x18(%rsp),%rsi
    2a5d:	ba 1c 00 00 00       	mov    $0x1c,%edx
    2a62:	4c 89 ef             	mov    %r13,%rdi
    2a65:	4c 8d b4 24 b0 06 00 	lea    0x6b0(%rsp),%r14
    2a6c:	00 
    2a6d:	e8 5f e8 ff ff       	call   12d1 <memcpy>
    2a72:	4c 89 e6             	mov    %r12,%rsi
    2a75:	bf 09 00 00 00       	mov    $0x9,%edi
    2a7a:	e8 61 42 01 00       	call   16ce0 <Hacl_Hash_SHA3_init_>
    2a7f:	48 8b 54 24 10       	mov    0x10(%rsp),%rdx
    2a84:	4c 89 e6             	mov    %r12,%rsi
    2a87:	b9 01 00 00 00       	mov    $0x1,%ecx
    2a8c:	bf 09 00 00 00       	mov    $0x9,%edi
    2a91:	e8 6a 42 01 00       	call   16d00 <Hacl_Hash_SHA3_update_multi_sha3>
    2a96:	4c 89 ea             	mov    %r13,%rdx
    2a99:	4c 89 e6             	mov    %r12,%rsi
    2a9c:	31 c9                	xor    %ecx,%ecx
    2a9e:	bf 09 00 00 00       	mov    $0x9,%edi
    2aa3:	e8 58 42 01 00       	call   16d00 <Hacl_Hash_SHA3_update_multi_sha3>
    2aa8:	4c 89 ea             	mov    %r13,%rdx
    2aab:	4c 89 e6             	mov    %r12,%rsi
    2aae:	b9 1c 00 00 00       	mov    $0x1c,%ecx
    2ab3:	bf 09 00 00 00       	mov    $0x9,%edi
    2ab8:	4c 8d 6c 24 28       	lea    0x28(%rsp),%r13
    2abd:	e8 5e 43 01 00       	call   16e20 <Hacl_Hash_SHA3_update_last_sha3>
    2ac2:	31 c0                	xor    %eax,%eax
    2ac4:	b9 20 00 00 00       	mov    $0x20,%ecx
    2ac9:	48 89 df             	mov    %rbx,%rdi
    2acc:	f3 48 ab             	rep stos %rax,%es:(%rdi)
    2acf:	66 0f ef c0          	pxor   %xmm0,%xmm0
    2ad3:	4c 89 e6             	mov    %r12,%rsi
    2ad6:	ba c8 00 00 00       	mov    $0xc8,%edx
    2adb:	48 89 df             	mov    %rbx,%rdi
    2ade:	0f 29 84 24 b0 04 00 	movaps %xmm0,0x4b0(%rsp)
    2ae5:	00 
    2ae6:	49 89 ec             	mov    %rbp,%r12
    2ae9:	0f 29 84 24 c0 04 00 	movaps %xmm0,0x4c0(%rsp)
    2af0:	00 
    2af1:	0f 29 84 24 d0 04 00 	movaps %xmm0,0x4d0(%rsp)
    2af8:	00 
    2af9:	0f 29 84 24 e0 04 00 	movaps %xmm0,0x4e0(%rsp)
    2b00:	00 
    2b01:	0f 29 84 24 f0 04 00 	movaps %xmm0,0x4f0(%rsp)
    2b08:	00 
    2b09:	0f 29 84 24 00 05 00 	movaps %xmm0,0x500(%rsp)
    2b10:	00 
    2b11:	0f 29 84 24 10 05 00 	movaps %xmm0,0x510(%rsp)
    2b18:	00 
    2b19:	0f 29 84 24 20 05 00 	movaps %xmm0,0x520(%rsp)
    2b20:	00 
    2b21:	0f 29 84 24 30 05 00 	movaps %xmm0,0x530(%rsp)
    2b28:	00 
    2b29:	0f 29 84 24 40 05 00 	movaps %xmm0,0x540(%rsp)
    2b30:	00 
    2b31:	0f 29 84 24 50 05 00 	movaps %xmm0,0x550(%rsp)
    2b38:	00 
    2b39:	0f 29 84 24 60 05 00 	movaps %xmm0,0x560(%rsp)
    2b40:	00 
    2b41:	0f 29 84 24 70 05 00 	movaps %xmm0,0x570(%rsp)
    2b48:	00 
    2b49:	0f 29 84 24 80 05 00 	movaps %xmm0,0x580(%rsp)
    2b50:	00 
    2b51:	0f 29 84 24 90 05 00 	movaps %xmm0,0x590(%rsp)
    2b58:	00 
    2b59:	0f 29 84 24 a0 05 00 	movaps %xmm0,0x5a0(%rsp)
    2b60:	00 
    2b61:	e8 6b e7 ff ff       	call   12d1 <memcpy>
    2b66:	66 2e 0f 1f 84 00 00 	cs nopw 0x0(%rax,%rax,1)
    2b6d:	00 00 00 
    2b70:	48 8b 03             	mov    (%rbx),%rax
    2b73:	4c 89 e7             	mov    %r12,%rdi
    2b76:	ba 08 00 00 00       	mov    $0x8,%edx
    2b7b:	4c 89 ee             	mov    %r13,%rsi
    2b7e:	48 83 c3 08          	add    $0x8,%rbx
    2b82:	49 83 c4 08          	add    $0x8,%r12
    2b86:	48 89 44 24 28       	mov    %rax,0x28(%rsp)
    2b8b:	e8 41 e7 ff ff       	call   12d1 <memcpy>
    2b90:	49 39 de             	cmp    %rbx,%r14
    2b93:	75 db                	jne    2b70 <Hacl_HMAC_compute_sha3_224+0x500>
    2b95:	48 8b 7c 24 08       	mov    0x8(%rsp),%rdi
    2b9a:	48 89 ee             	mov    %rbp,%rsi
    2b9d:	ba 1c 00 00 00       	mov    $0x1c,%edx
    2ba2:	e8 2a e7 ff ff       	call   12d1 <memcpy>
    2ba7:	48 81 c4 b8 06 00 00 	add    $0x6b8,%rsp
    2bae:	5b                   	pop    %rbx
    2baf:	5d                   	pop    %rbp
    2bb0:	41 5c                	pop    %r12
    2bb2:	41 5d                	pop    %r13
    2bb4:	41 5e                	pop    %r14
    2bb6:	41 5f                	pop    %r15
    2bb8:	c3                   	ret    
    2bb9:	44 89 e2             	mov    %r12d,%edx
    2bbc:	4c 89 ee             	mov    %r13,%rsi
    2bbf:	4c 89 f7             	mov    %r14,%rdi
    2bc2:	e8 29 87 01 00       	call   1b2f0 <Hacl_Hash_SHA3_sha3_224>
    2bc7:	e9 f9 fa ff ff       	jmp    26c5 <Hacl_HMAC_compute_sha3_224+0x55>
    2bcc:	44 01 f8             	add    %r15d,%eax
    2bcf:	c1 e0 04             	shl    $0x4,%eax
    2bd2:	e9 42 fd ff ff       	jmp    2919 <Hacl_HMAC_compute_sha3_224+0x2a9>
    2bd7:	b9 90 00 00 00       	mov    $0x90,%ecx
    2bdc:	4c 89 ea             	mov    %r13,%rdx
    2bdf:	4c 89 e6             	mov    %r12,%rsi
    2be2:	bf 09 00 00 00       	mov    $0x9,%edi
    2be7:	e8 34 42 01 00       	call   16e20 <Hacl_Hash_SHA3_update_last_sha3>
    2bec:	e9 68 fd ff ff       	jmp    2959 <Hacl_HMAC_compute_sha3_224+0x2e9>
    2bf1:	66 66 2e 0f 1f 84 00 	data16 cs nopw 0x0(%rax,%rax,1)
    2bf8:	00 00 00 00 
    2bfc:	0f 1f 40 00          	nopl   0x0(%rax)

0000000000002c00 <Hacl_HMAC_compute_sha3_256>:
    2c00:	f3 0f 1e fa          	endbr64 
    2c04:	41 57                	push   %r15
    2c06:	41 56                	push   %r14
    2c08:	41 55                	push   %r13
    2c0a:	49 89 f5             	mov    %rsi,%r13
    2c0d:	31 f6                	xor    %esi,%esi
    2c0f:	41 54                	push   %r12
    2c11:	41 89 d4             	mov    %edx,%r12d
    2c14:	ba 88 00 00 00       	mov    $0x88,%edx
    2c19:	55                   	push   %rbp
    2c1a:	48 89 cd             	mov    %rcx,%rbp
    2c1d:	53                   	push   %rbx
    2c1e:	44 89 c3             	mov    %r8d,%ebx
    2c21:	48 81 ec b8 06 00 00 	sub    $0x6b8,%rsp
    2c28:	4c 8d 74 24 30       	lea    0x30(%rsp),%r14
    2c2d:	48 89 7c 24 10       	mov    %rdi,0x10(%rsp)
    2c32:	4c 89 f7             	mov    %r14,%rdi
    2c35:	e8 d1 e6 ff ff       	call   130b <memset>
    2c3a:	41 81 fc 88 00 00 00 	cmp    $0x88,%r12d
    2c41:	0f 87 02 05 00 00    	ja     3149 <Hacl_HMAC_compute_sha3_256+0x549>
    2c47:	44 89 e2             	mov    %r12d,%edx
    2c4a:	4c 89 ee             	mov    %r13,%rsi
    2c4d:	4c 89 f7             	mov    %r14,%rdi
    2c50:	e8 7c e6 ff ff       	call   12d1 <memcpy>
    2c55:	4c 8d ac 24 c0 00 00 	lea    0xc0(%rsp),%r13
    2c5c:	00 
    2c5d:	ba 88 00 00 00       	mov    $0x88,%edx
    2c62:	be 36 00 00 00       	mov    $0x36,%esi
    2c67:	4c 89 ef             	mov    %r13,%rdi
    2c6a:	4c 8d a4 24 e0 01 00 	lea    0x1e0(%rsp),%r12
    2c71:	00 
    2c72:	e8 94 e6 ff ff       	call   130b <memset>
    2c77:	ba 88 00 00 00       	mov    $0x88,%edx
    2c7c:	be 5c 00 00 00       	mov    $0x5c,%esi
    2c81:	66 0f 6f 84 24 c0 00 	movdqa 0xc0(%rsp),%xmm0
    2c88:	00 00 
    2c8a:	66 0f ef 44 24 30    	pxor   0x30(%rsp),%xmm0
    2c90:	48 8d 84 24 50 01 00 	lea    0x150(%rsp),%rax
    2c97:	00 
    2c98:	f3 0f 7e 8c 24 b0 00 	movq   0xb0(%rsp),%xmm1
    2c9f:	00 00 
    2ca1:	48 89 c7             	mov    %rax,%rdi
    2ca4:	48 89 44 24 08       	mov    %rax,0x8(%rsp)
    2ca9:	0f 29 84 24 c0 00 00 	movaps %xmm0,0xc0(%rsp)
    2cb0:	00 
    2cb1:	66 0f 6f 84 24 d0 00 	movdqa 0xd0(%rsp),%xmm0
    2cb8:	00 00 
    2cba:	66 0f ef 44 24 40    	pxor   0x40(%rsp),%xmm0
    2cc0:	0f 29 84 24 d0 00 00 	movaps %xmm0,0xd0(%rsp)
    2cc7:	00 
    2cc8:	66 0f 6f 84 24 e0 00 	movdqa 0xe0(%rsp),%xmm0
    2ccf:	00 00 
    2cd1:	66 0f ef 44 24 50    	pxor   0x50(%rsp),%xmm0
    2cd7:	0f 29 84 24 e0 00 00 	movaps %xmm0,0xe0(%rsp)
    2cde:	00 
    2cdf:	66 0f 6f 84 24 f0 00 	movdqa 0xf0(%rsp),%xmm0
    2ce6:	00 00 
    2ce8:	66 0f ef 44 24 60    	pxor   0x60(%rsp),%xmm0
    2cee:	0f 29 84 24 f0 00 00 	movaps %xmm0,0xf0(%rsp)
    2cf5:	00 
    2cf6:	66 0f 6f 84 24 00 01 	movdqa 0x100(%rsp),%xmm0
    2cfd:	00 00 
    2cff:	66 0f ef 44 24 70    	pxor   0x70(%rsp),%xmm0
    2d05:	0f 29 84 24 00 01 00 	movaps %xmm0,0x100(%rsp)
    2d0c:	00 
    2d0d:	66 0f 6f 84 24 10 01 	movdqa 0x110(%rsp),%xmm0
    2d14:	00 00 
    2d16:	66 0f ef 84 24 80 00 	pxor   0x80(%rsp),%xmm0
    2d1d:	00 00 
    2d1f:	0f 29 84 24 10 01 00 	movaps %xmm0,0x110(%rsp)
    2d26:	00 
    2d27:	66 0f 6f 84 24 20 01 	movdqa 0x120(%rsp),%xmm0
    2d2e:	00 00 
    2d30:	66 0f ef 84 24 90 00 	pxor   0x90(%rsp),%xmm0
    2d37:	00 00 
    2d39:	0f 29 84 24 20 01 00 	movaps %xmm0,0x120(%rsp)
    2d40:	00 
    2d41:	66 0f 6f 84 24 30 01 	movdqa 0x130(%rsp),%xmm0
    2d48:	00 00 
    2d4a:	66 0f ef 84 24 a0 00 	pxor   0xa0(%rsp),%xmm0
    2d51:	00 00 
    2d53:	0f 29 84 24 30 01 00 	movaps %xmm0,0x130(%rsp)
    2d5a:	00 
    2d5b:	f3 0f 7e 84 24 40 01 	movq   0x140(%rsp),%xmm0
    2d62:	00 00 
    2d64:	66 0f ef c1          	pxor   %xmm1,%xmm0
    2d68:	66 0f d6 84 24 40 01 	movq   %xmm0,0x140(%rsp)
    2d6f:	00 00 
    2d71:	e8 95 e5 ff ff       	call   130b <memset>
    2d76:	b9 19 00 00 00       	mov    $0x19,%ecx
    2d7b:	31 c0                	xor    %eax,%eax
    2d7d:	4c 89 e7             	mov    %r12,%rdi
    2d80:	66 0f 6f 84 24 50 01 	movdqa 0x150(%rsp),%xmm0
    2d87:	00 00 
    2d89:	66 0f ef 44 24 30    	pxor   0x30(%rsp),%xmm0
    2d8f:	f3 0f 7e 8c 24 b0 00 	movq   0xb0(%rsp),%xmm1
    2d96:	00 00 
    2d98:	f3 48 ab             	rep stos %rax,%es:(%rdi)
    2d9b:	0f 29 84 24 50 01 00 	movaps %xmm0,0x150(%rsp)
    2da2:	00 
    2da3:	66 0f 6f 84 24 60 01 	movdqa 0x160(%rsp),%xmm0
    2daa:	00 00 
    2dac:	66 0f ef 44 24 40    	pxor   0x40(%rsp),%xmm0
    2db2:	0f 29 84 24 60 01 00 	movaps %xmm0,0x160(%rsp)
    2db9:	00 
    2dba:	66 0f 6f 84 24 70 01 	movdqa 0x170(%rsp),%xmm0
    2dc1:	00 00 
    2dc3:	66 0f ef 44 24 50    	pxor   0x50(%rsp),%xmm0
    2dc9:	0f 29 84 24 70 01 00 	movaps %xmm0,0x170(%rsp)
    2dd0:	00 
    2dd1:	66 0f 6f 84 24 80 01 	movdqa 0x180(%rsp),%xmm0
    2dd8:	00 00 
    2dda:	66 0f ef 44 24 60    	pxor   0x60(%rsp),%xmm0
    2de0:	0f 29 84 24 80 01 00 	movaps %xmm0,0x180(%rsp)
    2de7:	00 
    2de8:	66 0f 6f 84 24 90 01 	movdqa 0x190(%rsp),%xmm0
    2def:	00 00 
    2df1:	66 0f ef 44 24 70    	pxor   0x70(%rsp),%xmm0
    2df7:	0f 29 84 24 90 01 00 	movaps %xmm0,0x190(%rsp)
    2dfe:	00 
    2dff:	66 0f 6f 84 24 a0 01 	movdqa 0x1a0(%rsp),%xmm0
    2e06:	00 00 
    2e08:	66 0f ef 84 24 80 00 	pxor   0x80(%rsp),%xmm0
    2e0f:	00 00 
    2e11:	0f 29 84 24 a0 01 00 	movaps %xmm0,0x1a0(%rsp)
    2e18:	00 
    2e19:	66 0f 6f 84 24 b0 01 	movdqa 0x1b0(%rsp),%xmm0
    2e20:	00 00 
    2e22:	66 0f ef 84 24 90 00 	pxor   0x90(%rsp),%xmm0
    2e29:	00 00 
    2e2b:	0f 29 84 24 b0 01 00 	movaps %xmm0,0x1b0(%rsp)
    2e32:	00 
    2e33:	66 0f 6f 84 24 c0 01 	movdqa 0x1c0(%rsp),%xmm0
    2e3a:	00 00 
    2e3c:	66 0f ef 84 24 a0 00 	pxor   0xa0(%rsp),%xmm0
    2e43:	00 00 
    2e45:	0f 29 84 24 c0 01 00 	movaps %xmm0,0x1c0(%rsp)
    2e4c:	00 
    2e4d:	f3 0f 7e 84 24 d0 01 	movq   0x1d0(%rsp),%xmm0
    2e54:	00 00 
    2e56:	66 0f ef c1          	pxor   %xmm1,%xmm0
    2e5a:	66 0f d6 84 24 d0 01 	movq   %xmm0,0x1d0(%rsp)
    2e61:	00 00 
    2e63:	85 db                	test   %ebx,%ebx
    2e65:	0f 84 fd 02 00 00    	je     3168 <Hacl_HMAC_compute_sha3_256+0x568>
    2e6b:	b8 f1 f0 f0 f0       	mov    $0xf0f0f0f1,%eax
    2e70:	41 89 df             	mov    %ebx,%r15d
    2e73:	41 89 de             	mov    %ebx,%r14d
    2e76:	4c 0f af f8          	imul   %rax,%r15
    2e7a:	49 c1 ef 27          	shr    $0x27,%r15
    2e7e:	41 69 c7 88 00 00 00 	imul   $0x88,%r15d,%eax
    2e85:	41 29 c6             	sub    %eax,%r14d
    2e88:	81 fb 87 00 00 00    	cmp    $0x87,%ebx
    2e8e:	0f 86 c8 02 00 00    	jbe    315c <Hacl_HMAC_compute_sha3_256+0x55c>
    2e94:	45 85 f6             	test   %r14d,%r14d
    2e97:	0f 85 bf 02 00 00    	jne    315c <Hacl_HMAC_compute_sha3_256+0x55c>
    2e9d:	41 83 ef 01          	sub    $0x1,%r15d
    2ea1:	41 69 c7 88 00 00 00 	imul   $0x88,%r15d,%eax
    2ea8:	29 c3                	sub    %eax,%ebx
    2eaa:	41 89 de             	mov    %ebx,%r14d
    2ead:	b9 01 00 00 00       	mov    $0x1,%ecx
    2eb2:	4c 89 ea             	mov    %r13,%rdx
    2eb5:	4c 89 e6             	mov    %r12,%rsi
    2eb8:	bf 08 00 00 00       	mov    $0x8,%edi
    2ebd:	48 8d 5c 05 00       	lea    0x0(%rbp,%rax,1),%rbx
    2ec2:	e8 39 3e 01 00       	call   16d00 <Hacl_Hash_SHA3_update_multi_sha3>
    2ec7:	44 89 f9             	mov    %r15d,%ecx
    2eca:	48 89 ea             	mov    %rbp,%rdx
    2ecd:	4c 89 e6             	mov    %r12,%rsi
    2ed0:	bf 08 00 00 00       	mov    $0x8,%edi
    2ed5:	e8 26 3e 01 00       	call   16d00 <Hacl_Hash_SHA3_update_multi_sha3>
    2eda:	44 89 f1             	mov    %r14d,%ecx
    2edd:	48 89 da             	mov    %rbx,%rdx
    2ee0:	4c 89 e6             	mov    %r12,%rsi
    2ee3:	bf 08 00 00 00       	mov    $0x8,%edi
    2ee8:	e8 33 3f 01 00       	call   16e20 <Hacl_Hash_SHA3_update_last_sha3>
    2eed:	31 c0                	xor    %eax,%eax
    2eef:	b9 20 00 00 00       	mov    $0x20,%ecx
    2ef4:	66 0f ef c0          	pxor   %xmm0,%xmm0
    2ef8:	ba c8 00 00 00       	mov    $0xc8,%edx
    2efd:	48 8d bc 24 b0 03 00 	lea    0x3b0(%rsp),%rdi
    2f04:	00 
    2f05:	4c 8d b4 24 b0 03 00 	lea    0x3b0(%rsp),%r14
    2f0c:	00 
    2f0d:	4c 89 e6             	mov    %r12,%rsi
    2f10:	0f 29 84 24 b0 02 00 	movaps %xmm0,0x2b0(%rsp)
    2f17:	00 
    2f18:	f3 48 ab             	rep stos %rax,%es:(%rdi)
    2f1b:	4c 89 f7             	mov    %r14,%rdi
    2f1e:	0f 29 84 24 c0 02 00 	movaps %xmm0,0x2c0(%rsp)
    2f25:	00 
    2f26:	48 8d ac 24 b0 04 00 	lea    0x4b0(%rsp),%rbp
    2f2d:	00 
    2f2e:	0f 29 84 24 d0 02 00 	movaps %xmm0,0x2d0(%rsp)
    2f35:	00 
    2f36:	48 8d 9c 24 b0 05 00 	lea    0x5b0(%rsp),%rbx
    2f3d:	00 
    2f3e:	0f 29 84 24 e0 02 00 	movaps %xmm0,0x2e0(%rsp)
    2f45:	00 
    2f46:	0f 29 84 24 f0 02 00 	movaps %xmm0,0x2f0(%rsp)
    2f4d:	00 
    2f4e:	0f 29 84 24 00 03 00 	movaps %xmm0,0x300(%rsp)
    2f55:	00 
    2f56:	0f 29 84 24 10 03 00 	movaps %xmm0,0x310(%rsp)
    2f5d:	00 
    2f5e:	0f 29 84 24 20 03 00 	movaps %xmm0,0x320(%rsp)
    2f65:	00 
    2f66:	0f 29 84 24 30 03 00 	movaps %xmm0,0x330(%rsp)
    2f6d:	00 
    2f6e:	0f 29 84 24 40 03 00 	movaps %xmm0,0x340(%rsp)
    2f75:	00 
    2f76:	0f 29 84 24 50 03 00 	movaps %xmm0,0x350(%rsp)
    2f7d:	00 
    2f7e:	0f 29 84 24 60 03 00 	movaps %xmm0,0x360(%rsp)
    2f85:	00 
    2f86:	0f 29 84 24 70 03 00 	movaps %xmm0,0x370(%rsp)
    2f8d:	00 
    2f8e:	0f 29 84 24 80 03 00 	movaps %xmm0,0x380(%rsp)
    2f95:	00 
    2f96:	0f 29 84 24 90 03 00 	movaps %xmm0,0x390(%rsp)
    2f9d:	00 
    2f9e:	0f 29 84 24 a0 03 00 	movaps %xmm0,0x3a0(%rsp)
    2fa5:	00 
    2fa6:	e8 26 e3 ff ff       	call   12d1 <memcpy>
    2fab:	48 8d 84 24 b0 02 00 	lea    0x2b0(%rsp),%rax
    2fb2:	00 
    2fb3:	48 89 44 24 18       	mov    %rax,0x18(%rsp)
    2fb8:	49 89 c7             	mov    %rax,%r15
    2fbb:	0f 1f 44 00 00       	nopl   0x0(%rax,%rax,1)
    2fc0:	49 8b 06             	mov    (%r14),%rax
    2fc3:	4c 89 ff             	mov    %r15,%rdi
    2fc6:	ba 08 00 00 00       	mov    $0x8,%edx
    2fcb:	48 89 de             	mov    %rbx,%rsi
    2fce:	49 83 c6 08          	add    $0x8,%r14
    2fd2:	49 83 c7 08          	add    $0x8,%r15
    2fd6:	48 89 84 24 b0 05 00 	mov    %rax,0x5b0(%rsp)
    2fdd:	00 
    2fde:	e8 ee e2 ff ff       	call   12d1 <memcpy>
    2fe3:	49 39 ee             	cmp    %rbp,%r14
    2fe6:	75 d8                	jne    2fc0 <Hacl_HMAC_compute_sha3_256+0x3c0>
    2fe8:	48 8b 74 24 18       	mov    0x18(%rsp),%rsi
    2fed:	ba 20 00 00 00       	mov    $0x20,%edx
    2ff2:	4c 89 ef             	mov    %r13,%rdi
    2ff5:	4c 8d b4 24 b0 06 00 	lea    0x6b0(%rsp),%r14
    2ffc:	00 
    2ffd:	e8 cf e2 ff ff       	call   12d1 <memcpy>
    3002:	4c 89 e6             	mov    %r12,%rsi
    3005:	bf 08 00 00 00       	mov    $0x8,%edi
    300a:	e8 d1 3c 01 00       	call   16ce0 <Hacl_Hash_SHA3_init_>
    300f:	48 8b 54 24 08       	mov    0x8(%rsp),%rdx
    3014:	4c 89 e6             	mov    %r12,%rsi
    3017:	b9 01 00 00 00       	mov    $0x1,%ecx
    301c:	bf 08 00 00 00       	mov    $0x8,%edi
    3021:	e8 da 3c 01 00       	call   16d00 <Hacl_Hash_SHA3_update_multi_sha3>
    3026:	4c 89 ea             	mov    %r13,%rdx
    3029:	4c 89 e6             	mov    %r12,%rsi
    302c:	31 c9                	xor    %ecx,%ecx
    302e:	bf 08 00 00 00       	mov    $0x8,%edi
    3033:	e8 c8 3c 01 00       	call   16d00 <Hacl_Hash_SHA3_update_multi_sha3>
    3038:	4c 89 ea             	mov    %r13,%rdx
    303b:	4c 89 e6             	mov    %r12,%rsi
    303e:	b9 20 00 00 00       	mov    $0x20,%ecx
    3043:	bf 08 00 00 00       	mov    $0x8,%edi
    3048:	4c 8d 6c 24 28       	lea    0x28(%rsp),%r13
    304d:	e8 ce 3d 01 00       	call   16e20 <Hacl_Hash_SHA3_update_last_sha3>
    3052:	31 c0                	xor    %eax,%eax
    3054:	b9 20 00 00 00       	mov    $0x20,%ecx
    3059:	48 89 df             	mov    %rbx,%rdi
    305c:	f3 48 ab             	rep stos %rax,%es:(%rdi)
    305f:	66 0f ef c0          	pxor   %xmm0,%xmm0
    3063:	4c 89 e6             	mov    %r12,%rsi
    3066:	ba c8 00 00 00       	mov    $0xc8,%edx
    306b:	48 89 df             	mov    %rbx,%rdi
    306e:	0f 29 84 24 b0 04 00 	movaps %xmm0,0x4b0(%rsp)
    3075:	00 
    3076:	49 89 ec             	mov    %rbp,%r12
    3079:	0f 29 84 24 c0 04 00 	movaps %xmm0,0x4c0(%rsp)
    3080:	00 
    3081:	0f 29 84 24 d0 04 00 	movaps %xmm0,0x4d0(%rsp)
    3088:	00 
    3089:	0f 29 84 24 e0 04 00 	movaps %xmm0,0x4e0(%rsp)
    3090:	00 
    3091:	0f 29 84 24 f0 04 00 	movaps %xmm0,0x4f0(%rsp)
    3098:	00 
    3099:	0f 29 84 24 00 05 00 	movaps %xmm0,0x500(%rsp)
    30a0:	00 
    30a1:	0f 29 84 24 10 05 00 	movaps %xmm0,0x510(%rsp)
    30a8:	00 
    30a9:	0f 29 84 24 20 05 00 	movaps %xmm0,0x520(%rsp)
    30b0:	00 
    30b1:	0f 29 84 24 30 05 00 	movaps %xmm0,0x530(%rsp)
    30b8:	00 
    30b9:	0f 29 84 24 40 05 00 	movaps %xmm0,0x540(%rsp)
    30c0:	00 
    30c1:	0f 29 84 24 50 05 00 	movaps %xmm0,0x550(%rsp)
    30c8:	00 
    30c9:	0f 29 84 24 60 05 00 	movaps %xmm0,0x560(%rsp)
    30d0:	00 
    30d1:	0f 29 84 24 70 05 00 	movaps %xmm0,0x570(%rsp)
    30d8:	00 
    30d9:	0f 29 84 24 80 05 00 	movaps %xmm0,0x580(%rsp)
    30e0:	00 
    30e1:	0f 29 84 24 90 05 00 	movaps %xmm0,0x590(%rsp)
    30e8:	00 
    30e9:	0f 29 84 24 a0 05 00 	movaps %xmm0,0x5a0(%rsp)
    30f0:	00 
    30f1:	e8 db e1 ff ff       	call   12d1 <memcpy>
    30f6:	66 2e 0f 1f 84 00 00 	cs nopw 0x0(%rax,%rax,1)
    30fd:	00 00 00 
    3100:	48 8b 03             	mov    (%rbx),%rax
    3103:	4c 89 e7             	mov    %r12,%rdi
    3106:	ba 08 00 00 00       	mov    $0x8,%edx
    310b:	4c 89 ee             	mov    %r13,%rsi
    310e:	48 83 c3 08          	add    $0x8,%rbx
    3112:	49 83 c4 08          	add    $0x8,%r12
    3116:	48 89 44 24 28       	mov    %rax,0x28(%rsp)
    311b:	e8 b1 e1 ff ff       	call   12d1 <memcpy>
    3120:	49 39 de             	cmp    %rbx,%r14
    3123:	75 db                	jne    3100 <Hacl_HMAC_compute_sha3_256+0x500>
    3125:	48 8b 7c 24 10       	mov    0x10(%rsp),%rdi
    312a:	48 89 ee             	mov    %rbp,%rsi
    312d:	ba 20 00 00 00       	mov    $0x20,%edx
    3132:	e8 9a e1 ff ff       	call   12d1 <memcpy>
    3137:	48 81 c4 b8 06 00 00 	add    $0x6b8,%rsp
    313e:	5b                   	pop    %rbx
    313f:	5d                   	pop    %rbp
    3140:	41 5c                	pop    %r12
    3142:	41 5d                	pop    %r13
    3144:	41 5e                	pop    %r14
    3146:	41 5f                	pop    %r15
    3148:	c3                   	ret    
    3149:	44 89 e2             	mov    %r12d,%edx
    314c:	4c 89 ee             	mov    %r13,%rsi
    314f:	4c 89 f7             	mov    %r14,%rdi
    3152:	e8 79 8a 01 00       	call   1bbd0 <Hacl_Hash_SHA3_sha3_256>
    3157:	e9 f9 fa ff ff       	jmp    2c55 <Hacl_HMAC_compute_sha3_256+0x55>
    315c:	41 69 c7 88 00 00 00 	imul   $0x88,%r15d,%eax
    3163:	e9 45 fd ff ff       	jmp    2ead <Hacl_HMAC_compute_sha3_256+0x2ad>
    3168:	b9 88 00 00 00       	mov    $0x88,%ecx
    316d:	4c 89 ea             	mov    %r13,%rdx
    3170:	4c 89 e6             	mov    %r12,%rsi
    3173:	bf 08 00 00 00       	mov    $0x8,%edi
    3178:	e8 a3 3c 01 00       	call   16e20 <Hacl_Hash_SHA3_update_last_sha3>
    317d:	e9 6b fd ff ff       	jmp    2eed <Hacl_HMAC_compute_sha3_256+0x2ed>
    3182:	66 66 2e 0f 1f 84 00 	data16 cs nopw 0x0(%rax,%rax,1)
    3189:	00 00 00 00 
    318d:	0f 1f 00             	nopl   (%rax)

0000000000003190 <Hacl_HMAC_compute_sha3_384>:
    3190:	f3 0f 1e fa          	endbr64 
    3194:	41 57                	push   %r15
    3196:	41 56                	push   %r14
    3198:	41 55                	push   %r13
    319a:	49 89 f5             	mov    %rsi,%r13
    319d:	31 f6                	xor    %esi,%esi
    319f:	41 54                	push   %r12
    31a1:	41 89 d4             	mov    %edx,%r12d
    31a4:	ba 68 00 00 00       	mov    $0x68,%edx
    31a9:	55                   	push   %rbp
    31aa:	48 89 cd             	mov    %rcx,%rbp
    31ad:	53                   	push   %rbx
    31ae:	44 89 c3             	mov    %r8d,%ebx
    31b1:	48 81 ec 58 06 00 00 	sub    $0x658,%rsp
    31b8:	4c 8d 74 24 30       	lea    0x30(%rsp),%r14
    31bd:	48 89 7c 24 10       	mov    %rdi,0x10(%rsp)
    31c2:	4c 89 f7             	mov    %r14,%rdi
    31c5:	e8 41 e1 ff ff       	call   130b <memset>
    31ca:	41 83 fc 68          	cmp    $0x68,%r12d
    31ce:	0f 87 85 04 00 00    	ja     3659 <Hacl_HMAC_compute_sha3_384+0x4c9>
    31d4:	44 89 e2             	mov    %r12d,%edx
    31d7:	4c 89 ee             	mov    %r13,%rsi
    31da:	4c 89 f7             	mov    %r14,%rdi
    31dd:	e8 ef e0 ff ff       	call   12d1 <memcpy>
    31e2:	4c 8d ac 24 a0 00 00 	lea    0xa0(%rsp),%r13
    31e9:	00 
    31ea:	ba 68 00 00 00       	mov    $0x68,%edx
    31ef:	be 36 00 00 00       	mov    $0x36,%esi
    31f4:	4c 89 ef             	mov    %r13,%rdi
    31f7:	4c 8d a4 24 80 01 00 	lea    0x180(%rsp),%r12
    31fe:	00 
    31ff:	e8 07 e1 ff ff       	call   130b <memset>
    3204:	ba 68 00 00 00       	mov    $0x68,%edx
    3209:	be 5c 00 00 00       	mov    $0x5c,%esi
    320e:	66 0f 6f 84 24 a0 00 	movdqa 0xa0(%rsp),%xmm0
    3215:	00 00 
    3217:	66 0f ef 44 24 30    	pxor   0x30(%rsp),%xmm0
    321d:	48 8d 84 24 10 01 00 	lea    0x110(%rsp),%rax
    3224:	00 
    3225:	f3 0f 7e 8c 24 90 00 	movq   0x90(%rsp),%xmm1
    322c:	00 00 
    322e:	48 89 c7             	mov    %rax,%rdi
    3231:	48 89 44 24 08       	mov    %rax,0x8(%rsp)
    3236:	0f 29 84 24 a0 00 00 	movaps %xmm0,0xa0(%rsp)
    323d:	00 
    323e:	66 0f 6f 84 24 b0 00 	movdqa 0xb0(%rsp),%xmm0
    3245:	00 00 
    3247:	66 0f ef 44 24 40    	pxor   0x40(%rsp),%xmm0
    324d:	0f 29 84 24 b0 00 00 	movaps %xmm0,0xb0(%rsp)
    3254:	00 
    3255:	66 0f 6f 84 24 c0 00 	movdqa 0xc0(%rsp),%xmm0
    325c:	00 00 
    325e:	66 0f ef 44 24 50    	pxor   0x50(%rsp),%xmm0
    3264:	0f 29 84 24 c0 00 00 	movaps %xmm0,0xc0(%rsp)
    326b:	00 
    326c:	66 0f 6f 84 24 d0 00 	movdqa 0xd0(%rsp),%xmm0
    3273:	00 00 
    3275:	66 0f ef 44 24 60    	pxor   0x60(%rsp),%xmm0
    327b:	0f 29 84 24 d0 00 00 	movaps %xmm0,0xd0(%rsp)
    3282:	00 
    3283:	66 0f 6f 84 24 e0 00 	movdqa 0xe0(%rsp),%xmm0
    328a:	00 00 
    328c:	66 0f ef 44 24 70    	pxor   0x70(%rsp),%xmm0
    3292:	0f 29 84 24 e0 00 00 	movaps %xmm0,0xe0(%rsp)
    3299:	00 
    329a:	66 0f 6f 84 24 f0 00 	movdqa 0xf0(%rsp),%xmm0
    32a1:	00 00 
    32a3:	66 0f ef 84 24 80 00 	pxor   0x80(%rsp),%xmm0
    32aa:	00 00 
    32ac:	0f 29 84 24 f0 00 00 	movaps %xmm0,0xf0(%rsp)
    32b3:	00 
    32b4:	f3 0f 7e 84 24 00 01 	movq   0x100(%rsp),%xmm0
    32bb:	00 00 
    32bd:	66 0f ef c1          	pxor   %xmm1,%xmm0
    32c1:	66 0f d6 84 24 00 01 	movq   %xmm0,0x100(%rsp)
    32c8:	00 00 
    32ca:	e8 3c e0 ff ff       	call   130b <memset>
    32cf:	b9 19 00 00 00       	mov    $0x19,%ecx
    32d4:	31 c0                	xor    %eax,%eax
    32d6:	4c 89 e7             	mov    %r12,%rdi
    32d9:	66 0f 6f 84 24 10 01 	movdqa 0x110(%rsp),%xmm0
    32e0:	00 00 
    32e2:	66 0f ef 44 24 30    	pxor   0x30(%rsp),%xmm0
    32e8:	f3 0f 7e 8c 24 90 00 	movq   0x90(%rsp),%xmm1
    32ef:	00 00 
    32f1:	f3 48 ab             	rep stos %rax,%es:(%rdi)
    32f4:	0f 29 84 24 10 01 00 	movaps %xmm0,0x110(%rsp)
    32fb:	00 
    32fc:	66 0f 6f 84 24 20 01 	movdqa 0x120(%rsp),%xmm0
    3303:	00 00 
    3305:	66 0f ef 44 24 40    	pxor   0x40(%rsp),%xmm0
    330b:	0f 29 84 24 20 01 00 	movaps %xmm0,0x120(%rsp)
    3312:	00 
    3313:	66 0f 6f 84 24 30 01 	movdqa 0x130(%rsp),%xmm0
    331a:	00 00 
    331c:	66 0f ef 44 24 50    	pxor   0x50(%rsp),%xmm0
    3322:	0f 29 84 24 30 01 00 	movaps %xmm0,0x130(%rsp)
    3329:	00 
    332a:	66 0f 6f 84 24 40 01 	movdqa 0x140(%rsp),%xmm0
    3331:	00 00 
    3333:	66 0f ef 44 24 60    	pxor   0x60(%rsp),%xmm0
    3339:	0f 29 84 24 40 01 00 	movaps %xmm0,0x140(%rsp)
    3340:	00 
    3341:	66 0f 6f 84 24 50 01 	movdqa 0x150(%rsp),%xmm0
    3348:	00 00 
    334a:	66 0f ef 44 24 70    	pxor   0x70(%rsp),%xmm0
    3350:	0f 29 84 24 50 01 00 	movaps %xmm0,0x150(%rsp)
    3357:	00 
    3358:	66 0f 6f 84 24 60 01 	movdqa 0x160(%rsp),%xmm0
    335f:	00 00 
    3361:	66 0f ef 84 24 80 00 	pxor   0x80(%rsp),%xmm0
    3368:	00 00 
    336a:	0f 29 84 24 60 01 00 	movaps %xmm0,0x160(%rsp)
    3371:	00 
    3372:	f3 0f 7e 84 24 70 01 	movq   0x170(%rsp),%xmm0
    3379:	00 00 
    337b:	66 0f ef c1          	pxor   %xmm1,%xmm0
    337f:	66 0f d6 84 24 70 01 	movq   %xmm0,0x170(%rsp)
    3386:	00 00 
    3388:	85 db                	test   %ebx,%ebx
    338a:	0f 84 e5 02 00 00    	je     3675 <Hacl_HMAC_compute_sha3_384+0x4e5>
    3390:	41 89 df             	mov    %ebx,%r15d
    3393:	41 89 de             	mov    %ebx,%r14d
    3396:	4d 69 ff 4f ec c4 4e 	imul   $0x4ec4ec4f,%r15,%r15
    339d:	49 c1 ef 25          	shr    $0x25,%r15
    33a1:	41 6b c7 68          	imul   $0x68,%r15d,%eax
    33a5:	41 29 c6             	sub    %eax,%r14d
    33a8:	83 fb 67             	cmp    $0x67,%ebx
    33ab:	0f 86 bb 02 00 00    	jbe    366c <Hacl_HMAC_compute_sha3_384+0x4dc>
    33b1:	45 85 f6             	test   %r14d,%r14d
    33b4:	0f 85 b2 02 00 00    	jne    366c <Hacl_HMAC_compute_sha3_384+0x4dc>
    33ba:	41 83 ef 01          	sub    $0x1,%r15d
    33be:	41 6b c7 68          	imul   $0x68,%r15d,%eax
    33c2:	29 c3                	sub    %eax,%ebx
    33c4:	41 89 de             	mov    %ebx,%r14d
    33c7:	b9 01 00 00 00       	mov    $0x1,%ecx
    33cc:	4c 89 ea             	mov    %r13,%rdx
    33cf:	4c 89 e6             	mov    %r12,%rsi
    33d2:	bf 0a 00 00 00       	mov    $0xa,%edi
    33d7:	48 8d 5c 05 00       	lea    0x0(%rbp,%rax,1),%rbx
    33dc:	e8 1f 39 01 00       	call   16d00 <Hacl_Hash_SHA3_update_multi_sha3>
    33e1:	44 89 f9             	mov    %r15d,%ecx
    33e4:	48 89 ea             	mov    %rbp,%rdx
    33e7:	4c 89 e6             	mov    %r12,%rsi
    33ea:	bf 0a 00 00 00       	mov    $0xa,%edi
    33ef:	e8 0c 39 01 00       	call   16d00 <Hacl_Hash_SHA3_update_multi_sha3>
    33f4:	44 89 f1             	mov    %r14d,%ecx
    33f7:	48 89 da             	mov    %rbx,%rdx
    33fa:	4c 89 e6             	mov    %r12,%rsi
    33fd:	bf 0a 00 00 00       	mov    $0xa,%edi
    3402:	e8 19 3a 01 00       	call   16e20 <Hacl_Hash_SHA3_update_last_sha3>
    3407:	31 c0                	xor    %eax,%eax
    3409:	b9 20 00 00 00       	mov    $0x20,%ecx
    340e:	66 0f ef c0          	pxor   %xmm0,%xmm0
    3412:	ba c8 00 00 00       	mov    $0xc8,%edx
    3417:	48 8d bc 24 50 03 00 	lea    0x350(%rsp),%rdi
    341e:	00 
    341f:	4c 8d b4 24 50 03 00 	lea    0x350(%rsp),%r14
    3426:	00 
    3427:	4c 89 e6             	mov    %r12,%rsi
    342a:	0f 29 84 24 50 02 00 	movaps %xmm0,0x250(%rsp)
    3431:	00 
    3432:	f3 48 ab             	rep stos %rax,%es:(%rdi)
    3435:	4c 89 f7             	mov    %r14,%rdi
    3438:	0f 29 84 24 60 02 00 	movaps %xmm0,0x260(%rsp)
    343f:	00 
    3440:	48 8d ac 24 50 04 00 	lea    0x450(%rsp),%rbp
    3447:	00 
    3448:	0f 29 84 24 70 02 00 	movaps %xmm0,0x270(%rsp)
    344f:	00 
    3450:	48 8d 9c 24 50 05 00 	lea    0x550(%rsp),%rbx
    3457:	00 
    3458:	0f 29 84 24 80 02 00 	movaps %xmm0,0x280(%rsp)
    345f:	00 
    3460:	0f 29 84 24 90 02 00 	movaps %xmm0,0x290(%rsp)
    3467:	00 
    3468:	0f 29 84 24 a0 02 00 	movaps %xmm0,0x2a0(%rsp)
    346f:	00 
    3470:	0f 29 84 24 b0 02 00 	movaps %xmm0,0x2b0(%rsp)
    3477:	00 
    3478:	0f 29 84 24 c0 02 00 	movaps %xmm0,0x2c0(%rsp)
    347f:	00 
    3480:	0f 29 84 24 d0 02 00 	movaps %xmm0,0x2d0(%rsp)
    3487:	00 
    3488:	0f 29 84 24 e0 02 00 	movaps %xmm0,0x2e0(%rsp)
    348f:	00 
    3490:	0f 29 84 24 f0 02 00 	movaps %xmm0,0x2f0(%rsp)
    3497:	00 
    3498:	0f 29 84 24 00 03 00 	movaps %xmm0,0x300(%rsp)
    349f:	00 
    34a0:	0f 29 84 24 10 03 00 	movaps %xmm0,0x310(%rsp)
    34a7:	00 
    34a8:	0f 29 84 24 20 03 00 	movaps %xmm0,0x320(%rsp)
    34af:	00 
    34b0:	0f 29 84 24 30 03 00 	movaps %xmm0,0x330(%rsp)
    34b7:	00 
    34b8:	0f 29 84 24 40 03 00 	movaps %xmm0,0x340(%rsp)
    34bf:	00 
    34c0:	e8 0c de ff ff       	call   12d1 <memcpy>
    34c5:	48 8d 84 24 50 02 00 	lea    0x250(%rsp),%rax
    34cc:	00 
    34cd:	48 89 44 24 18       	mov    %rax,0x18(%rsp)
    34d2:	49 89 c7             	mov    %rax,%r15
    34d5:	0f 1f 00             	nopl   (%rax)
    34d8:	49 8b 06             	mov    (%r14),%rax
    34db:	4c 89 ff             	mov    %r15,%rdi
    34de:	ba 08 00 00 00       	mov    $0x8,%edx
    34e3:	48 89 de             	mov    %rbx,%rsi
    34e6:	49 83 c6 08          	add    $0x8,%r14
    34ea:	49 83 c7 08          	add    $0x8,%r15
    34ee:	48 89 84 24 50 05 00 	mov    %rax,0x550(%rsp)
    34f5:	00 
    34f6:	e8 d6 dd ff ff       	call   12d1 <memcpy>
    34fb:	4c 39 f5             	cmp    %r14,%rbp
    34fe:	75 d8                	jne    34d8 <Hacl_HMAC_compute_sha3_384+0x348>
    3500:	48 8b 74 24 18       	mov    0x18(%rsp),%rsi
    3505:	ba 30 00 00 00       	mov    $0x30,%edx
    350a:	4c 89 ef             	mov    %r13,%rdi
    350d:	4c 8d b4 24 50 06 00 	lea    0x650(%rsp),%r14
    3514:	00 
    3515:	e8 b7 dd ff ff       	call   12d1 <memcpy>
    351a:	4c 89 e6             	mov    %r12,%rsi
    351d:	bf 0a 00 00 00       	mov    $0xa,%edi
    3522:	e8 b9 37 01 00       	call   16ce0 <Hacl_Hash_SHA3_init_>
    3527:	48 8b 54 24 08       	mov    0x8(%rsp),%rdx
    352c:	4c 89 e6             	mov    %r12,%rsi
    352f:	b9 01 00 00 00       	mov    $0x1,%ecx
    3534:	bf 0a 00 00 00       	mov    $0xa,%edi
    3539:	e8 c2 37 01 00       	call   16d00 <Hacl_Hash_SHA3_update_multi_sha3>
    353e:	4c 89 ea             	mov    %r13,%rdx
    3541:	4c 89 e6             	mov    %r12,%rsi
    3544:	31 c9                	xor    %ecx,%ecx
    3546:	bf 0a 00 00 00       	mov    $0xa,%edi
    354b:	e8 b0 37 01 00       	call   16d00 <Hacl_Hash_SHA3_update_multi_sha3>
    3550:	4c 89 ea             	mov    %r13,%rdx
    3553:	4c 89 e6             	mov    %r12,%rsi
    3556:	b9 30 00 00 00       	mov    $0x30,%ecx
    355b:	bf 0a 00 00 00       	mov    $0xa,%edi
    3560:	4c 8d 6c 24 28       	lea    0x28(%rsp),%r13
    3565:	e8 b6 38 01 00       	call   16e20 <Hacl_Hash_SHA3_update_last_sha3>
    356a:	31 c0                	xor    %eax,%eax
    356c:	b9 20 00 00 00       	mov    $0x20,%ecx
    3571:	48 89 df             	mov    %rbx,%rdi
    3574:	f3 48 ab             	rep stos %rax,%es:(%rdi)
    3577:	66 0f ef c0          	pxor   %xmm0,%xmm0
    357b:	4c 89 e6             	mov    %r12,%rsi
    357e:	ba c8 00 00 00       	mov    $0xc8,%edx
    3583:	48 89 df             	mov    %rbx,%rdi
    3586:	0f 29 84 24 50 04 00 	movaps %xmm0,0x450(%rsp)
    358d:	00 
    358e:	49 89 ec             	mov    %rbp,%r12
    3591:	0f 29 84 24 60 04 00 	movaps %xmm0,0x460(%rsp)
    3598:	00 
    3599:	0f 29 84 24 70 04 00 	movaps %xmm0,0x470(%rsp)
    35a0:	00 
    35a1:	0f 29 84 24 80 04 00 	movaps %xmm0,0x480(%rsp)
    35a8:	00 
    35a9:	0f 29 84 24 90 04 00 	movaps %xmm0,0x490(%rsp)
    35b0:	00 
    35b1:	0f 29 84 24 a0 04 00 	movaps %xmm0,0x4a0(%rsp)
    35b8:	00 
    35b9:	0f 29 84 24 b0 04 00 	movaps %xmm0,0x4b0(%rsp)
    35c0:	00 
    35c1:	0f 29 84 24 c0 04 00 	movaps %xmm0,0x4c0(%rsp)
    35c8:	00 
    35c9:	0f 29 84 24 d0 04 00 	movaps %xmm0,0x4d0(%rsp)
    35d0:	00 
    35d1:	0f 29 84 24 e0 04 00 	movaps %xmm0,0x4e0(%rsp)
    35d8:	00 
    35d9:	0f 29 84 24 f0 04 00 	movaps %xmm0,0x4f0(%rsp)
    35e0:	00 
    35e1:	0f 29 84 24 00 05 00 	movaps %xmm0,0x500(%rsp)
    35e8:	00 
    35e9:	0f 29 84 24 10 05 00 	movaps %xmm0,0x510(%rsp)
    35f0:	00 
    35f1:	0f 29 84 24 20 05 00 	movaps %xmm0,0x520(%rsp)
    35f8:	00 
    35f9:	0f 29 84 24 30 05 00 	movaps %xmm0,0x530(%rsp)
    3600:	00 
    3601:	0f 29 84 24 40 05 00 	movaps %xmm0,0x540(%rsp)
    3608:	00 
    3609:	e8 c3 dc ff ff       	call   12d1 <memcpy>
    360e:	66 90                	xchg   %ax,%ax
    3610:	48 8b 03             	mov    (%rbx),%rax
    3613:	4c 89 e7             	mov    %r12,%rdi
    3616:	ba 08 00 00 00       	mov    $0x8,%edx
    361b:	4c 89 ee             	mov    %r13,%rsi
    361e:	48 83 c3 08          	add    $0x8,%rbx
    3622:	49 83 c4 08          	add    $0x8,%r12
    3626:	48 89 44 24 28       	mov    %rax,0x28(%rsp)
    362b:	e8 a1 dc ff ff       	call   12d1 <memcpy>
    3630:	49 39 de             	cmp    %rbx,%r14
    3633:	75 db                	jne    3610 <Hacl_HMAC_compute_sha3_384+0x480>
    3635:	48 8b 7c 24 10       	mov    0x10(%rsp),%rdi
    363a:	48 89 ee             	mov    %rbp,%rsi
    363d:	ba 30 00 00 00       	mov    $0x30,%edx
    3642:	e8 8a dc ff ff       	call   12d1 <memcpy>
    3647:	48 81 c4 58 06 00 00 	add    $0x658,%rsp
    364e:	5b                   	pop    %rbx
    364f:	5d                   	pop    %rbp
    3650:	41 5c                	pop    %r12
    3652:	41 5d                	pop    %r13
    3654:	41 5e                	pop    %r14
    3656:	41 5f                	pop    %r15
    3658:	c3                   	ret    
    3659:	44 89 e2             	mov    %r12d,%edx
    365c:	4c 89 ee             	mov    %r13,%rsi
    365f:	4c 89 f7             	mov    %r14,%rdi
    3662:	e8 49 8e 01 00       	call   1c4b0 <Hacl_Hash_SHA3_sha3_384>
    3667:	e9 76 fb ff ff       	jmp    31e2 <Hacl_HMAC_compute_sha3_384+0x52>
    366c:	41 6b c7 68          	imul   $0x68,%r15d,%eax
    3670:	e9 52 fd ff ff       	jmp    33c7 <Hacl_HMAC_compute_sha3_384+0x237>
    3675:	b9 68 00 00 00       	mov    $0x68,%ecx
    367a:	4c 89 ea             	mov    %r13,%rdx
    367d:	4c 89 e6             	mov    %r12,%rsi
    3680:	bf 0a 00 00 00       	mov    $0xa,%edi
    3685:	e8 96 37 01 00       	call   16e20 <Hacl_Hash_SHA3_update_last_sha3>
    368a:	e9 78 fd ff ff       	jmp    3407 <Hacl_HMAC_compute_sha3_384+0x277>
    368f:	90                   	nop

0000000000003690 <Hacl_HMAC_compute_sha3_512>:
    3690:	f3 0f 1e fa          	endbr64 
    3694:	41 57                	push   %r15
    3696:	41 56                	push   %r14
    3698:	41 55                	push   %r13
    369a:	49 89 f5             	mov    %rsi,%r13
    369d:	31 f6                	xor    %esi,%esi
    369f:	41 54                	push   %r12
    36a1:	41 89 d4             	mov    %edx,%r12d
    36a4:	ba 48 00 00 00       	mov    $0x48,%edx
    36a9:	55                   	push   %rbp
    36aa:	48 89 cd             	mov    %rcx,%rbp
    36ad:	53                   	push   %rbx
    36ae:	44 89 c3             	mov    %r8d,%ebx
    36b1:	48 81 ec f8 05 00 00 	sub    $0x5f8,%rsp
    36b8:	4c 8d 74 24 30       	lea    0x30(%rsp),%r14
    36bd:	48 89 7c 24 10       	mov    %rdi,0x10(%rsp)
    36c2:	4c 89 f7             	mov    %r14,%rdi
    36c5:	e8 41 dc ff ff       	call   130b <memset>
    36ca:	41 83 fc 48          	cmp    $0x48,%r12d
    36ce:	0f 87 35 04 00 00    	ja     3b09 <Hacl_HMAC_compute_sha3_512+0x479>
    36d4:	44 89 e2             	mov    %r12d,%edx
    36d7:	4c 89 ee             	mov    %r13,%rsi
    36da:	4c 89 f7             	mov    %r14,%rdi
    36dd:	e8 ef db ff ff       	call   12d1 <memcpy>
    36e2:	4c 8d ac 24 80 00 00 	lea    0x80(%rsp),%r13
    36e9:	00 
    36ea:	ba 48 00 00 00       	mov    $0x48,%edx
    36ef:	be 36 00 00 00       	mov    $0x36,%esi
    36f4:	4c 89 ef             	mov    %r13,%rdi
    36f7:	4c 8d a4 24 20 01 00 	lea    0x120(%rsp),%r12
    36fe:	00 
    36ff:	e8 07 dc ff ff       	call   130b <memset>
    3704:	ba 48 00 00 00       	mov    $0x48,%edx
    3709:	be 5c 00 00 00       	mov    $0x5c,%esi
    370e:	66 0f 6f 84 24 80 00 	movdqa 0x80(%rsp),%xmm0
    3715:	00 00 
    3717:	66 0f ef 44 24 30    	pxor   0x30(%rsp),%xmm0
    371d:	f3 0f 7e 4c 24 70    	movq   0x70(%rsp),%xmm1
    3723:	48 8d 84 24 d0 00 00 	lea    0xd0(%rsp),%rax
    372a:	00 
    372b:	48 89 c7             	mov    %rax,%rdi
    372e:	48 89 44 24 08       	mov    %rax,0x8(%rsp)
    3733:	0f 29 84 24 80 00 00 	movaps %xmm0,0x80(%rsp)
    373a:	00 
    373b:	66 0f 6f 84 24 90 00 	movdqa 0x90(%rsp),%xmm0
    3742:	00 00 
    3744:	66 0f ef 44 24 40    	pxor   0x40(%rsp),%xmm0
    374a:	0f 29 84 24 90 00 00 	movaps %xmm0,0x90(%rsp)
    3751:	00 
    3752:	66 0f 6f 84 24 a0 00 	movdqa 0xa0(%rsp),%xmm0
    3759:	00 00 
    375b:	66 0f ef 44 24 50    	pxor   0x50(%rsp),%xmm0
    3761:	0f 29 84 24 a0 00 00 	movaps %xmm0,0xa0(%rsp)
    3768:	00 
    3769:	66 0f 6f 84 24 b0 00 	movdqa 0xb0(%rsp),%xmm0
    3770:	00 00 
    3772:	66 0f ef 44 24 60    	pxor   0x60(%rsp),%xmm0
    3778:	0f 29 84 24 b0 00 00 	movaps %xmm0,0xb0(%rsp)
    377f:	00 
    3780:	f3 0f 7e 84 24 c0 00 	movq   0xc0(%rsp),%xmm0
    3787:	00 00 
    3789:	66 0f ef c1          	pxor   %xmm1,%xmm0
    378d:	66 0f d6 84 24 c0 00 	movq   %xmm0,0xc0(%rsp)
    3794:	00 00 
    3796:	e8 70 db ff ff       	call   130b <memset>
    379b:	b9 19 00 00 00       	mov    $0x19,%ecx
    37a0:	31 c0                	xor    %eax,%eax
    37a2:	4c 89 e7             	mov    %r12,%rdi
    37a5:	66 0f 6f 84 24 d0 00 	movdqa 0xd0(%rsp),%xmm0
    37ac:	00 00 
    37ae:	66 0f ef 44 24 30    	pxor   0x30(%rsp),%xmm0
    37b4:	f3 48 ab             	rep stos %rax,%es:(%rdi)
    37b7:	f3 0f 7e 4c 24 70    	movq   0x70(%rsp),%xmm1
    37bd:	0f 29 84 24 d0 00 00 	movaps %xmm0,0xd0(%rsp)
    37c4:	00 
    37c5:	66 0f 6f 84 24 e0 00 	movdqa 0xe0(%rsp),%xmm0
    37cc:	00 00 
    37ce:	66 0f ef 44 24 40    	pxor   0x40(%rsp),%xmm0
    37d4:	0f 29 84 24 e0 00 00 	movaps %xmm0,0xe0(%rsp)
    37db:	00 
    37dc:	66 0f 6f 84 24 f0 00 	movdqa 0xf0(%rsp),%xmm0
    37e3:	00 00 
    37e5:	66 0f ef 44 24 50    	pxor   0x50(%rsp),%xmm0
    37eb:	0f 29 84 24 f0 00 00 	movaps %xmm0,0xf0(%rsp)
    37f2:	00 
    37f3:	66 0f 6f 84 24 00 01 	movdqa 0x100(%rsp),%xmm0
    37fa:	00 00 
    37fc:	66 0f ef 44 24 60    	pxor   0x60(%rsp),%xmm0
    3802:	0f 29 84 24 00 01 00 	movaps %xmm0,0x100(%rsp)
    3809:	00 
    380a:	f3 0f 7e 84 24 10 01 	movq   0x110(%rsp),%xmm0
    3811:	00 00 
    3813:	66 0f ef c1          	pxor   %xmm1,%xmm0
    3817:	66 0f d6 84 24 10 01 	movq   %xmm0,0x110(%rsp)
    381e:	00 00 
    3820:	85 db                	test   %ebx,%ebx
    3822:	0f 84 ff 02 00 00    	je     3b27 <Hacl_HMAC_compute_sha3_512+0x497>
    3828:	41 89 df             	mov    %ebx,%r15d
    382b:	41 89 de             	mov    %ebx,%r14d
    382e:	4d 69 ff 39 8e e3 38 	imul   $0x38e38e39,%r15,%r15
    3835:	49 c1 ef 24          	shr    $0x24,%r15
    3839:	42 8d 04 fd 00 00 00 	lea    0x0(,%r15,8),%eax
    3840:	00 
    3841:	42 8d 14 38          	lea    (%rax,%r15,1),%edx
    3845:	c1 e2 03             	shl    $0x3,%edx
    3848:	41 29 d6             	sub    %edx,%r14d
    384b:	83 fb 47             	cmp    $0x47,%ebx
    384e:	0f 86 c8 02 00 00    	jbe    3b1c <Hacl_HMAC_compute_sha3_512+0x48c>
    3854:	45 85 f6             	test   %r14d,%r14d
    3857:	0f 85 bf 02 00 00    	jne    3b1c <Hacl_HMAC_compute_sha3_512+0x48c>
    385d:	41 83 ef 01          	sub    $0x1,%r15d
    3861:	43 8d 04 ff          	lea    (%r15,%r15,8),%eax
    3865:	c1 e0 03             	shl    $0x3,%eax
    3868:	29 c3                	sub    %eax,%ebx
    386a:	41 89 de             	mov    %ebx,%r14d
    386d:	b9 01 00 00 00       	mov    $0x1,%ecx
    3872:	4c 89 ea             	mov    %r13,%rdx
    3875:	4c 89 e6             	mov    %r12,%rsi
    3878:	bf 0b 00 00 00       	mov    $0xb,%edi
    387d:	48 8d 5c 05 00       	lea    0x0(%rbp,%rax,1),%rbx
    3882:	e8 79 34 01 00       	call   16d00 <Hacl_Hash_SHA3_update_multi_sha3>
    3887:	44 89 f9             	mov    %r15d,%ecx
    388a:	48 89 ea             	mov    %rbp,%rdx
    388d:	4c 89 e6             	mov    %r12,%rsi
    3890:	bf 0b 00 00 00       	mov    $0xb,%edi
    3895:	e8 66 34 01 00       	call   16d00 <Hacl_Hash_SHA3_update_multi_sha3>
    389a:	44 89 f1             	mov    %r14d,%ecx
    389d:	48 89 da             	mov    %rbx,%rdx
    38a0:	4c 89 e6             	mov    %r12,%rsi
    38a3:	bf 0b 00 00 00       	mov    $0xb,%edi
    38a8:	e8 73 35 01 00       	call   16e20 <Hacl_Hash_SHA3_update_last_sha3>
    38ad:	31 c0                	xor    %eax,%eax
    38af:	b9 20 00 00 00       	mov    $0x20,%ecx
    38b4:	66 0f ef c0          	pxor   %xmm0,%xmm0
    38b8:	ba c8 00 00 00       	mov    $0xc8,%edx
    38bd:	48 8d bc 24 f0 02 00 	lea    0x2f0(%rsp),%rdi
    38c4:	00 
    38c5:	4c 8d b4 24 f0 02 00 	lea    0x2f0(%rsp),%r14
    38cc:	00 
    38cd:	4c 89 e6             	mov    %r12,%rsi
    38d0:	0f 29 84 24 f0 01 00 	movaps %xmm0,0x1f0(%rsp)
    38d7:	00 
    38d8:	f3 48 ab             	rep stos %rax,%es:(%rdi)
    38db:	4c 89 f7             	mov    %r14,%rdi
    38de:	0f 29 84 24 00 02 00 	movaps %xmm0,0x200(%rsp)
    38e5:	00 
    38e6:	48 8d ac 24 f0 03 00 	lea    0x3f0(%rsp),%rbp
    38ed:	00 
    38ee:	0f 29 84 24 10 02 00 	movaps %xmm0,0x210(%rsp)
    38f5:	00 
    38f6:	48 8d 9c 24 f0 04 00 	lea    0x4f0(%rsp),%rbx
    38fd:	00 
    38fe:	0f 29 84 24 20 02 00 	movaps %xmm0,0x220(%rsp)
    3905:	00 
    3906:	0f 29 84 24 30 02 00 	movaps %xmm0,0x230(%rsp)
    390d:	00 
    390e:	0f 29 84 24 40 02 00 	movaps %xmm0,0x240(%rsp)
    3915:	00 
    3916:	0f 29 84 24 50 02 00 	movaps %xmm0,0x250(%rsp)
    391d:	00 
    391e:	0f 29 84 24 60 02 00 	movaps %xmm0,0x260(%rsp)
    3925:	00 
    3926:	0f 29 84 24 70 02 00 	movaps %xmm0,0x270(%rsp)
    392d:	00 
    392e:	0f 29 84 24 80 02 00 	movaps %xmm0,0x280(%rsp)
    3935:	00 
    3936:	0f 29 84 24 90 02 00 	movaps %xmm0,0x290(%rsp)
    393d:	00 
    393e:	0f 29 84 24 a0 02 00 	movaps %xmm0,0x2a0(%rsp)
    3945:	00 
    3946:	0f 29 84 24 b0 02 00 	movaps %xmm0,0x2b0(%rsp)
    394d:	00 
    394e:	0f 29 84 24 c0 02 00 	movaps %xmm0,0x2c0(%rsp)
    3955:	00 
    3956:	0f 29 84 24 d0 02 00 	movaps %xmm0,0x2d0(%rsp)
    395d:	00 
    395e:	0f 29 84 24 e0 02 00 	movaps %xmm0,0x2e0(%rsp)
    3965:	00 
    3966:	e8 66 d9 ff ff       	call   12d1 <memcpy>
    396b:	48 8d 84 24 f0 01 00 	lea    0x1f0(%rsp),%rax
    3972:	00 
    3973:	48 89 44 24 18       	mov    %rax,0x18(%rsp)
    3978:	49 89 c7             	mov    %rax,%r15
    397b:	0f 1f 44 00 00       	nopl   0x0(%rax,%rax,1)
    3980:	49 8b 06             	mov    (%r14),%rax
    3983:	4c 89 ff             	mov    %r15,%rdi
    3986:	ba 08 00 00 00       	mov    $0x8,%edx
    398b:	48 89 de             	mov    %rbx,%rsi
    398e:	49 83 c6 08          	add    $0x8,%r14
    3992:	49 83 c7 08          	add    $0x8,%r15
    3996:	48 89 84 24 f0 04 00 	mov    %rax,0x4f0(%rsp)
    399d:	00 
    399e:	e8 2e d9 ff ff       	call   12d1 <memcpy>
    39a3:	4c 39 f5             	cmp    %r14,%rbp
    39a6:	75 d8                	jne    3980 <Hacl_HMAC_compute_sha3_512+0x2f0>
    39a8:	48 8b 74 24 18       	mov    0x18(%rsp),%rsi
    39ad:	ba 40 00 00 00       	mov    $0x40,%edx
    39b2:	4c 89 ef             	mov    %r13,%rdi
    39b5:	4c 8d b4 24 f0 05 00 	lea    0x5f0(%rsp),%r14
    39bc:	00 
    39bd:	e8 0f d9 ff ff       	call   12d1 <memcpy>
    39c2:	4c 89 e6             	mov    %r12,%rsi
    39c5:	bf 0b 00 00 00       	mov    $0xb,%edi
    39ca:	e8 11 33 01 00       	call   16ce0 <Hacl_Hash_SHA3_init_>
    39cf:	48 8b 54 24 08       	mov    0x8(%rsp),%rdx
    39d4:	4c 89 e6             	mov    %r12,%rsi
    39d7:	b9 01 00 00 00       	mov    $0x1,%ecx
    39dc:	bf 0b 00 00 00       	mov    $0xb,%edi
    39e1:	e8 1a 33 01 00       	call   16d00 <Hacl_Hash_SHA3_update_multi_sha3>
    39e6:	4c 89 ea             	mov    %r13,%rdx
    39e9:	4c 89 e6             	mov    %r12,%rsi
    39ec:	31 c9                	xor    %ecx,%ecx
    39ee:	bf 0b 00 00 00       	mov    $0xb,%edi
    39f3:	e8 08 33 01 00       	call   16d00 <Hacl_Hash_SHA3_update_multi_sha3>
    39f8:	4c 89 ea             	mov    %r13,%rdx
    39fb:	4c 89 e6             	mov    %r12,%rsi
    39fe:	b9 40 00 00 00       	mov    $0x40,%ecx
    3a03:	bf 0b 00 00 00       	mov    $0xb,%edi
    3a08:	4c 8d 6c 24 28       	lea    0x28(%rsp),%r13
    3a0d:	e8 0e 34 01 00       	call   16e20 <Hacl_Hash_SHA3_update_last_sha3>
    3a12:	31 c0                	xor    %eax,%eax
    3a14:	b9 20 00 00 00       	mov    $0x20,%ecx
    3a19:	48 89 df             	mov    %rbx,%rdi
    3a1c:	f3 48 ab             	rep stos %rax,%es:(%rdi)
    3a1f:	66 0f ef c0          	pxor   %xmm0,%xmm0
    3a23:	4c 89 e6             	mov    %r12,%rsi
    3a26:	ba c8 00 00 00       	mov    $0xc8,%edx
    3a2b:	48 89 df             	mov    %rbx,%rdi
    3a2e:	0f 29 84 24 f0 03 00 	movaps %xmm0,0x3f0(%rsp)
    3a35:	00 
    3a36:	49 89 ec             	mov    %rbp,%r12
    3a39:	0f 29 84 24 00 04 00 	movaps %xmm0,0x400(%rsp)
    3a40:	00 
    3a41:	0f 29 84 24 10 04 00 	movaps %xmm0,0x410(%rsp)
    3a48:	00 
    3a49:	0f 29 84 24 20 04 00 	movaps %xmm0,0x420(%rsp)
    3a50:	00 
    3a51:	0f 29 84 24 30 04 00 	movaps %xmm0,0x430(%rsp)
    3a58:	00 
    3a59:	0f 29 84 24 40 04 00 	movaps %xmm0,0x440(%rsp)
    3a60:	00 
    3a61:	0f 29 84 24 50 04 00 	movaps %xmm0,0x450(%rsp)
    3a68:	00 
    3a69:	0f 29 84 24 60 04 00 	movaps %xmm0,0x460(%rsp)
    3a70:	00 
    3a71:	0f 29 84 24 70 04 00 	movaps %xmm0,0x470(%rsp)
    3a78:	00 
    3a79:	0f 29 84 24 80 04 00 	movaps %xmm0,0x480(%rsp)
    3a80:	00 
    3a81:	0f 29 84 24 90 04 00 	movaps %xmm0,0x490(%rsp)
    3a88:	00 
    3a89:	0f 29 84 24 a0 04 00 	movaps %xmm0,0x4a0(%rsp)
    3a90:	00 
    3a91:	0f 29 84 24 b0 04 00 	movaps %xmm0,0x4b0(%rsp)
    3a98:	00 
    3a99:	0f 29 84 24 c0 04 00 	movaps %xmm0,0x4c0(%rsp)
    3aa0:	00 
    3aa1:	0f 29 84 24 d0 04 00 	movaps %xmm0,0x4d0(%rsp)
    3aa8:	00 
    3aa9:	0f 29 84 24 e0 04 00 	movaps %xmm0,0x4e0(%rsp)
    3ab0:	00 
    3ab1:	e8 1b d8 ff ff       	call   12d1 <memcpy>
    3ab6:	66 2e 0f 1f 84 00 00 	cs nopw 0x0(%rax,%rax,1)
    3abd:	00 00 00 
    3ac0:	48 8b 03             	mov    (%rbx),%rax
    3ac3:	4c 89 e7             	mov    %r12,%rdi
    3ac6:	ba 08 00 00 00       	mov    $0x8,%edx
    3acb:	4c 89 ee             	mov    %r13,%rsi
    3ace:	48 83 c3 08          	add    $0x8,%rbx
    3ad2:	49 83 c4 08          	add    $0x8,%r12
    3ad6:	48 89 44 24 28       	mov    %rax,0x28(%rsp)
    3adb:	e8 f1 d7 ff ff       	call   12d1 <memcpy>
    3ae0:	4c 39 f3             	cmp    %r14,%rbx
    3ae3:	75 db                	jne    3ac0 <Hacl_HMAC_compute_sha3_512+0x430>
    3ae5:	48 8b 7c 24 10       	mov    0x10(%rsp),%rdi
    3aea:	48 89 ee             	mov    %rbp,%rsi
    3aed:	ba 40 00 00 00       	mov    $0x40,%edx
    3af2:	e8 da d7 ff ff       	call   12d1 <memcpy>
    3af7:	48 81 c4 f8 05 00 00 	add    $0x5f8,%rsp
    3afe:	5b                   	pop    %rbx
    3aff:	5d                   	pop    %rbp
    3b00:	41 5c                	pop    %r12
    3b02:	41 5d                	pop    %r13
    3b04:	41 5e                	pop    %r14
    3b06:	41 5f                	pop    %r15
    3b08:	c3                   	ret    
    3b09:	44 89 e2             	mov    %r12d,%edx
    3b0c:	4c 89 ee             	mov    %r13,%rsi
    3b0f:	4c 89 f7             	mov    %r14,%rdi
    3b12:	e8 69 92 01 00       	call   1cd80 <Hacl_Hash_SHA3_sha3_512>
    3b17:	e9 c6 fb ff ff       	jmp    36e2 <Hacl_HMAC_compute_sha3_512+0x52>
    3b1c:	44 01 f8             	add    %r15d,%eax
    3b1f:	c1 e0 03             	shl    $0x3,%eax
    3b22:	e9 46 fd ff ff       	jmp    386d <Hacl_HMAC_compute_sha3_512+0x1dd>
    3b27:	b9 48 00 00 00       	mov    $0x48,%ecx
    3b2c:	4c 89 ea             	mov    %r13,%rdx
    3b2f:	4c 89 e6             	mov    %r12,%rsi
    3b32:	bf 0b 00 00 00       	mov    $0xb,%edi
    3b37:	e8 e4 32 01 00       	call   16e20 <Hacl_Hash_SHA3_update_last_sha3>
    3b3c:	e9 6c fd ff ff       	jmp    38ad <Hacl_HMAC_compute_sha3_512+0x21d>
    3b41:	66 66 2e 0f 1f 84 00 	data16 cs nopw 0x0(%rax,%rax,1)
    3b48:	00 00 00 00 
    3b4c:	0f 1f 40 00          	nopl   0x0(%rax)

0000000000003b50 <Hacl_HMAC_compute_blake2s_32>:
    3b50:	f3 0f 1e fa          	endbr64 
    3b54:	41 57                	push   %r15
    3b56:	41 56                	push   %r14
    3b58:	41 55                	push   %r13
    3b5a:	49 89 cd             	mov    %rcx,%r13
    3b5d:	41 54                	push   %r12
    3b5f:	49 89 f4             	mov    %rsi,%r12
    3b62:	31 f6                	xor    %esi,%esi
    3b64:	55                   	push   %rbp
    3b65:	44 89 c5             	mov    %r8d,%ebp
    3b68:	53                   	push   %rbx
    3b69:	89 d3                	mov    %edx,%ebx
    3b6b:	ba 40 00 00 00       	mov    $0x40,%edx
    3b70:	48 81 ec f8 01 00 00 	sub    $0x1f8,%rsp
    3b77:	4c 8d 74 24 30       	lea    0x30(%rsp),%r14
    3b7c:	48 89 7c 24 10       	mov    %rdi,0x10(%rsp)
    3b81:	4c 89 f7             	mov    %r14,%rdi
    3b84:	e8 82 d7 ff ff       	call   130b <memset>
    3b89:	83 fb 40             	cmp    $0x40,%ebx
    3b8c:	0f 87 6d 03 00 00    	ja     3eff <Hacl_HMAC_compute_blake2s_32+0x3af>
    3b92:	89 da                	mov    %ebx,%edx
    3b94:	4c 89 e6             	mov    %r12,%rsi
    3b97:	4c 89 f7             	mov    %r14,%rdi
    3b9a:	e8 32 d7 ff ff       	call   12d1 <memcpy>
    3b9f:	4c 8d 64 24 70       	lea    0x70(%rsp),%r12
    3ba4:	ba 40 00 00 00       	mov    $0x40,%edx
    3ba9:	be 36 00 00 00       	mov    $0x36,%esi
    3bae:	4c 89 e7             	mov    %r12,%rdi
    3bb1:	4c 8d b4 24 b0 00 00 	lea    0xb0(%rsp),%r14
    3bb8:	00 
    3bb9:	48 8d 9c 24 f0 00 00 	lea    0xf0(%rsp),%rbx
    3bc0:	00 
    3bc1:	e8 45 d7 ff ff       	call   130b <memset>
    3bc6:	66 0f 6f 44 24 70    	movdqa 0x70(%rsp),%xmm0
    3bcc:	ba 40 00 00 00       	mov    $0x40,%edx
    3bd1:	4c 89 f7             	mov    %r14,%rdi
    3bd4:	66 0f ef 44 24 30    	pxor   0x30(%rsp),%xmm0
    3bda:	be 5c 00 00 00       	mov    $0x5c,%esi
    3bdf:	0f 29 44 24 70       	movaps %xmm0,0x70(%rsp)
    3be4:	66 0f 6f 84 24 80 00 	movdqa 0x80(%rsp),%xmm0
    3beb:	00 00 
    3bed:	66 0f ef 44 24 40    	pxor   0x40(%rsp),%xmm0
    3bf3:	0f 29 84 24 80 00 00 	movaps %xmm0,0x80(%rsp)
    3bfa:	00 
    3bfb:	66 0f 6f 84 24 90 00 	movdqa 0x90(%rsp),%xmm0
    3c02:	00 00 
    3c04:	66 0f ef 44 24 50    	pxor   0x50(%rsp),%xmm0
    3c0a:	0f 29 84 24 90 00 00 	movaps %xmm0,0x90(%rsp)
    3c11:	00 
    3c12:	66 0f 6f 84 24 a0 00 	movdqa 0xa0(%rsp),%xmm0
    3c19:	00 00 
    3c1b:	66 0f ef 44 24 60    	pxor   0x60(%rsp),%xmm0
    3c21:	0f 29 84 24 a0 00 00 	movaps %xmm0,0xa0(%rsp)
    3c28:	00 
    3c29:	e8 dd d6 ff ff       	call   130b <memset>
    3c2e:	31 f6                	xor    %esi,%esi
    3c30:	ba 20 00 00 00       	mov    $0x20,%edx
    3c35:	48 89 df             	mov    %rbx,%rdi
    3c38:	66 0f 6f 84 24 b0 00 	movdqa 0xb0(%rsp),%xmm0
    3c3f:	00 00 
    3c41:	66 0f ef 44 24 30    	pxor   0x30(%rsp),%xmm0
    3c47:	0f 29 84 24 b0 00 00 	movaps %xmm0,0xb0(%rsp)
    3c4e:	00 
    3c4f:	66 0f 6f 84 24 c0 00 	movdqa 0xc0(%rsp),%xmm0
    3c56:	00 00 
    3c58:	66 0f ef 44 24 40    	pxor   0x40(%rsp),%xmm0
    3c5e:	0f 29 84 24 c0 00 00 	movaps %xmm0,0xc0(%rsp)
    3c65:	00 
    3c66:	66 0f 6f 84 24 d0 00 	movdqa 0xd0(%rsp),%xmm0
    3c6d:	00 00 
    3c6f:	66 0f ef 44 24 50    	pxor   0x50(%rsp),%xmm0
    3c75:	0f 29 84 24 d0 00 00 	movaps %xmm0,0xd0(%rsp)
    3c7c:	00 
    3c7d:	66 0f 6f 84 24 e0 00 	movdqa 0xe0(%rsp),%xmm0
    3c84:	00 00 
    3c86:	66 0f ef 44 24 60    	pxor   0x60(%rsp),%xmm0
    3c8c:	0f 29 84 24 e0 00 00 	movaps %xmm0,0xe0(%rsp)
    3c93:	00 
    3c94:	66 0f ef c0          	pxor   %xmm0,%xmm0
    3c98:	0f 29 84 24 f0 00 00 	movaps %xmm0,0xf0(%rsp)
    3c9f:	00 
    3ca0:	0f 29 84 24 00 01 00 	movaps %xmm0,0x100(%rsp)
    3ca7:	00 
    3ca8:	0f 29 84 24 10 01 00 	movaps %xmm0,0x110(%rsp)
    3caf:	00 
    3cb0:	0f 29 84 24 20 01 00 	movaps %xmm0,0x120(%rsp)
    3cb7:	00 
    3cb8:	e8 93 5a 00 00       	call   9750 <Hacl_Hash_Blake2s_init>
    3cbd:	85 ed                	test   %ebp,%ebp
    3cbf:	66 0f ef c0          	pxor   %xmm0,%xmm0
    3cc3:	0f 84 62 02 00 00    	je     3f2b <Hacl_HMAC_compute_blake2s_32+0x3db>
    3cc9:	41 89 ea             	mov    %ebp,%r10d
    3ccc:	89 e8                	mov    %ebp,%eax
    3cce:	41 c1 ea 06          	shr    $0x6,%r10d
    3cd2:	83 e0 3f             	and    $0x3f,%eax
    3cd5:	83 fd 3f             	cmp    $0x3f,%ebp
    3cd8:	0f 86 3e 02 00 00    	jbe    3f1c <Hacl_HMAC_compute_blake2s_32+0x3cc>
    3cde:	85 c0                	test   %eax,%eax
    3ce0:	0f 85 36 02 00 00    	jne    3f1c <Hacl_HMAC_compute_blake2s_32+0x3cc>
    3ce6:	41 83 ea 01          	sub    $0x1,%r10d
    3cea:	89 e8                	mov    %ebp,%eax
    3cec:	44 89 d1             	mov    %r10d,%ecx
    3cef:	c1 e1 06             	shl    $0x6,%ecx
    3cf2:	89 4c 24 0c          	mov    %ecx,0xc(%rsp)
    3cf6:	29 c8                	sub    %ecx,%eax
    3cf8:	44 8b 5c 24 0c       	mov    0xc(%rsp),%r11d
    3cfd:	66 0f ef c0          	pxor   %xmm0,%xmm0
    3d01:	4d 89 e0             	mov    %r12,%r8
    3d04:	48 89 da             	mov    %rbx,%rdx
    3d07:	41 b9 01 00 00 00    	mov    $0x1,%r9d
    3d0d:	bf 40 00 00 00       	mov    $0x40,%edi
    3d12:	44 89 54 24 2c       	mov    %r10d,0x2c(%rsp)
    3d17:	4c 8d bc 24 30 01 00 	lea    0x130(%rsp),%r15
    3d1e:	00 
    3d1f:	4b 8d 4c 1d 00       	lea    0x0(%r13,%r11,1),%rcx
    3d24:	4c 89 fe             	mov    %r15,%rsi
    3d27:	89 44 24 28          	mov    %eax,0x28(%rsp)
    3d2b:	48 8d ac 24 70 01 00 	lea    0x170(%rsp),%rbp
    3d32:	00 
    3d33:	48 89 4c 24 18       	mov    %rcx,0x18(%rsp)
    3d38:	31 c9                	xor    %ecx,%ecx
    3d3a:	4c 89 5c 24 20       	mov    %r11,0x20(%rsp)
    3d3f:	0f 29 84 24 30 01 00 	movaps %xmm0,0x130(%rsp)
    3d46:	00 
    3d47:	0f 29 84 24 40 01 00 	movaps %xmm0,0x140(%rsp)
    3d4e:	00 
    3d4f:	0f 29 84 24 50 01 00 	movaps %xmm0,0x150(%rsp)
    3d56:	00 
    3d57:	0f 29 84 24 60 01 00 	movaps %xmm0,0x160(%rsp)
    3d5e:	00 
    3d5f:	e8 fc 5a 00 00       	call   9860 <Hacl_Hash_Blake2s_update_multi>
    3d64:	44 8b 4c 24 2c       	mov    0x2c(%rsp),%r9d
    3d69:	4d 89 e8             	mov    %r13,%r8
    3d6c:	48 89 da             	mov    %rbx,%rdx
    3d6f:	8b 7c 24 0c          	mov    0xc(%rsp),%edi
    3d73:	66 0f ef c0          	pxor   %xmm0,%xmm0
    3d77:	b9 40 00 00 00       	mov    $0x40,%ecx
    3d7c:	48 89 ee             	mov    %rbp,%rsi
    3d7f:	0f 29 84 24 70 01 00 	movaps %xmm0,0x170(%rsp)
    3d86:	00 
    3d87:	4c 8d ac 24 b0 01 00 	lea    0x1b0(%rsp),%r13
    3d8e:	00 
    3d8f:	0f 29 84 24 80 01 00 	movaps %xmm0,0x180(%rsp)
    3d96:	00 
    3d97:	0f 29 84 24 90 01 00 	movaps %xmm0,0x190(%rsp)
    3d9e:	00 
    3d9f:	0f 29 84 24 a0 01 00 	movaps %xmm0,0x1a0(%rsp)
    3da6:	00 
    3da7:	e8 b4 5a 00 00       	call   9860 <Hacl_Hash_Blake2s_update_multi>
    3dac:	66 0f ef c0          	pxor   %xmm0,%xmm0
    3db0:	48 83 ec 08          	sub    $0x8,%rsp
    3db4:	48 89 da             	mov    %rbx,%rdx
    3db7:	0f 29 84 24 b8 01 00 	movaps %xmm0,0x1b8(%rsp)
    3dbe:	00 
    3dbf:	31 c9                	xor    %ecx,%ecx
    3dc1:	4c 89 ee             	mov    %r13,%rsi
    3dc4:	0f 29 84 24 c8 01 00 	movaps %xmm0,0x1c8(%rsp)
    3dcb:	00 
    3dcc:	0f 29 84 24 d8 01 00 	movaps %xmm0,0x1d8(%rsp)
    3dd3:	00 
    3dd4:	0f 29 84 24 e8 01 00 	movaps %xmm0,0x1e8(%rsp)
    3ddb:	00 
    3ddc:	ff 74 24 20          	push   0x20(%rsp)
    3de0:	8b 44 24 38          	mov    0x38(%rsp),%eax
    3de4:	4c 8b 5c 24 30       	mov    0x30(%rsp),%r11
    3de9:	41 89 c1             	mov    %eax,%r9d
    3dec:	89 c7                	mov    %eax,%edi
    3dee:	4d 8d 43 40          	lea    0x40(%r11),%r8
    3df2:	e8 e9 5a 00 00       	call   98e0 <Hacl_Hash_Blake2s_update_last>
    3df7:	58                   	pop    %rax
    3df8:	5a                   	pop    %rdx
    3df9:	48 89 da             	mov    %rbx,%rdx
    3dfc:	4c 89 e6             	mov    %r12,%rsi
    3dff:	bf 20 00 00 00       	mov    $0x20,%edi
    3e04:	e8 67 5b 00 00       	call   9970 <Hacl_Hash_Blake2s_finish>
    3e09:	48 89 df             	mov    %rbx,%rdi
    3e0c:	ba 20 00 00 00       	mov    $0x20,%edx
    3e11:	31 f6                	xor    %esi,%esi
    3e13:	e8 38 59 00 00       	call   9750 <Hacl_Hash_Blake2s_init>
    3e18:	66 0f ef c0          	pxor   %xmm0,%xmm0
    3e1c:	4d 89 f0             	mov    %r14,%r8
    3e1f:	48 89 da             	mov    %rbx,%rdx
    3e22:	4c 89 fe             	mov    %r15,%rsi
    3e25:	41 b9 01 00 00 00    	mov    $0x1,%r9d
    3e2b:	31 c9                	xor    %ecx,%ecx
    3e2d:	bf 40 00 00 00       	mov    $0x40,%edi
    3e32:	0f 29 84 24 30 01 00 	movaps %xmm0,0x130(%rsp)
    3e39:	00 
    3e3a:	0f 29 84 24 40 01 00 	movaps %xmm0,0x140(%rsp)
    3e41:	00 
    3e42:	0f 29 84 24 50 01 00 	movaps %xmm0,0x150(%rsp)
    3e49:	00 
    3e4a:	0f 29 84 24 60 01 00 	movaps %xmm0,0x160(%rsp)
    3e51:	00 
    3e52:	e8 09 5a 00 00       	call   9860 <Hacl_Hash_Blake2s_update_multi>
    3e57:	66 0f ef c0          	pxor   %xmm0,%xmm0
    3e5b:	4d 89 e0             	mov    %r12,%r8
    3e5e:	48 89 da             	mov    %rbx,%rdx
    3e61:	48 89 ee             	mov    %rbp,%rsi
    3e64:	45 31 c9             	xor    %r9d,%r9d
    3e67:	b9 40 00 00 00       	mov    $0x40,%ecx
    3e6c:	31 ff                	xor    %edi,%edi
    3e6e:	0f 29 84 24 70 01 00 	movaps %xmm0,0x170(%rsp)
    3e75:	00 
    3e76:	0f 29 84 24 80 01 00 	movaps %xmm0,0x180(%rsp)
    3e7d:	00 
    3e7e:	0f 29 84 24 90 01 00 	movaps %xmm0,0x190(%rsp)
    3e85:	00 
    3e86:	0f 29 84 24 a0 01 00 	movaps %xmm0,0x1a0(%rsp)
    3e8d:	00 
    3e8e:	e8 cd 59 00 00       	call   9860 <Hacl_Hash_Blake2s_update_multi>
    3e93:	66 0f ef c0          	pxor   %xmm0,%xmm0
    3e97:	48 83 ec 08          	sub    $0x8,%rsp
    3e9b:	48 89 da             	mov    %rbx,%rdx
    3e9e:	0f 29 84 24 b8 01 00 	movaps %xmm0,0x1b8(%rsp)
    3ea5:	00 
    3ea6:	4c 89 ee             	mov    %r13,%rsi
    3ea9:	41 b9 20 00 00 00    	mov    $0x20,%r9d
    3eaf:	41 b8 40 00 00 00    	mov    $0x40,%r8d
    3eb5:	0f 29 84 24 c8 01 00 	movaps %xmm0,0x1c8(%rsp)
    3ebc:	00 
    3ebd:	31 c9                	xor    %ecx,%ecx
    3ebf:	bf 20 00 00 00       	mov    $0x20,%edi
    3ec4:	0f 29 84 24 d8 01 00 	movaps %xmm0,0x1d8(%rsp)
    3ecb:	00 
    3ecc:	0f 29 84 24 e8 01 00 	movaps %xmm0,0x1e8(%rsp)
    3ed3:	00 
    3ed4:	41 54                	push   %r12
    3ed6:	e8 05 5a 00 00       	call   98e0 <Hacl_Hash_Blake2s_update_last>
    3edb:	48 8b 74 24 20       	mov    0x20(%rsp),%rsi
    3ee0:	48 89 da             	mov    %rbx,%rdx
    3ee3:	bf 20 00 00 00       	mov    $0x20,%edi
    3ee8:	e8 83 5a 00 00       	call   9970 <Hacl_Hash_Blake2s_finish>
    3eed:	48 81 c4 08 02 00 00 	add    $0x208,%rsp
    3ef4:	5b                   	pop    %rbx
    3ef5:	5d                   	pop    %rbp
    3ef6:	41 5c                	pop    %r12
    3ef8:	41 5d                	pop    %r13
    3efa:	41 5e                	pop    %r14
    3efc:	41 5f                	pop    %r15
    3efe:	c3                   	ret    
    3eff:	45 31 c9             	xor    %r9d,%r9d
    3f02:	45 31 c0             	xor    %r8d,%r8d
    3f05:	89 d9                	mov    %ebx,%ecx
    3f07:	4c 89 e2             	mov    %r12,%rdx
    3f0a:	be 20 00 00 00       	mov    $0x20,%esi
    3f0f:	4c 89 f7             	mov    %r14,%rdi
    3f12:	e8 39 65 00 00       	call   a450 <Hacl_Hash_Blake2s_hash_with_key>
    3f17:	e9 83 fc ff ff       	jmp    3b9f <Hacl_HMAC_compute_blake2s_32+0x4f>
    3f1c:	44 89 d1             	mov    %r10d,%ecx
    3f1f:	c1 e1 06             	shl    $0x6,%ecx
    3f22:	89 4c 24 0c          	mov    %ecx,0xc(%rsp)
    3f26:	e9 cd fd ff ff       	jmp    3cf8 <Hacl_HMAC_compute_blake2s_32+0x1a8>
    3f2b:	0f 29 84 24 b0 01 00 	movaps %xmm0,0x1b0(%rsp)
    3f32:	00 
    3f33:	31 c9                	xor    %ecx,%ecx
    3f35:	45 31 c0             	xor    %r8d,%r8d
    3f38:	48 89 da             	mov    %rbx,%rdx
    3f3b:	0f 29 84 24 c0 01 00 	movaps %xmm0,0x1c0(%rsp)
    3f42:	00 
    3f43:	4c 8d ac 24 b0 01 00 	lea    0x1b0(%rsp),%r13
    3f4a:	00 
    3f4b:	48 83 ec 08          	sub    $0x8,%rsp
    3f4f:	41 b9 40 00 00 00    	mov    $0x40,%r9d
    3f55:	0f 29 84 24 d8 01 00 	movaps %xmm0,0x1d8(%rsp)
    3f5c:	00 
    3f5d:	4c 89 ee             	mov    %r13,%rsi
    3f60:	bf 40 00 00 00       	mov    $0x40,%edi
    3f65:	0f 29 84 24 e8 01 00 	movaps %xmm0,0x1e8(%rsp)
    3f6c:	00 
    3f6d:	41 54                	push   %r12
    3f6f:	e8 6c 59 00 00       	call   98e0 <Hacl_Hash_Blake2s_update_last>
    3f74:	59                   	pop    %rcx
    3f75:	5e                   	pop    %rsi
    3f76:	4c 8d bc 24 30 01 00 	lea    0x130(%rsp),%r15
    3f7d:	00 
    3f7e:	48 8d ac 24 70 01 00 	lea    0x170(%rsp),%rbp
    3f85:	00 
    3f86:	e9 6e fe ff ff       	jmp    3df9 <Hacl_HMAC_compute_blake2s_32+0x2a9>
    3f8b:	0f 1f 44 00 00       	nopl   0x0(%rax,%rax,1)

0000000000003f90 <Hacl_HMAC_compute_blake2b_32>:
    3f90:	f3 0f 1e fa          	endbr64 
    3f94:	41 57                	push   %r15
    3f96:	41 56                	push   %r14
    3f98:	41 55                	push   %r13
    3f9a:	49 89 cd             	mov    %rcx,%r13
    3f9d:	41 54                	push   %r12
    3f9f:	49 89 f4             	mov    %rsi,%r12
    3fa2:	31 f6                	xor    %esi,%esi
    3fa4:	55                   	push   %rbp
    3fa5:	44 89 c5             	mov    %r8d,%ebp
    3fa8:	53                   	push   %rbx
    3fa9:	89 d3                	mov    %edx,%ebx
    3fab:	ba 80 00 00 00       	mov    $0x80,%edx
    3fb0:	48 81 ec b8 03 00 00 	sub    $0x3b8,%rsp
    3fb7:	4c 8d 74 24 30       	lea    0x30(%rsp),%r14
    3fbc:	48 89 7c 24 08       	mov    %rdi,0x8(%rsp)
    3fc1:	4c 89 f7             	mov    %r14,%rdi
    3fc4:	e8 42 d3 ff ff       	call   130b <memset>
    3fc9:	81 fb 80 00 00 00    	cmp    $0x80,%ebx
    3fcf:	0f 87 df 03 00 00    	ja     43b4 <Hacl_HMAC_compute_blake2b_32+0x424>
    3fd5:	89 da                	mov    %ebx,%edx
    3fd7:	4c 89 e6             	mov    %r12,%rsi
    3fda:	4c 89 f7             	mov    %r14,%rdi
    3fdd:	e8 ef d2 ff ff       	call   12d1 <memcpy>
    3fe2:	4c 8d a4 24 b0 00 00 	lea    0xb0(%rsp),%r12
    3fe9:	00 
    3fea:	ba 80 00 00 00       	mov    $0x80,%edx
    3fef:	be 36 00 00 00       	mov    $0x36,%esi
    3ff4:	45 31 ff             	xor    %r15d,%r15d
    3ff7:	4c 89 e7             	mov    %r12,%rdi
    3ffa:	4c 8d b4 24 30 01 00 	lea    0x130(%rsp),%r14
    4001:	00 
    4002:	48 8d 9c 24 b0 01 00 	lea    0x1b0(%rsp),%rbx
    4009:	00 
    400a:	e8 fc d2 ff ff       	call   130b <memset>
    400f:	ba 80 00 00 00       	mov    $0x80,%edx
    4014:	be 5c 00 00 00       	mov    $0x5c,%esi
    4019:	4c 89 f7             	mov    %r14,%rdi
    401c:	66 0f 6f 84 24 b0 00 	movdqa 0xb0(%rsp),%xmm0
    4023:	00 00 
    4025:	66 0f ef 44 24 30    	pxor   0x30(%rsp),%xmm0
    402b:	0f 29 84 24 b0 00 00 	movaps %xmm0,0xb0(%rsp)
    4032:	00 
    4033:	66 0f 6f 84 24 c0 00 	movdqa 0xc0(%rsp),%xmm0
    403a:	00 00 
    403c:	66 0f ef 44 24 40    	pxor   0x40(%rsp),%xmm0
    4042:	0f 29 84 24 c0 00 00 	movaps %xmm0,0xc0(%rsp)
    4049:	00 
    404a:	66 0f 6f 84 24 d0 00 	movdqa 0xd0(%rsp),%xmm0
    4051:	00 00 
    4053:	66 0f ef 44 24 50    	pxor   0x50(%rsp),%xmm0
    4059:	0f 29 84 24 d0 00 00 	movaps %xmm0,0xd0(%rsp)
    4060:	00 
    4061:	66 0f 6f 84 24 e0 00 	movdqa 0xe0(%rsp),%xmm0
    4068:	00 00 
    406a:	66 0f ef 44 24 60    	pxor   0x60(%rsp),%xmm0
    4070:	0f 29 84 24 e0 00 00 	movaps %xmm0,0xe0(%rsp)
    4077:	00 
    4078:	66 0f 6f 84 24 f0 00 	movdqa 0xf0(%rsp),%xmm0
    407f:	00 00 
    4081:	66 0f ef 44 24 70    	pxor   0x70(%rsp),%xmm0
    4087:	0f 29 84 24 f0 00 00 	movaps %xmm0,0xf0(%rsp)
    408e:	00 
    408f:	66 0f 6f 84 24 00 01 	movdqa 0x100(%rsp),%xmm0
    4096:	00 00 
    4098:	66 0f ef 84 24 80 00 	pxor   0x80(%rsp),%xmm0
    409f:	00 00 
    40a1:	0f 29 84 24 00 01 00 	movaps %xmm0,0x100(%rsp)
    40a8:	00 
    40a9:	66 0f 6f 84 24 10 01 	movdqa 0x110(%rsp),%xmm0
    40b0:	00 00 
    40b2:	66 0f ef 84 24 90 00 	pxor   0x90(%rsp),%xmm0
    40b9:	00 00 
    40bb:	0f 29 84 24 10 01 00 	movaps %xmm0,0x110(%rsp)
    40c2:	00 
    40c3:	66 0f 6f 84 24 20 01 	movdqa 0x120(%rsp),%xmm0
    40ca:	00 00 
    40cc:	66 0f ef 84 24 a0 00 	pxor   0xa0(%rsp),%xmm0
    40d3:	00 00 
    40d5:	0f 29 84 24 20 01 00 	movaps %xmm0,0x120(%rsp)
    40dc:	00 
    40dd:	e8 29 d2 ff ff       	call   130b <memset>
    40e2:	b9 10 00 00 00       	mov    $0x10,%ecx
    40e7:	4c 89 f8             	mov    %r15,%rax
    40ea:	31 f6                	xor    %esi,%esi
    40ec:	66 0f 6f 84 24 30 01 	movdqa 0x130(%rsp),%xmm0
    40f3:	00 00 
    40f5:	66 0f ef 44 24 30    	pxor   0x30(%rsp),%xmm0
    40fb:	ba 40 00 00 00       	mov    $0x40,%edx
    4100:	48 8d bc 24 b0 01 00 	lea    0x1b0(%rsp),%rdi
    4107:	00 
    4108:	f3 48 ab             	rep stos %rax,%es:(%rdi)
    410b:	48 89 df             	mov    %rbx,%rdi
    410e:	0f 29 84 24 30 01 00 	movaps %xmm0,0x130(%rsp)
    4115:	00 
    4116:	66 0f 6f 84 24 40 01 	movdqa 0x140(%rsp),%xmm0
    411d:	00 00 
    411f:	66 0f ef 44 24 40    	pxor   0x40(%rsp),%xmm0
    4125:	0f 29 84 24 40 01 00 	movaps %xmm0,0x140(%rsp)
    412c:	00 
    412d:	66 0f 6f 84 24 50 01 	movdqa 0x150(%rsp),%xmm0
    4134:	00 00 
    4136:	66 0f ef 44 24 50    	pxor   0x50(%rsp),%xmm0
    413c:	0f 29 84 24 50 01 00 	movaps %xmm0,0x150(%rsp)
    4143:	00 
    4144:	66 0f 6f 84 24 60 01 	movdqa 0x160(%rsp),%xmm0
    414b:	00 00 
    414d:	66 0f ef 44 24 60    	pxor   0x60(%rsp),%xmm0
    4153:	0f 29 84 24 60 01 00 	movaps %xmm0,0x160(%rsp)
    415a:	00 
    415b:	66 0f 6f 84 24 70 01 	movdqa 0x170(%rsp),%xmm0
    4162:	00 00 
    4164:	66 0f ef 44 24 70    	pxor   0x70(%rsp),%xmm0
    416a:	0f 29 84 24 70 01 00 	movaps %xmm0,0x170(%rsp)
    4171:	00 
    4172:	66 0f 6f 84 24 80 01 	movdqa 0x180(%rsp),%xmm0
    4179:	00 00 
    417b:	66 0f ef 84 24 80 00 	pxor   0x80(%rsp),%xmm0
    4182:	00 00 
    4184:	0f 29 84 24 80 01 00 	movaps %xmm0,0x180(%rsp)
    418b:	00 
    418c:	66 0f 6f 84 24 90 01 	movdqa 0x190(%rsp),%xmm0
    4193:	00 00 
    4195:	66 0f ef 84 24 90 00 	pxor   0x90(%rsp),%xmm0
    419c:	00 00 
    419e:	0f 29 84 24 90 01 00 	movaps %xmm0,0x190(%rsp)
    41a5:	00 
    41a6:	66 0f 6f 84 24 a0 01 	movdqa 0x1a0(%rsp),%xmm0
    41ad:	00 00 
    41af:	66 0f ef 84 24 a0 00 	pxor   0xa0(%rsp),%xmm0
    41b6:	00 00 
    41b8:	0f 29 84 24 a0 01 00 	movaps %xmm0,0x1a0(%rsp)
    41bf:	00 
    41c0:	e8 0b 24 00 00       	call   65d0 <Hacl_Hash_Blake2b_init>
    41c5:	85 ed                	test   %ebp,%ebp
    41c7:	0f 84 10 02 00 00    	je     43dd <Hacl_HMAC_compute_blake2b_32+0x44d>
    41cd:	41 89 ea             	mov    %ebp,%r10d
    41d0:	41 89 ef             	mov    %ebp,%r15d
    41d3:	41 c1 ea 07          	shr    $0x7,%r10d
    41d7:	41 83 e7 7f          	and    $0x7f,%r15d
    41db:	83 fd 7f             	cmp    $0x7f,%ebp
    41de:	0f 86 ed 01 00 00    	jbe    43d1 <Hacl_HMAC_compute_blake2b_32+0x441>
    41e4:	45 85 ff             	test   %r15d,%r15d
    41e7:	0f 85 e4 01 00 00    	jne    43d1 <Hacl_HMAC_compute_blake2b_32+0x441>
    41ed:	41 83 ea 01          	sub    $0x1,%r10d
    41f1:	41 89 ef             	mov    %ebp,%r15d
    41f4:	45 89 d3             	mov    %r10d,%r11d
    41f7:	41 c1 e3 07          	shl    $0x7,%r11d
    41fb:	45 29 df             	sub    %r11d,%r15d
    41fe:	44 89 d8             	mov    %r11d,%eax
    4201:	b9 10 00 00 00       	mov    $0x10,%ecx
    4206:	44 89 54 24 2c       	mov    %r10d,0x2c(%rsp)
    420b:	45 31 c0             	xor    %r8d,%r8d
    420e:	48 89 44 24 20       	mov    %rax,0x20(%rsp)
    4213:	49 8d 54 05 00       	lea    0x0(%r13,%rax,1),%rdx
    4218:	31 c0                	xor    %eax,%eax
    421a:	4d 89 e1             	mov    %r12,%r9
    421d:	48 8d bc 24 30 02 00 	lea    0x230(%rsp),%rdi
    4224:	00 
    4225:	48 89 54 24 18       	mov    %rdx,0x18(%rsp)
    422a:	48 8d 94 24 30 02 00 	lea    0x230(%rsp),%rdx
    4231:	00 
    4232:	48 83 ec 08          	sub    $0x8,%rsp
    4236:	f3 48 ab             	rep stos %rax,%es:(%rdi)
    4239:	48 89 54 24 18       	mov    %rdx,0x18(%rsp)
    423e:	48 89 d6             	mov    %rdx,%rsi
    4241:	bf 80 00 00 00       	mov    $0x80,%edi
    4246:	44 89 5c 24 30       	mov    %r11d,0x30(%rsp)
    424b:	48 89 da             	mov    %rbx,%rdx
    424e:	6a 01                	push   $0x1
    4250:	48 8d ac 24 c0 02 00 	lea    0x2c0(%rsp),%rbp
    4257:	00 
    4258:	e8 d3 24 00 00       	call   6730 <Hacl_Hash_Blake2b_update_multi>
    425d:	31 c0                	xor    %eax,%eax
    425f:	b9 10 00 00 00       	mov    $0x10,%ecx
    4264:	4d 89 e9             	mov    %r13,%r9
    4267:	44 8b 54 24 3c       	mov    0x3c(%rsp),%r10d
    426c:	45 31 c0             	xor    %r8d,%r8d
    426f:	48 89 da             	mov    %rbx,%rdx
    4272:	48 89 ee             	mov    %rbp,%rsi
    4275:	48 8d bc 24 c0 02 00 	lea    0x2c0(%rsp),%rdi
    427c:	00 
    427d:	4c 8d ac 24 40 03 00 	lea    0x340(%rsp),%r13
    4284:	00 
    4285:	f3 48 ab             	rep stos %rax,%es:(%rdi)
    4288:	8b 7c 24 38          	mov    0x38(%rsp),%edi
    428c:	b9 80 00 00 00       	mov    $0x80,%ecx
    4291:	44 89 14 24          	mov    %r10d,(%rsp)
    4295:	e8 96 24 00 00       	call   6730 <Hacl_Hash_Blake2b_update_multi>
    429a:	31 c0                	xor    %eax,%eax
    429c:	b9 10 00 00 00       	mov    $0x10,%ecx
    42a1:	45 31 c9             	xor    %r9d,%r9d
    42a4:	48 8d bc 24 40 03 00 	lea    0x340(%rsp),%rdi
    42ab:	00 
    42ac:	4c 8b 44 24 30       	mov    0x30(%rsp),%r8
    42b1:	48 89 da             	mov    %rbx,%rdx
    42b4:	4c 89 ee             	mov    %r13,%rsi
    42b7:	f3 48 ab             	rep stos %rax,%es:(%rdi)
    42ba:	ff 74 24 28          	push   0x28(%rsp)
    42be:	44 89 ff             	mov    %r15d,%edi
    42c1:	41 57                	push   %r15
    42c3:	49 81 c0 80 00 00 00 	add    $0x80,%r8
    42ca:	49 83 d1 00          	adc    $0x0,%r9
    42ce:	e8 dd 24 00 00       	call   67b0 <Hacl_Hash_Blake2b_update_last>
    42d3:	48 83 c4 20          	add    $0x20,%rsp
    42d7:	48 89 da             	mov    %rbx,%rdx
    42da:	4c 89 e6             	mov    %r12,%rsi
    42dd:	bf 40 00 00 00       	mov    $0x40,%edi
    42e2:	45 31 ff             	xor    %r15d,%r15d
    42e5:	e8 96 25 00 00       	call   6880 <Hacl_Hash_Blake2b_finish>
    42ea:	48 89 df             	mov    %rbx,%rdi
    42ed:	ba 40 00 00 00       	mov    $0x40,%edx
    42f2:	31 f6                	xor    %esi,%esi
    42f4:	e8 d7 22 00 00       	call   65d0 <Hacl_Hash_Blake2b_init>
    42f9:	48 8b 7c 24 10       	mov    0x10(%rsp),%rdi
    42fe:	4c 89 f8             	mov    %r15,%rax
    4301:	4d 89 f1             	mov    %r14,%r9
    4304:	b9 10 00 00 00       	mov    $0x10,%ecx
    4309:	48 8d b4 24 30 02 00 	lea    0x230(%rsp),%rsi
    4310:	00 
    4311:	48 83 ec 08          	sub    $0x8,%rsp
    4315:	48 89 da             	mov    %rbx,%rdx
    4318:	f3 48 ab             	rep stos %rax,%es:(%rdi)
    431b:	6a 01                	push   $0x1
    431d:	45 31 c0             	xor    %r8d,%r8d
    4320:	bf 80 00 00 00       	mov    $0x80,%edi
    4325:	e8 06 24 00 00       	call   6730 <Hacl_Hash_Blake2b_update_multi>
    432a:	4c 89 f8             	mov    %r15,%rax
    432d:	48 89 ef             	mov    %rbp,%rdi
    4330:	b9 10 00 00 00       	mov    $0x10,%ecx
    4335:	f3 48 ab             	rep stos %rax,%es:(%rdi)
    4338:	48 8d b4 24 c0 02 00 	lea    0x2c0(%rsp),%rsi
    433f:	00 
    4340:	4d 89 e1             	mov    %r12,%r9
    4343:	31 ff                	xor    %edi,%edi
    4345:	48 89 da             	mov    %rbx,%rdx
    4348:	b9 80 00 00 00       	mov    $0x80,%ecx
    434d:	45 31 c0             	xor    %r8d,%r8d
    4350:	c7 04 24 00 00 00 00 	movl   $0x0,(%rsp)
    4357:	e8 d4 23 00 00       	call   6730 <Hacl_Hash_Blake2b_update_multi>
    435c:	4c 89 f8             	mov    %r15,%rax
    435f:	4c 89 ef             	mov    %r13,%rdi
    4362:	b9 10 00 00 00       	mov    $0x10,%ecx
    4367:	f3 48 ab             	rep stos %rax,%es:(%rdi)
    436a:	48 89 da             	mov    %rbx,%rdx
    436d:	41 b8 80 00 00 00    	mov    $0x80,%r8d
    4373:	45 31 c9             	xor    %r9d,%r9d
    4376:	48 8d b4 24 40 03 00 	lea    0x340(%rsp),%rsi
    437d:	00 
    437e:	41 54                	push   %r12
    4380:	bf 40 00 00 00       	mov    $0x40,%edi
    4385:	6a 40                	push   $0x40
    4387:	e8 24 24 00 00       	call   67b0 <Hacl_Hash_Blake2b_update_last>
    438c:	48 8b 74 24 28       	mov    0x28(%rsp),%rsi
    4391:	48 83 c4 20          	add    $0x20,%rsp
    4395:	48 89 da             	mov    %rbx,%rdx
    4398:	bf 40 00 00 00       	mov    $0x40,%edi
    439d:	e8 de 24 00 00       	call   6880 <Hacl_Hash_Blake2b_finish>
    43a2:	48 81 c4 b8 03 00 00 	add    $0x3b8,%rsp
    43a9:	5b                   	pop    %rbx
    43aa:	5d                   	pop    %rbp
    43ab:	41 5c                	pop    %r12
    43ad:	41 5d                	pop    %r13
    43af:	41 5e                	pop    %r14
    43b1:	41 5f                	pop    %r15
    43b3:	c3                   	ret    
    43b4:	45 31 c9             	xor    %r9d,%r9d
    43b7:	45 31 c0             	xor    %r8d,%r8d
    43ba:	89 d9                	mov    %ebx,%ecx
    43bc:	4c 89 e2             	mov    %r12,%rdx
    43bf:	be 40 00 00 00       	mov    $0x40,%esi
    43c4:	4c 89 f7             	mov    %r14,%rdi
    43c7:	e8 74 33 00 00       	call   7740 <Hacl_Hash_Blake2b_hash_with_key>
    43cc:	e9 11 fc ff ff       	jmp    3fe2 <Hacl_HMAC_compute_blake2b_32+0x52>
    43d1:	45 89 d3             	mov    %r10d,%r11d
    43d4:	41 c1 e3 07          	shl    $0x7,%r11d
    43d8:	e9 21 fe ff ff       	jmp    41fe <Hacl_HMAC_compute_blake2b_32+0x26e>
    43dd:	4c 89 f8             	mov    %r15,%rax
    43e0:	b9 10 00 00 00       	mov    $0x10,%ecx
    43e5:	48 89 da             	mov    %rbx,%rdx
    43e8:	45 31 c0             	xor    %r8d,%r8d
    43eb:	48 8d bc 24 30 03 00 	lea    0x330(%rsp),%rdi
    43f2:	00 
    43f3:	4c 8d ac 24 30 03 00 	lea    0x330(%rsp),%r13
    43fa:	00 
    43fb:	45 31 c9             	xor    %r9d,%r9d
    43fe:	f3 48 ab             	rep stos %rax,%es:(%rdi)
    4401:	41 54                	push   %r12
    4403:	4c 89 ee             	mov    %r13,%rsi
    4406:	bf 80 00 00 00       	mov    $0x80,%edi
    440b:	68 80 00 00 00       	push   $0x80
    4410:	e8 9b 23 00 00       	call   67b0 <Hacl_Hash_Blake2b_update_last>
    4415:	58                   	pop    %rax
    4416:	5a                   	pop    %rdx
    4417:	48 8d 84 24 30 02 00 	lea    0x230(%rsp),%rax
    441e:	00 
    441f:	48 8d ac 24 b0 02 00 	lea    0x2b0(%rsp),%rbp
    4426:	00 
    4427:	48 89 44 24 10       	mov    %rax,0x10(%rsp)
    442c:	e9 a6 fe ff ff       	jmp    42d7 <Hacl_HMAC_compute_blake2b_32+0x347>
    4431:	66 2e 0f 1f 84 00 00 	cs nopw 0x0(%rax,%rax,1)
    4438:	00 00 00 
    443b:	0f 1f 44 00 00       	nopl   0x0(%rax,%rax,1)

0000000000004440 <update_block>:
    4440:	41 57                	push   %r15
    4442:	41 89 cf             	mov    %ecx,%r15d
    4445:	41 56                	push   %r14
    4447:	41 89 d6             	mov    %edx,%r14d
    444a:	ba 08 00 00 00       	mov    $0x8,%edx
    444f:	45 0f b6 ff          	movzbl %r15b,%r15d
    4453:	41 55                	push   %r13
    4455:	4d 89 c5             	mov    %r8,%r13
    4458:	45 0f b6 f6          	movzbl %r14b,%r14d
    445c:	41 54                	push   %r12
    445e:	4d 89 cc             	mov    %r9,%r12
    4461:	55                   	push   %rbp
    4462:	53                   	push   %rbx
    4463:	48 81 ec c8 00 00 00 	sub    $0xc8,%rsp
    446a:	48 8b 9c 24 00 01 00 	mov    0x100(%rsp),%rbx
    4471:	00 
    4472:	48 8d ac 24 b8 00 00 	lea    0xb8(%rsp),%rbp
    4479:	00 
    447a:	48 89 bc 24 80 00 00 	mov    %rdi,0x80(%rsp)
    4481:	00 
    4482:	48 89 b4 24 98 00 00 	mov    %rsi,0x98(%rsp)
    4489:	00 
    448a:	48 89 ef             	mov    %rbp,%rdi
    448d:	48 89 de             	mov    %rbx,%rsi
    4490:	e8 3c ce ff ff       	call   12d1 <memcpy>
    4495:	48 8b 84 24 b8 00 00 	mov    0xb8(%rsp),%rax
    449c:	00 
    449d:	48 8d 73 08          	lea    0x8(%rbx),%rsi
    44a1:	48 89 ef             	mov    %rbp,%rdi
    44a4:	ba 08 00 00 00       	mov    $0x8,%edx
    44a9:	48 89 04 24          	mov    %rax,(%rsp)
    44ad:	e8 1f ce ff ff       	call   12d1 <memcpy>
    44b2:	48 8b 8c 24 b8 00 00 	mov    0xb8(%rsp),%rcx
    44b9:	00 
    44ba:	48 8d 73 10          	lea    0x10(%rbx),%rsi
    44be:	48 89 ef             	mov    %rbp,%rdi
    44c1:	ba 08 00 00 00       	mov    $0x8,%edx
    44c6:	48 89 4c 24 08       	mov    %rcx,0x8(%rsp)
    44cb:	e8 01 ce ff ff       	call   12d1 <memcpy>
    44d0:	48 8b 94 24 b8 00 00 	mov    0xb8(%rsp),%rdx
    44d7:	00 
    44d8:	48 8d 73 18          	lea    0x18(%rbx),%rsi
    44dc:	48 89 ef             	mov    %rbp,%rdi
    44df:	48 89 54 24 10       	mov    %rdx,0x10(%rsp)
    44e4:	ba 08 00 00 00       	mov    $0x8,%edx
    44e9:	e8 e3 cd ff ff       	call   12d1 <memcpy>
    44ee:	4c 8b 8c 24 b8 00 00 	mov    0xb8(%rsp),%r9
    44f5:	00 
    44f6:	48 8d 73 20          	lea    0x20(%rbx),%rsi
    44fa:	48 89 ef             	mov    %rbp,%rdi
    44fd:	ba 08 00 00 00       	mov    $0x8,%edx
    4502:	4c 89 4c 24 18       	mov    %r9,0x18(%rsp)
    4507:	e8 c5 cd ff ff       	call   12d1 <memcpy>
    450c:	4c 8b 9c 24 b8 00 00 	mov    0xb8(%rsp),%r11
    4513:	00 
    4514:	48 8d 73 28          	lea    0x28(%rbx),%rsi
    4518:	48 89 ef             	mov    %rbp,%rdi
    451b:	ba 08 00 00 00       	mov    $0x8,%edx
    4520:	4c 89 5c 24 20       	mov    %r11,0x20(%rsp)
    4525:	e8 a7 cd ff ff       	call   12d1 <memcpy>
    452a:	4c 8b 84 24 b8 00 00 	mov    0xb8(%rsp),%r8
    4531:	00 
    4532:	48 8d 73 30          	lea    0x30(%rbx),%rsi
    4536:	48 89 ef             	mov    %rbp,%rdi
    4539:	ba 08 00 00 00       	mov    $0x8,%edx
    453e:	4c 89 44 24 28       	mov    %r8,0x28(%rsp)
    4543:	e8 89 cd ff ff       	call   12d1 <memcpy>
    4548:	48 8b 8c 24 b8 00 00 	mov    0xb8(%rsp),%rcx
    454f:	00 
    4550:	48 8d 73 38          	lea    0x38(%rbx),%rsi
    4554:	48 89 ef             	mov    %rbp,%rdi
    4557:	ba 08 00 00 00       	mov    $0x8,%edx
    455c:	48 89 4c 24 30       	mov    %rcx,0x30(%rsp)
    4561:	e8 6b cd ff ff       	call   12d1 <memcpy>
    4566:	48 8b 94 24 b8 00 00 	mov    0xb8(%rsp),%rdx
    456d:	00 
    456e:	48 8d 73 40          	lea    0x40(%rbx),%rsi
    4572:	48 89 ef             	mov    %rbp,%rdi
    4575:	48 89 54 24 38       	mov    %rdx,0x38(%rsp)
    457a:	ba 08 00 00 00       	mov    $0x8,%edx
    457f:	e8 4d cd ff ff       	call   12d1 <memcpy>
    4584:	4c 8b 9c 24 b8 00 00 	mov    0xb8(%rsp),%r11
    458b:	00 
    458c:	48 8d 73 48          	lea    0x48(%rbx),%rsi
    4590:	48 89 ef             	mov    %rbp,%rdi
    4593:	ba 08 00 00 00       	mov    $0x8,%edx
    4598:	4c 89 5c 24 40       	mov    %r11,0x40(%rsp)
    459d:	e8 2f cd ff ff       	call   12d1 <memcpy>
    45a2:	48 8b 84 24 b8 00 00 	mov    0xb8(%rsp),%rax
    45a9:	00 
    45aa:	48 8d 73 50          	lea    0x50(%rbx),%rsi
    45ae:	48 89 ef             	mov    %rbp,%rdi
    45b1:	ba 08 00 00 00       	mov    $0x8,%edx
    45b6:	48 89 44 24 48       	mov    %rax,0x48(%rsp)
    45bb:	e8 11 cd ff ff       	call   12d1 <memcpy>
    45c0:	4c 8b 84 24 b8 00 00 	mov    0xb8(%rsp),%r8
    45c7:	00 
    45c8:	48 8d 73 58          	lea    0x58(%rbx),%rsi
    45cc:	48 89 ef             	mov    %rbp,%rdi
    45cf:	ba 08 00 00 00       	mov    $0x8,%edx
    45d4:	4c 89 44 24 50       	mov    %r8,0x50(%rsp)
    45d9:	e8 f3 cc ff ff       	call   12d1 <memcpy>
    45de:	48 8b b4 24 b8 00 00 	mov    0xb8(%rsp),%rsi
    45e5:	00 
    45e6:	48 89 ef             	mov    %rbp,%rdi
    45e9:	ba 08 00 00 00       	mov    $0x8,%edx
    45ee:	48 89 74 24 58       	mov    %rsi,0x58(%rsp)
    45f3:	48 8d 73 60          	lea    0x60(%rbx),%rsi
    45f7:	e8 d5 cc ff ff       	call   12d1 <memcpy>
    45fc:	48 8b 8c 24 b8 00 00 	mov    0xb8(%rsp),%rcx
    4603:	00 
    4604:	48 8d 73 68          	lea    0x68(%rbx),%rsi
    4608:	48 89 ef             	mov    %rbp,%rdi
    460b:	ba 08 00 00 00       	mov    $0x8,%edx
    4610:	48 89 4c 24 60       	mov    %rcx,0x60(%rsp)
    4615:	e8 b7 cc ff ff       	call   12d1 <memcpy>
    461a:	48 8b 94 24 b8 00 00 	mov    0xb8(%rsp),%rdx
    4621:	00 
    4622:	48 8d 73 70          	lea    0x70(%rbx),%rsi
    4626:	48 89 ef             	mov    %rbp,%rdi
    4629:	48 89 54 24 68       	mov    %rdx,0x68(%rsp)
    462e:	ba 08 00 00 00       	mov    $0x8,%edx
    4633:	e8 99 cc ff ff       	call   12d1 <memcpy>
    4638:	48 8d 73 78          	lea    0x78(%rbx),%rsi
    463c:	ba 08 00 00 00       	mov    $0x8,%edx
    4641:	48 8b bc 24 b8 00 00 	mov    0xb8(%rsp),%rdi
    4648:	00 
    4649:	48 89 7c 24 70       	mov    %rdi,0x70(%rsp)
    464e:	48 89 ef             	mov    %rbp,%rdi
    4651:	e8 7b cc ff ff       	call   12d1 <memcpy>
    4656:	48 8b 9c 24 80 00 00 	mov    0x80(%rsp),%rbx
    465d:	00 
    465e:	ba 80 00 00 00       	mov    $0x80,%edx
    4663:	48 8b ac 24 b8 00 00 	mov    0xb8(%rsp),%rbp
    466a:	00 
    466b:	48 8b b4 24 98 00 00 	mov    0x98(%rsp),%rsi
    4672:	00 
    4673:	48 89 df             	mov    %rbx,%rdi
    4676:	48 89 6c 24 78       	mov    %rbp,0x78(%rsp)
    467b:	e8 51 cc ff ff       	call   12d1 <memcpy>
    4680:	49 89 da             	mov    %rbx,%r10
    4683:	4c 8b 43 20          	mov    0x20(%rbx),%r8
    4687:	48 8b 6b 28          	mov    0x28(%rbx),%rbp
    468b:	49 8b 0a             	mov    (%r10),%rcx
    468e:	48 8b 04 24          	mov    (%rsp),%rax
    4692:	4c 89 94 24 80 00 00 	mov    %r10,0x80(%rsp)
    4699:	00 
    469a:	49 8b 52 08          	mov    0x8(%r10),%rdx
    469e:	48 8b 7c 24 10       	mov    0x10(%rsp),%rdi
    46a3:	4c 01 c1             	add    %r8,%rcx
    46a6:	4d 33 6a 60          	xor    0x60(%r10),%r13
    46aa:	48 8b 5b 30          	mov    0x30(%rbx),%rbx
    46ae:	48 01 c1             	add    %rax,%rcx
    46b1:	48 01 ea             	add    %rbp,%rdx
    46b4:	49 8b 42 10          	mov    0x10(%r10),%rax
    46b8:	4d 8b 5a 38          	mov    0x38(%r10),%r11
    46bc:	48 01 fa             	add    %rdi,%rdx
    46bf:	49 31 cd             	xor    %rcx,%r13
    46c2:	48 8b 7c 24 20       	mov    0x20(%rsp),%rdi
    46c7:	49 8b 72 18          	mov    0x18(%r10),%rsi
    46cb:	48 01 d8             	add    %rbx,%rax
    46ce:	49 c1 c5 20          	rol    $0x20,%r13
    46d2:	49 31 d4             	xor    %rdx,%r12
    46d5:	4d 33 62 68          	xor    0x68(%r10),%r12
    46d9:	4c 8b 4c 24 30       	mov    0x30(%rsp),%r9
    46de:	48 01 f8             	add    %rdi,%rax
    46e1:	4c 89 ef             	mov    %r13,%rdi
    46e4:	4d 89 e5             	mov    %r12,%r13
    46e7:	4d 8b 62 70          	mov    0x70(%r10),%r12
    46eb:	4c 01 de             	add    %r11,%rsi
    46ee:	49 c1 c5 20          	rol    $0x20,%r13
    46f2:	4c 01 ce             	add    %r9,%rsi
    46f5:	49 31 c4             	xor    %rax,%r12
    46f8:	49 f7 de             	neg    %r14
    46fb:	49 f7 df             	neg    %r15
    46fe:	4d 89 e1             	mov    %r12,%r9
    4701:	4d 31 f1             	xor    %r14,%r9
    4704:	4d 8b 72 78          	mov    0x78(%r10),%r14
    4708:	49 c1 c1 20          	rol    $0x20,%r9
    470c:	49 31 f6             	xor    %rsi,%r14
    470f:	4d 89 f4             	mov    %r14,%r12
    4712:	4d 8b 72 48          	mov    0x48(%r10),%r14
    4716:	4d 31 fc             	xor    %r15,%r12
    4719:	4d 8b 7a 40          	mov    0x40(%r10),%r15
    471d:	4d 01 ee             	add    %r13,%r14
    4720:	49 c1 c4 20          	rol    $0x20,%r12
    4724:	49 01 ff             	add    %rdi,%r15
    4727:	4c 89 b4 24 90 00 00 	mov    %r14,0x90(%rsp)
    472e:	00 
    472f:	4d 8b 72 58          	mov    0x58(%r10),%r14
    4733:	4c 89 bc 24 88 00 00 	mov    %r15,0x88(%rsp)
    473a:	00 
    473b:	4d 8b 7a 50          	mov    0x50(%r10),%r15
    473f:	4c 8b 94 24 88 00 00 	mov    0x88(%rsp),%r10
    4746:	00 
    4747:	4d 01 e6             	add    %r12,%r14
    474a:	4d 01 cf             	add    %r9,%r15
    474d:	4d 31 f3             	xor    %r14,%r11
    4750:	4d 31 d0             	xor    %r10,%r8
    4753:	4c 8b 94 24 90 00 00 	mov    0x90(%rsp),%r10
    475a:	00 
    475b:	4c 31 fb             	xor    %r15,%rbx
    475e:	49 c1 cb 18          	ror    $0x18,%r11
    4762:	49 c1 c8 18          	ror    $0x18,%r8
    4766:	48 c1 cb 18          	ror    $0x18,%rbx
    476a:	4c 31 d5             	xor    %r10,%rbp
    476d:	4c 8b 54 24 08       	mov    0x8(%rsp),%r10
    4772:	48 c1 cd 18          	ror    $0x18,%rbp
    4776:	4c 01 d1             	add    %r10,%rcx
    4779:	4c 8b 54 24 18       	mov    0x18(%rsp),%r10
    477e:	4c 01 c1             	add    %r8,%rcx
    4781:	4c 01 d2             	add    %r10,%rdx
    4784:	4c 8b 54 24 28       	mov    0x28(%rsp),%r10
    4789:	48 31 cf             	xor    %rcx,%rdi
    478c:	48 01 ea             	add    %rbp,%rdx
    478f:	48 c1 cf 10          	ror    $0x10,%rdi
    4793:	4c 01 d0             	add    %r10,%rax
    4796:	49 31 d5             	xor    %rdx,%r13
    4799:	4c 8b 54 24 38       	mov    0x38(%rsp),%r10
    479e:	49 c1 cd 10          	ror    $0x10,%r13
    47a2:	48 01 d8             	add    %rbx,%rax
    47a5:	4c 01 d6             	add    %r10,%rsi
    47a8:	4d 89 ea             	mov    %r13,%r10
    47ab:	4d 89 cd             	mov    %r9,%r13
    47ae:	4c 8b 8c 24 88 00 00 	mov    0x88(%rsp),%r9
    47b5:	00 
    47b6:	4c 01 de             	add    %r11,%rsi
    47b9:	49 31 c5             	xor    %rax,%r13
    47bc:	49 01 f9             	add    %rdi,%r9
    47bf:	49 31 f4             	xor    %rsi,%r12
    47c2:	49 c1 cd 10          	ror    $0x10,%r13
    47c6:	4c 89 8c 24 88 00 00 	mov    %r9,0x88(%rsp)
    47cd:	00 
    47ce:	49 c1 cc 10          	ror    $0x10,%r12
    47d2:	4d 01 ef             	add    %r13,%r15
    47d5:	4c 8b 8c 24 90 00 00 	mov    0x90(%rsp),%r9
    47dc:	00 
    47dd:	4d 01 e6             	add    %r12,%r14
    47e0:	4c 31 fb             	xor    %r15,%rbx
    47e3:	4d 01 d1             	add    %r10,%r9
    47e6:	4d 31 f3             	xor    %r14,%r11
    47e9:	48 d1 c3             	rol    %rbx
    47ec:	4c 89 8c 24 90 00 00 	mov    %r9,0x90(%rsp)
    47f3:	00 
    47f4:	4c 8b 8c 24 88 00 00 	mov    0x88(%rsp),%r9
    47fb:	00 
    47fc:	49 d1 c3             	rol    %r11
    47ff:	4d 31 c8             	xor    %r9,%r8
    4802:	4c 8b 8c 24 90 00 00 	mov    0x90(%rsp),%r9
    4809:	00 
    480a:	49 d1 c0             	rol    %r8
    480d:	4c 31 cd             	xor    %r9,%rbp
    4810:	4c 8b 4c 24 40       	mov    0x40(%rsp),%r9
    4815:	48 d1 c5             	rol    %rbp
    4818:	4c 01 c9             	add    %r9,%rcx
    481b:	4c 8b 4c 24 50       	mov    0x50(%rsp),%r9
    4820:	48 01 e9             	add    %rbp,%rcx
    4823:	4c 01 ca             	add    %r9,%rdx
    4826:	4c 8b 4c 24 60       	mov    0x60(%rsp),%r9
    482b:	49 31 cc             	xor    %rcx,%r12
    482e:	48 01 da             	add    %rbx,%rdx
    4831:	49 c1 c4 20          	rol    $0x20,%r12
    4835:	4c 01 c8             	add    %r9,%rax
    4838:	4c 8b 4c 24 70       	mov    0x70(%rsp),%r9
    483d:	48 31 d7             	xor    %rdx,%rdi
    4840:	4c 89 a4 24 a0 00 00 	mov    %r12,0xa0(%rsp)
    4847:	00 
    4848:	4c 01 d8             	add    %r11,%rax
    484b:	48 c1 c7 20          	rol    $0x20,%rdi
    484f:	4c 01 ce             	add    %r9,%rsi
    4852:	49 31 c2             	xor    %rax,%r10
    4855:	4c 01 c6             	add    %r8,%rsi
    4858:	49 c1 c2 20          	rol    $0x20,%r10
    485c:	49 31 f5             	xor    %rsi,%r13
    485f:	4d 89 e9             	mov    %r13,%r9
    4862:	4c 8b ac 24 88 00 00 	mov    0x88(%rsp),%r13
    4869:	00 
    486a:	49 c1 c1 20          	rol    $0x20,%r9
    486e:	4d 01 e7             	add    %r12,%r15
    4871:	4c 8b a4 24 90 00 00 	mov    0x90(%rsp),%r12
    4878:	00 
    4879:	49 01 fe             	add    %rdi,%r14
    487c:	4c 31 f3             	xor    %r14,%rbx
    487f:	4d 01 d5             	add    %r10,%r13
    4882:	4c 31 fd             	xor    %r15,%rbp
    4885:	48 c1 cb 18          	ror    $0x18,%rbx
    4889:	4d 01 cc             	add    %r9,%r12
    488c:	4d 31 eb             	xor    %r13,%r11
    488f:	48 c1 cd 18          	ror    $0x18,%rbp
    4893:	4c 89 a4 24 90 00 00 	mov    %r12,0x90(%rsp)
    489a:	00 
    489b:	4d 31 e0             	xor    %r12,%r8
    489e:	4c 8b 64 24 48       	mov    0x48(%rsp),%r12
    48a3:	49 c1 cb 18          	ror    $0x18,%r11
    48a7:	49 c1 c8 18          	ror    $0x18,%r8
    48ab:	4c 01 e1             	add    %r12,%rcx
    48ae:	4c 8b 64 24 58       	mov    0x58(%rsp),%r12
    48b3:	48 01 e9             	add    %rbp,%rcx
    48b6:	4c 01 e2             	add    %r12,%rdx
    48b9:	4c 8b 64 24 68       	mov    0x68(%rsp),%r12
    48be:	48 01 da             	add    %rbx,%rdx
    48c1:	4c 01 e0             	add    %r12,%rax
    48c4:	4c 8b 64 24 78       	mov    0x78(%rsp),%r12
    48c9:	48 31 d7             	xor    %rdx,%rdi
    48cc:	48 c1 cf 10          	ror    $0x10,%rdi
    48d0:	4c 01 d8             	add    %r11,%rax
    48d3:	4c 01 e6             	add    %r12,%rsi
    48d6:	49 01 fe             	add    %rdi,%r14
    48d9:	4c 8b a4 24 a0 00 00 	mov    0xa0(%rsp),%r12
    48e0:	00 
    48e1:	49 31 c2             	xor    %rax,%r10
    48e4:	4c 01 c6             	add    %r8,%rsi
    48e7:	4c 89 b4 24 88 00 00 	mov    %r14,0x88(%rsp)
    48ee:	00 
    48ef:	49 c1 ca 10          	ror    $0x10,%r10
    48f3:	4c 8b b4 24 90 00 00 	mov    0x90(%rsp),%r14
    48fa:	00 
    48fb:	49 31 f1             	xor    %rsi,%r9
    48fe:	49 31 cc             	xor    %rcx,%r12
    4901:	4d 01 d5             	add    %r10,%r13
    4904:	49 c1 c9 10          	ror    $0x10,%r9
    4908:	49 c1 cc 10          	ror    $0x10,%r12
    490c:	4d 01 ce             	add    %r9,%r14
    490f:	4d 01 e7             	add    %r12,%r15
    4912:	4c 89 b4 24 a0 00 00 	mov    %r14,0xa0(%rsp)
    4919:	00 
    491a:	4c 8b b4 24 88 00 00 	mov    0x88(%rsp),%r14
    4921:	00 
    4922:	4c 31 fd             	xor    %r15,%rbp
    4925:	4d 31 eb             	xor    %r13,%r11
    4928:	49 d1 c3             	rol    %r11
    492b:	48 d1 c5             	rol    %rbp
    492e:	4c 31 f3             	xor    %r14,%rbx
    4931:	4c 8b 74 24 70       	mov    0x70(%rsp),%r14
    4936:	4c 89 9c 24 90 00 00 	mov    %r11,0x90(%rsp)
    493d:	00 
    493e:	4c 8b 9c 24 a0 00 00 	mov    0xa0(%rsp),%r11
    4945:	00 
    4946:	48 d1 c3             	rol    %rbx
    4949:	4c 01 f1             	add    %r14,%rcx
    494c:	4c 8b 74 24 20       	mov    0x20(%rsp),%r14
    4951:	4d 31 d8             	xor    %r11,%r8
    4954:	4c 01 f2             	add    %r14,%rdx
    4957:	4c 8b 74 24 48       	mov    0x48(%rsp),%r14
    495c:	49 d1 c0             	rol    %r8
    495f:	48 01 ea             	add    %rbp,%rdx
    4962:	4c 01 c1             	add    %r8,%rcx
    4965:	4c 01 f0             	add    %r14,%rax
    4968:	4c 8b 74 24 68       	mov    0x68(%rsp),%r14
    496d:	49 31 d2             	xor    %rdx,%r10
    4970:	48 31 cf             	xor    %rcx,%rdi
    4973:	49 c1 c2 20          	rol    $0x20,%r10
    4977:	48 01 d8             	add    %rbx,%rax
    497a:	48 c1 c7 20          	rol    $0x20,%rdi
    497e:	4c 01 f6             	add    %r14,%rsi
    4981:	49 31 c1             	xor    %rax,%r9
    4984:	4f 8d 1c 13          	lea    (%r11,%r10,1),%r11
    4988:	49 01 fd             	add    %rdi,%r13
    498b:	4c 8b b4 24 90 00 00 	mov    0x90(%rsp),%r14
    4992:	00 
    4993:	49 c1 c1 20          	rol    $0x20,%r9
    4997:	4c 31 dd             	xor    %r11,%rbp
    499a:	4d 31 e8             	xor    %r13,%r8
    499d:	4d 01 cf             	add    %r9,%r15
    49a0:	4c 89 9c 24 a0 00 00 	mov    %r11,0xa0(%rsp)
    49a7:	00 
    49a8:	4c 8b 9c 24 90 00 00 	mov    0x90(%rsp),%r11
    49af:	00 
    49b0:	49 c1 c8 18          	ror    $0x18,%r8
    49b4:	4c 01 f6             	add    %r14,%rsi
    49b7:	4c 31 fb             	xor    %r15,%rbx
    49ba:	48 c1 cd 18          	ror    $0x18,%rbp
    49be:	49 31 f4             	xor    %rsi,%r12
    49c1:	4d 89 e6             	mov    %r12,%r14
    49c4:	4c 8b a4 24 88 00 00 	mov    0x88(%rsp),%r12
    49cb:	00 
    49cc:	49 c1 c6 20          	rol    $0x20,%r14
    49d0:	4d 01 f4             	add    %r14,%r12
    49d3:	48 c1 cb 18          	ror    $0x18,%rbx
    49d7:	4c 89 a4 24 a8 00 00 	mov    %r12,0xa8(%rsp)
    49de:	00 
    49df:	4d 31 e3             	xor    %r12,%r11
    49e2:	4c 8b 64 24 50       	mov    0x50(%rsp),%r12
    49e7:	49 c1 cb 18          	ror    $0x18,%r11
    49eb:	4c 01 e1             	add    %r12,%rcx
    49ee:	4c 8b 64 24 40       	mov    0x40(%rsp),%r12
    49f3:	4c 01 c1             	add    %r8,%rcx
    49f6:	4c 01 e2             	add    %r12,%rdx
    49f9:	4c 8b 64 24 78       	mov    0x78(%rsp),%r12
    49fe:	48 31 cf             	xor    %rcx,%rdi
    4a01:	48 01 ea             	add    %rbp,%rdx
    4a04:	48 c1 cf 10          	ror    $0x10,%rdi
    4a08:	4c 01 e0             	add    %r12,%rax
    4a0b:	49 31 d2             	xor    %rdx,%r10
    4a0e:	4c 8b 64 24 30       	mov    0x30(%rsp),%r12
    4a13:	49 01 fd             	add    %rdi,%r13
    4a16:	49 c1 ca 10          	ror    $0x10,%r10
    4a1a:	4c 89 ac 24 88 00 00 	mov    %r13,0x88(%rsp)
    4a21:	00 
    4a22:	48 01 d8             	add    %rbx,%rax
    4a25:	4c 01 e6             	add    %r12,%rsi
    4a28:	4d 89 d4             	mov    %r10,%r12
    4a2b:	49 89 fa             	mov    %rdi,%r10
    4a2e:	49 31 c1             	xor    %rax,%r9
    4a31:	48 8b bc 24 a0 00 00 	mov    0xa0(%rsp),%rdi
    4a38:	00 
    4a39:	4c 01 de             	add    %r11,%rsi
    4a3c:	4c 89 a4 24 90 00 00 	mov    %r12,0x90(%rsp)
    4a43:	00 
    4a44:	49 c1 c9 10          	ror    $0x10,%r9
    4a48:	49 31 f6             	xor    %rsi,%r14
    4a4b:	4c 89 8c 24 a0 00 00 	mov    %r9,0xa0(%rsp)
    4a52:	00 
    4a53:	4d 01 cf             	add    %r9,%r15
    4a56:	4c 8b 4c 24 08       	mov    0x8(%rsp),%r9
    4a5b:	4c 01 e7             	add    %r12,%rdi
    4a5e:	49 c1 ce 10          	ror    $0x10,%r14
    4a62:	4c 31 fb             	xor    %r15,%rbx
    4a65:	49 89 fd             	mov    %rdi,%r13
    4a68:	48 8b bc 24 a8 00 00 	mov    0xa8(%rsp),%rdi
    4a6f:	00 
    4a70:	4c 01 c9             	add    %r9,%rcx
    4a73:	48 d1 c3             	rol    %rbx
    4a76:	4c 31 ed             	xor    %r13,%rbp
    4a79:	4e 8d 24 37          	lea    (%rdi,%r14,1),%r12
    4a7d:	48 8b bc 24 88 00 00 	mov    0x88(%rsp),%rdi
    4a84:	00 
    4a85:	48 d1 c5             	rol    %rbp
    4a88:	4d 31 e3             	xor    %r12,%r11
    4a8b:	48 01 e9             	add    %rbp,%rcx
    4a8e:	49 31 f8             	xor    %rdi,%r8
    4a91:	49 d1 c3             	rol    %r11
    4a94:	49 d1 c0             	rol    %r8
    4a97:	4c 89 c7             	mov    %r8,%rdi
    4a9a:	4c 8b 04 24          	mov    (%rsp),%r8
    4a9e:	4c 01 c2             	add    %r8,%rdx
    4aa1:	4c 8b 44 24 58       	mov    0x58(%rsp),%r8
    4aa6:	49 31 ce             	xor    %rcx,%r14
    4aa9:	48 01 da             	add    %rbx,%rdx
    4aac:	49 c1 c6 20          	rol    $0x20,%r14
    4ab0:	4c 01 c0             	add    %r8,%rax
    4ab3:	4c 8b 44 24 28       	mov    0x28(%rsp),%r8
    4ab8:	49 31 d2             	xor    %rdx,%r10
    4abb:	4d 01 f7             	add    %r14,%r15
    4abe:	4c 01 d8             	add    %r11,%rax
    4ac1:	49 c1 c2 20          	rol    $0x20,%r10
    4ac5:	4c 31 fd             	xor    %r15,%rbp
    4ac8:	4c 01 c6             	add    %r8,%rsi
    4acb:	4c 8b 84 24 90 00 00 	mov    0x90(%rsp),%r8
    4ad2:	00 
    4ad3:	4d 01 d4             	add    %r10,%r12
    4ad6:	48 c1 cd 18          	ror    $0x18,%rbp
    4ada:	4c 89 a4 24 90 00 00 	mov    %r12,0x90(%rsp)
    4ae1:	00 
    4ae2:	4c 8b a4 24 88 00 00 	mov    0x88(%rsp),%r12
    4ae9:	00 
    4aea:	48 01 fe             	add    %rdi,%rsi
    4aed:	49 31 c0             	xor    %rax,%r8
    4af0:	48 89 ac 24 88 00 00 	mov    %rbp,0x88(%rsp)
    4af7:	00 
    4af8:	48 8b ac 24 90 00 00 	mov    0x90(%rsp),%rbp
    4aff:	00 
    4b00:	4d 89 c1             	mov    %r8,%r9
    4b03:	4c 8b 84 24 a0 00 00 	mov    0xa0(%rsp),%r8
    4b0a:	00 
    4b0b:	49 c1 c1 20          	rol    $0x20,%r9
    4b0f:	48 31 eb             	xor    %rbp,%rbx
    4b12:	4d 01 cc             	add    %r9,%r12
    4b15:	49 31 f0             	xor    %rsi,%r8
    4b18:	48 c1 cb 18          	ror    $0x18,%rbx
    4b1c:	4d 31 e3             	xor    %r12,%r11
    4b1f:	49 c1 c0 20          	rol    $0x20,%r8
    4b23:	49 c1 cb 18          	ror    $0x18,%r11
    4b27:	4d 01 c5             	add    %r8,%r13
    4b2a:	4c 89 9c 24 90 00 00 	mov    %r11,0x90(%rsp)
    4b31:	00 
    4b32:	4c 8b 5c 24 60       	mov    0x60(%rsp),%r11
    4b37:	4c 31 ef             	xor    %r13,%rdi
    4b3a:	48 c1 cf 18          	ror    $0x18,%rdi
    4b3e:	4c 01 d9             	add    %r11,%rcx
    4b41:	4c 8b 9c 24 88 00 00 	mov    0x88(%rsp),%r11
    4b48:	00 
    4b49:	4c 01 d9             	add    %r11,%rcx
    4b4c:	4c 8b 5c 24 10       	mov    0x10(%rsp),%r11
    4b51:	4c 01 da             	add    %r11,%rdx
    4b54:	4c 8b 5c 24 38       	mov    0x38(%rsp),%r11
    4b59:	48 01 da             	add    %rbx,%rdx
    4b5c:	4c 01 d8             	add    %r11,%rax
    4b5f:	4c 8b 9c 24 90 00 00 	mov    0x90(%rsp),%r11
    4b66:	00 
    4b67:	4c 01 d8             	add    %r11,%rax
    4b6a:	4c 8b 5c 24 18       	mov    0x18(%rsp),%r11
    4b6f:	4c 01 de             	add    %r11,%rsi
    4b72:	49 31 d2             	xor    %rdx,%r10
    4b75:	49 31 ce             	xor    %rcx,%r14
    4b78:	49 31 c1             	xor    %rax,%r9
    4b7b:	49 c1 ca 10          	ror    $0x10,%r10
    4b7f:	48 01 fe             	add    %rdi,%rsi
    4b82:	49 c1 ce 10          	ror    $0x10,%r14
    4b86:	4c 01 d5             	add    %r10,%rbp
    4b89:	49 31 f0             	xor    %rsi,%r8
    4b8c:	4d 01 f7             	add    %r14,%r15
    4b8f:	49 c1 c9 10          	ror    $0x10,%r9
    4b93:	49 89 eb             	mov    %rbp,%r11
    4b96:	48 8b ac 24 88 00 00 	mov    0x88(%rsp),%rbp
    4b9d:	00 
    4b9e:	49 c1 c8 10          	ror    $0x10,%r8
    4ba2:	4d 01 cc             	add    %r9,%r12
    4ba5:	4c 31 db             	xor    %r11,%rbx
    4ba8:	4d 01 c5             	add    %r8,%r13
    4bab:	4c 89 9c 24 a0 00 00 	mov    %r11,0xa0(%rsp)
    4bb2:	00 
    4bb3:	4c 8b 9c 24 90 00 00 	mov    0x90(%rsp),%r11
    4bba:	00 
    4bbb:	48 d1 c3             	rol    %rbx
    4bbe:	4c 31 ef             	xor    %r13,%rdi
    4bc1:	4c 31 fd             	xor    %r15,%rbp
    4bc4:	48 89 9c 24 88 00 00 	mov    %rbx,0x88(%rsp)
    4bcb:	00 
    4bcc:	48 8b 5c 24 58       	mov    0x58(%rsp),%rbx
    4bd1:	48 d1 c7             	rol    %rdi
    4bd4:	48 d1 c5             	rol    %rbp
    4bd7:	4d 31 e3             	xor    %r12,%r11
    4bda:	48 01 d9             	add    %rbx,%rcx
    4bdd:	48 8b 5c 24 60       	mov    0x60(%rsp),%rbx
    4be2:	49 d1 c3             	rol    %r11
    4be5:	48 01 f9             	add    %rdi,%rcx
    4be8:	48 01 da             	add    %rbx,%rdx
    4beb:	48 8b 5c 24 28       	mov    0x28(%rsp),%rbx
    4bf0:	49 31 ca             	xor    %rcx,%r10
    4bf3:	48 01 ea             	add    %rbp,%rdx
    4bf6:	49 c1 c2 20          	rol    $0x20,%r10
    4bfa:	48 01 d8             	add    %rbx,%rax
    4bfd:	48 8b 9c 24 88 00 00 	mov    0x88(%rsp),%rbx
    4c04:	00 
    4c05:	48 01 d8             	add    %rbx,%rax
    4c08:	48 8b 5c 24 78       	mov    0x78(%rsp),%rbx
    4c0d:	48 01 de             	add    %rbx,%rsi
    4c10:	4c 01 de             	add    %r11,%rsi
    4c13:	49 31 d1             	xor    %rdx,%r9
    4c16:	49 31 c0             	xor    %rax,%r8
    4c19:	4d 01 d4             	add    %r10,%r12
    4c1c:	49 31 f6             	xor    %rsi,%r14
    4c1f:	4c 89 cb             	mov    %r9,%rbx
    4c22:	49 c1 c0 20          	rol    $0x20,%r8
    4c26:	4c 31 e7             	xor    %r12,%rdi
    4c29:	4c 8b 8c 24 a0 00 00 	mov    0xa0(%rsp),%r9
    4c30:	00 
    4c31:	49 c1 c6 20          	rol    $0x20,%r14
    4c35:	48 c1 c3 20          	rol    $0x20,%rbx
    4c39:	4d 01 c7             	add    %r8,%r15
    4c3c:	48 89 9c 24 90 00 00 	mov    %rbx,0x90(%rsp)
    4c43:	00 
    4c44:	49 01 dd             	add    %rbx,%r13
    4c47:	48 c1 cf 18          	ror    $0x18,%rdi
    4c4b:	48 8b 9c 24 88 00 00 	mov    0x88(%rsp),%rbx
    4c52:	00 
    4c53:	4d 01 f1             	add    %r14,%r9
    4c56:	4c 31 ed             	xor    %r13,%rbp
    4c59:	4c 89 8c 24 a0 00 00 	mov    %r9,0xa0(%rsp)
    4c60:	00 
    4c61:	4d 31 cb             	xor    %r9,%r11
    4c64:	4c 8b 4c 24 40       	mov    0x40(%rsp),%r9
    4c69:	48 c1 cd 18          	ror    $0x18,%rbp
    4c6d:	4c 31 fb             	xor    %r15,%rbx
    4c70:	49 c1 cb 18          	ror    $0x18,%r11
    4c74:	4c 01 c9             	add    %r9,%rcx
    4c77:	4c 8b 0c 24          	mov    (%rsp),%r9
    4c7b:	48 c1 cb 18          	ror    $0x18,%rbx
    4c7f:	48 01 f9             	add    %rdi,%rcx
    4c82:	4c 01 ca             	add    %r9,%rdx
    4c85:	4c 8b 4c 24 10       	mov    0x10(%rsp),%r9
    4c8a:	49 31 ca             	xor    %rcx,%r10
    4c8d:	48 01 ea             	add    %rbp,%rdx
    4c90:	49 c1 ca 10          	ror    $0x10,%r10
    4c94:	4c 01 c8             	add    %r9,%rax
    4c97:	4c 8b 4c 24 68       	mov    0x68(%rsp),%r9
    4c9c:	48 01 d8             	add    %rbx,%rax
    4c9f:	4c 01 ce             	add    %r9,%rsi
    4ca2:	4c 8b 8c 24 90 00 00 	mov    0x90(%rsp),%r9
    4ca9:	00 
    4caa:	49 31 c0             	xor    %rax,%r8
    4cad:	4c 01 de             	add    %r11,%rsi
    4cb0:	49 c1 c8 10          	ror    $0x10,%r8
    4cb4:	49 31 d1             	xor    %rdx,%r9
    4cb7:	49 c1 c9 10          	ror    $0x10,%r9
    4cbb:	49 31 f6             	xor    %rsi,%r14
    4cbe:	4d 01 d4             	add    %r10,%r12
    4cc1:	4d 01 c7             	add    %r8,%r15
    4cc4:	4d 01 cd             	add    %r9,%r13
    4cc7:	4c 31 e7             	xor    %r12,%rdi
    4cca:	4c 31 fb             	xor    %r15,%rbx
    4ccd:	49 c1 ce 10          	ror    $0x10,%r14
    4cd1:	4c 89 ac 24 88 00 00 	mov    %r13,0x88(%rsp)
    4cd8:	00 
    4cd9:	4c 8b ac 24 a0 00 00 	mov    0xa0(%rsp),%r13
    4ce0:	00 
    4ce1:	48 d1 c3             	rol    %rbx
    4ce4:	48 d1 c7             	rol    %rdi
    4ce7:	4c 89 a4 24 90 00 00 	mov    %r12,0x90(%rsp)
    4cee:	00 
    4cef:	4c 8b a4 24 88 00 00 	mov    0x88(%rsp),%r12
    4cf6:	00 
    4cf7:	4d 01 f5             	add    %r14,%r13
    4cfa:	4c 31 e5             	xor    %r12,%rbp
    4cfd:	4c 8b 64 24 50       	mov    0x50(%rsp),%r12
    4d02:	4d 31 eb             	xor    %r13,%r11
    4d05:	48 d1 c5             	rol    %rbp
    4d08:	49 d1 c3             	rol    %r11
    4d0b:	4c 01 e1             	add    %r12,%rcx
    4d0e:	4c 8b 64 24 18       	mov    0x18(%rsp),%r12
    4d13:	48 01 e9             	add    %rbp,%rcx
    4d16:	4c 01 e2             	add    %r12,%rdx
    4d19:	4c 8b 64 24 38       	mov    0x38(%rsp),%r12
    4d1e:	49 31 ce             	xor    %rcx,%r14
    4d21:	48 01 da             	add    %rbx,%rdx
    4d24:	49 c1 c6 20          	rol    $0x20,%r14
    4d28:	4c 01 e0             	add    %r12,%rax
    4d2b:	4c 8b 64 24 48       	mov    0x48(%rsp),%r12
    4d30:	49 31 d2             	xor    %rdx,%r10
    4d33:	4d 01 f7             	add    %r14,%r15
    4d36:	4c 01 d8             	add    %r11,%rax
    4d39:	4c 01 e6             	add    %r12,%rsi
    4d3c:	4d 89 d4             	mov    %r10,%r12
    4d3f:	4d 89 ca             	mov    %r9,%r10
    4d42:	48 01 fe             	add    %rdi,%rsi
    4d45:	49 c1 c4 20          	rol    $0x20,%r12
    4d49:	49 31 c2             	xor    %rax,%r10
    4d4c:	49 31 f0             	xor    %rsi,%r8
    4d4f:	4c 89 a4 24 a0 00 00 	mov    %r12,0xa0(%rsp)
    4d56:	00 
    4d57:	49 c1 c2 20          	rol    $0x20,%r10
    4d5b:	4d 89 c1             	mov    %r8,%r9
    4d5e:	4f 8d 44 25 00       	lea    0x0(%r13,%r12,1),%r8
    4d63:	4c 8b ac 24 90 00 00 	mov    0x90(%rsp),%r13
    4d6a:	00 
    4d6b:	4c 8b a4 24 88 00 00 	mov    0x88(%rsp),%r12
    4d72:	00 
    4d73:	49 c1 c1 20          	rol    $0x20,%r9
    4d77:	4d 01 d5             	add    %r10,%r13
    4d7a:	4d 01 cc             	add    %r9,%r12
    4d7d:	4c 31 fd             	xor    %r15,%rbp
    4d80:	4c 31 c3             	xor    %r8,%rbx
    4d83:	48 c1 cd 18          	ror    $0x18,%rbp
    4d87:	4c 31 e7             	xor    %r12,%rdi
    4d8a:	4d 31 eb             	xor    %r13,%r11
    4d8d:	48 c1 cb 18          	ror    $0x18,%rbx
    4d91:	4c 89 a4 24 a8 00 00 	mov    %r12,0xa8(%rsp)
    4d98:	00 
    4d99:	49 c1 cb 18          	ror    $0x18,%r11
    4d9d:	48 c1 cf 18          	ror    $0x18,%rdi
    4da1:	4c 8b 64 24 70       	mov    0x70(%rsp),%r12
    4da6:	4c 01 e1             	add    %r12,%rcx
    4da9:	4c 8b 64 24 30       	mov    0x30(%rsp),%r12
    4dae:	48 01 e9             	add    %rbp,%rcx
    4db1:	4c 01 e2             	add    %r12,%rdx
    4db4:	4c 8b 64 24 08       	mov    0x8(%rsp),%r12
    4db9:	49 31 ce             	xor    %rcx,%r14
    4dbc:	49 c1 ce 10          	ror    $0x10,%r14
    4dc0:	48 01 da             	add    %rbx,%rdx
    4dc3:	4c 01 e0             	add    %r12,%rax
    4dc6:	4c 8b a4 24 a0 00 00 	mov    0xa0(%rsp),%r12
    4dcd:	00 
    4dce:	4c 89 b4 24 90 00 00 	mov    %r14,0x90(%rsp)
    4dd5:	00 
    4dd6:	4c 01 d8             	add    %r11,%rax
    4dd9:	48 89 84 24 88 00 00 	mov    %rax,0x88(%rsp)
    4de0:	00 
    4de1:	48 8b 44 24 20       	mov    0x20(%rsp),%rax
    4de6:	49 31 d4             	xor    %rdx,%r12
    4de9:	4c 8b b4 24 88 00 00 	mov    0x88(%rsp),%r14
    4df0:	00 
    4df1:	49 c1 cc 10          	ror    $0x10,%r12
    4df5:	48 01 c6             	add    %rax,%rsi
    4df8:	48 8b 84 24 90 00 00 	mov    0x90(%rsp),%rax
    4dff:	00 
    4e00:	4d 01 e0             	add    %r12,%r8
    4e03:	48 01 fe             	add    %rdi,%rsi
    4e06:	4d 31 f2             	xor    %r14,%r10
    4e09:	4d 89 c6             	mov    %r8,%r14
    4e0c:	49 01 c7             	add    %rax,%r15
    4e0f:	49 31 f1             	xor    %rsi,%r9
    4e12:	49 c1 ca 10          	ror    $0x10,%r10
    4e16:	4c 31 f3             	xor    %r14,%rbx
    4e19:	49 c1 c9 10          	ror    $0x10,%r9
    4e1d:	4d 01 d5             	add    %r10,%r13
    4e20:	4c 31 fd             	xor    %r15,%rbp
    4e23:	48 d1 c3             	rol    %rbx
    4e26:	48 8b 84 24 a8 00 00 	mov    0xa8(%rsp),%rax
    4e2d:	00 
    4e2e:	48 d1 c5             	rol    %rbp
    4e31:	4d 31 eb             	xor    %r13,%r11
    4e34:	4c 89 b4 24 a0 00 00 	mov    %r14,0xa0(%rsp)
    4e3b:	00 
    4e3c:	4c 8b b4 24 88 00 00 	mov    0x88(%rsp),%r14
    4e43:	00 
    4e44:	49 d1 c3             	rol    %r11
    4e47:	4e 8d 04 08          	lea    (%rax,%r9,1),%r8
    4e4b:	48 8b 44 24 38       	mov    0x38(%rsp),%rax
    4e50:	4c 31 c7             	xor    %r8,%rdi
    4e53:	48 01 c1             	add    %rax,%rcx
    4e56:	48 8b 44 24 18       	mov    0x18(%rsp),%rax
    4e5b:	48 d1 c7             	rol    %rdi
    4e5e:	48 01 f9             	add    %rdi,%rcx
    4e61:	48 01 c2             	add    %rax,%rdx
    4e64:	48 8b 44 24 68       	mov    0x68(%rsp),%rax
    4e69:	49 31 cc             	xor    %rcx,%r12
    4e6c:	48 01 ea             	add    %rbp,%rdx
    4e6f:	49 c1 c4 20          	rol    $0x20,%r12
    4e73:	49 01 c6             	add    %rax,%r14
    4e76:	49 31 d2             	xor    %rdx,%r10
    4e79:	4d 01 e5             	add    %r12,%r13
    4e7c:	4c 89 f0             	mov    %r14,%rax
    4e7f:	49 c1 c2 20          	rol    $0x20,%r10
    4e83:	4c 31 ef             	xor    %r13,%rdi
    4e86:	48 01 d8             	add    %rbx,%rax
    4e89:	4d 01 d0             	add    %r10,%r8
    4e8c:	48 c1 cf 18          	ror    $0x18,%rdi
    4e90:	49 89 c6             	mov    %rax,%r14
    4e93:	48 8b 44 24 58       	mov    0x58(%rsp),%rax
    4e98:	4c 31 c5             	xor    %r8,%rbp
    4e9b:	4c 89 b4 24 a8 00 00 	mov    %r14,0xa8(%rsp)
    4ea2:	00 
    4ea3:	4d 31 f1             	xor    %r14,%r9
    4ea6:	48 c1 cd 18          	ror    $0x18,%rbp
    4eaa:	4c 8b b4 24 90 00 00 	mov    0x90(%rsp),%r14
    4eb1:	00 
    4eb2:	48 01 c6             	add    %rax,%rsi
    4eb5:	48 8b 84 24 a0 00 00 	mov    0xa0(%rsp),%rax
    4ebc:	00 
    4ebd:	49 c1 c1 20          	rol    $0x20,%r9
    4ec1:	4c 01 de             	add    %r11,%rsi
    4ec4:	4d 01 cf             	add    %r9,%r15
    4ec7:	49 31 f6             	xor    %rsi,%r14
    4eca:	4c 31 fb             	xor    %r15,%rbx
    4ecd:	49 c1 c6 20          	rol    $0x20,%r14
    4ed1:	48 c1 cb 18          	ror    $0x18,%rbx
    4ed5:	4c 01 f0             	add    %r14,%rax
    4ed8:	48 89 84 24 a0 00 00 	mov    %rax,0xa0(%rsp)
    4edf:	00 
    4ee0:	49 31 c3             	xor    %rax,%r11
    4ee3:	48 8b 44 24 48       	mov    0x48(%rsp),%rax
    4ee8:	49 c1 cb 18          	ror    $0x18,%r11
    4eec:	48 01 c1             	add    %rax,%rcx
    4eef:	48 8b 44 24 08       	mov    0x8(%rsp),%rax
    4ef4:	48 01 f9             	add    %rdi,%rcx
    4ef7:	48 01 c2             	add    %rax,%rdx
    4efa:	48 8b 44 24 60       	mov    0x60(%rsp),%rax
    4eff:	49 31 cc             	xor    %rcx,%r12
    4f02:	48 01 ea             	add    %rbp,%rdx
    4f05:	49 c1 cc 10          	ror    $0x10,%r12
    4f09:	48 89 94 24 88 00 00 	mov    %rdx,0x88(%rsp)
    4f10:	00 
    4f11:	48 8b 94 24 a8 00 00 	mov    0xa8(%rsp),%rdx
    4f18:	00 
    4f19:	4d 01 e5             	add    %r12,%r13
    4f1c:	4c 89 ac 24 90 00 00 	mov    %r13,0x90(%rsp)
    4f23:	00 
    4f24:	4c 8b ac 24 a0 00 00 	mov    0xa0(%rsp),%r13
    4f2b:	00 
    4f2c:	48 01 c2             	add    %rax,%rdx
    4f2f:	48 89 d0             	mov    %rdx,%rax
    4f32:	48 8b 54 24 70       	mov    0x70(%rsp),%rdx
    4f37:	48 01 d8             	add    %rbx,%rax
    4f3a:	48 01 d6             	add    %rdx,%rsi
    4f3d:	48 8b 94 24 88 00 00 	mov    0x88(%rsp),%rdx
    4f44:	00 
    4f45:	49 31 c1             	xor    %rax,%r9
    4f48:	4c 01 de             	add    %r11,%rsi
    4f4b:	49 c1 c9 10          	ror    $0x10,%r9
    4f4f:	49 31 d2             	xor    %rdx,%r10
    4f52:	49 31 f6             	xor    %rsi,%r14
    4f55:	4d 01 cf             	add    %r9,%r15
    4f58:	49 c1 ca 10          	ror    $0x10,%r10
    4f5c:	49 c1 ce 10          	ror    $0x10,%r14
    4f60:	4c 31 fb             	xor    %r15,%rbx
    4f63:	4b 8d 14 10          	lea    (%r8,%r10,1),%rdx
    4f67:	4f 8d 44 35 00       	lea    0x0(%r13,%r14,1),%r8
    4f6c:	48 d1 c3             	rol    %rbx
    4f6f:	4c 8b ac 24 90 00 00 	mov    0x90(%rsp),%r13
    4f76:	00 
    4f77:	48 89 94 24 a0 00 00 	mov    %rdx,0xa0(%rsp)
    4f7e:	00 
    4f7f:	48 31 d5             	xor    %rdx,%rbp
    4f82:	4d 31 c3             	xor    %r8,%r11
    4f85:	48 8b 94 24 88 00 00 	mov    0x88(%rsp),%rdx
    4f8c:	00 
    4f8d:	48 d1 c5             	rol    %rbp
    4f90:	4c 31 ef             	xor    %r13,%rdi
    4f93:	4c 8b 6c 24 10       	mov    0x10(%rsp),%r13
    4f98:	49 d1 c3             	rol    %r11
    4f9b:	48 d1 c7             	rol    %rdi
    4f9e:	4c 01 e9             	add    %r13,%rcx
    4fa1:	4c 8b 6c 24 28       	mov    0x28(%rsp),%r13
    4fa6:	48 01 e9             	add    %rbp,%rcx
    4fa9:	4c 01 ea             	add    %r13,%rdx
    4fac:	4c 8b 6c 24 20       	mov    0x20(%rsp),%r13
    4fb1:	48 01 da             	add    %rbx,%rdx
    4fb4:	4c 01 e8             	add    %r13,%rax
    4fb7:	4c 8b 6c 24 78       	mov    0x78(%rsp),%r13
    4fbc:	4c 01 d8             	add    %r11,%rax
    4fbf:	4c 01 ee             	add    %r13,%rsi
    4fc2:	49 31 d4             	xor    %rdx,%r12
    4fc5:	49 31 ce             	xor    %rcx,%r14
    4fc8:	49 31 c2             	xor    %rax,%r10
    4fcb:	49 c1 c6 20          	rol    $0x20,%r14
    4fcf:	48 01 fe             	add    %rdi,%rsi
    4fd2:	4d 89 e5             	mov    %r12,%r13
    4fd5:	49 c1 c2 20          	rol    $0x20,%r10
    4fd9:	4c 8b a4 24 a0 00 00 	mov    0xa0(%rsp),%r12
    4fe0:	00 
    4fe1:	49 31 f1             	xor    %rsi,%r9
    4fe4:	49 c1 c5 20          	rol    $0x20,%r13
    4fe8:	4d 01 f7             	add    %r14,%r15
    4feb:	49 c1 c1 20          	rol    $0x20,%r9
    4fef:	4d 01 e8             	add    %r13,%r8
    4ff2:	4c 89 ac 24 88 00 00 	mov    %r13,0x88(%rsp)
    4ff9:	00 
    4ffa:	4c 31 fd             	xor    %r15,%rbp
    4ffd:	4d 01 cc             	add    %r9,%r12
    5000:	4c 8b ac 24 90 00 00 	mov    0x90(%rsp),%r13
    5007:	00 
    5008:	48 c1 cd 18          	ror    $0x18,%rbp
    500c:	4c 31 c3             	xor    %r8,%rbx
    500f:	4c 89 a4 24 90 00 00 	mov    %r12,0x90(%rsp)
    5016:	00 
    5017:	4c 31 e7             	xor    %r12,%rdi
    501a:	4c 8b 64 24 30       	mov    0x30(%rsp),%r12
    501f:	48 c1 cb 18          	ror    $0x18,%rbx
    5023:	4d 01 d5             	add    %r10,%r13
    5026:	48 c1 cf 18          	ror    $0x18,%rdi
    502a:	4c 01 e1             	add    %r12,%rcx
    502d:	4c 8b 64 24 50       	mov    0x50(%rsp),%r12
    5032:	4d 31 eb             	xor    %r13,%r11
    5035:	48 01 e9             	add    %rbp,%rcx
    5038:	49 c1 cb 18          	ror    $0x18,%r11
    503c:	4c 01 e2             	add    %r12,%rdx
    503f:	4c 8b 24 24          	mov    (%rsp),%r12
    5043:	49 31 ce             	xor    %rcx,%r14
    5046:	48 01 da             	add    %rbx,%rdx
    5049:	49 c1 ce 10          	ror    $0x10,%r14
    504d:	4c 01 e0             	add    %r12,%rax
    5050:	4c 8b 64 24 40       	mov    0x40(%rsp),%r12
    5055:	4c 01 d8             	add    %r11,%rax
    5058:	4c 01 e6             	add    %r12,%rsi
    505b:	4c 8b a4 24 88 00 00 	mov    0x88(%rsp),%r12
    5062:	00 
    5063:	48 01 fe             	add    %rdi,%rsi
    5066:	49 31 d4             	xor    %rdx,%r12
    5069:	49 31 f1             	xor    %rsi,%r9
    506c:	49 31 c2             	xor    %rax,%r10
    506f:	4d 01 f7             	add    %r14,%r15
    5072:	49 c1 cc 10          	ror    $0x10,%r12
    5076:	49 c1 c9 10          	ror    $0x10,%r9
    507a:	4c 31 fd             	xor    %r15,%rbp
    507d:	49 c1 ca 10          	ror    $0x10,%r10
    5081:	4d 01 e0             	add    %r12,%r8
    5084:	48 d1 c5             	rol    %rbp
    5087:	4c 89 84 24 88 00 00 	mov    %r8,0x88(%rsp)
    508e:	00 
    508f:	4c 8b 84 24 90 00 00 	mov    0x90(%rsp),%r8
    5096:	00 
    5097:	4d 01 d5             	add    %r10,%r13
    509a:	4d 31 eb             	xor    %r13,%r11
    509d:	4d 01 c8             	add    %r9,%r8
    50a0:	49 d1 c3             	rol    %r11
    50a3:	4c 89 84 24 90 00 00 	mov    %r8,0x90(%rsp)
    50aa:	00 
    50ab:	4c 8b 84 24 88 00 00 	mov    0x88(%rsp),%r8
    50b2:	00 
    50b3:	4c 31 c3             	xor    %r8,%rbx
    50b6:	4c 8b 84 24 90 00 00 	mov    0x90(%rsp),%r8
    50bd:	00 
    50be:	48 d1 c3             	rol    %rbx
    50c1:	4c 31 c7             	xor    %r8,%rdi
    50c4:	4c 8b 44 24 48       	mov    0x48(%rsp),%r8
    50c9:	48 d1 c7             	rol    %rdi
    50cc:	4c 01 c1             	add    %r8,%rcx
    50cf:	4c 8b 44 24 28       	mov    0x28(%rsp),%r8
    50d4:	48 01 f9             	add    %rdi,%rcx
    50d7:	4c 01 c2             	add    %r8,%rdx
    50da:	4c 8b 44 24 10       	mov    0x10(%rsp),%r8
    50df:	49 31 cc             	xor    %rcx,%r12
    50e2:	48 01 ea             	add    %rbp,%rdx
    50e5:	49 c1 c4 20          	rol    $0x20,%r12
    50e9:	4c 01 c0             	add    %r8,%rax
    50ec:	4c 8b 44 24 50       	mov    0x50(%rsp),%r8
    50f1:	49 31 d2             	xor    %rdx,%r10
    50f4:	48 01 d8             	add    %rbx,%rax
    50f7:	49 c1 c2 20          	rol    $0x20,%r10
    50fb:	4c 01 c6             	add    %r8,%rsi
    50fe:	49 31 c1             	xor    %rax,%r9
    5101:	48 89 84 24 a0 00 00 	mov    %rax,0xa0(%rsp)
    5108:	00 
    5109:	48 8b 84 24 88 00 00 	mov    0x88(%rsp),%rax
    5110:	00 
    5111:	4c 01 de             	add    %r11,%rsi
    5114:	49 c1 c1 20          	rol    $0x20,%r9
    5118:	4c 8b 84 24 90 00 00 	mov    0x90(%rsp),%r8
    511f:	00 
    5120:	49 31 f6             	xor    %rsi,%r14
    5123:	4d 01 e5             	add    %r12,%r13
    5126:	4d 01 cf             	add    %r9,%r15
    5129:	49 c1 c6 20          	rol    $0x20,%r14
    512d:	4d 01 d0             	add    %r10,%r8
    5130:	4c 31 ef             	xor    %r13,%rdi
    5133:	4c 31 fb             	xor    %r15,%rbx
    5136:	48 c1 cf 18          	ror    $0x18,%rdi
    513a:	4c 01 f0             	add    %r14,%rax
    513d:	4c 31 c5             	xor    %r8,%rbp
    5140:	48 c1 cb 18          	ror    $0x18,%rbx
    5144:	48 89 84 24 a8 00 00 	mov    %rax,0xa8(%rsp)
    514b:	00 
    514c:	49 31 c3             	xor    %rax,%r11
    514f:	48 8b 04 24          	mov    (%rsp),%rax
    5153:	48 c1 cd 18          	ror    $0x18,%rbp
    5157:	49 c1 cb 18          	ror    $0x18,%r11
    515b:	48 01 c1             	add    %rax,%rcx
    515e:	48 8b 44 24 38       	mov    0x38(%rsp),%rax
    5163:	4c 89 9c 24 88 00 00 	mov    %r11,0x88(%rsp)
    516a:	00 
    516b:	4c 8b 9c 24 a0 00 00 	mov    0xa0(%rsp),%r11
    5172:	00 
    5173:	48 01 f9             	add    %rdi,%rcx
    5176:	48 01 c2             	add    %rax,%rdx
    5179:	48 8b 44 24 20       	mov    0x20(%rsp),%rax
    517e:	49 31 cc             	xor    %rcx,%r12
    5181:	48 01 ea             	add    %rbp,%rdx
    5184:	49 c1 cc 10          	ror    $0x10,%r12
    5188:	49 01 c3             	add    %rax,%r11
    518b:	49 31 d2             	xor    %rdx,%r10
    518e:	4d 01 e5             	add    %r12,%r13
    5191:	4c 89 d8             	mov    %r11,%rax
    5194:	4c 8b 5c 24 78       	mov    0x78(%rsp),%r11
    5199:	49 c1 ca 10          	ror    $0x10,%r10
    519d:	48 01 d8             	add    %rbx,%rax
    51a0:	4c 01 de             	add    %r11,%rsi
    51a3:	4c 8b 9c 24 88 00 00 	mov    0x88(%rsp),%r11
    51aa:	00 
    51ab:	49 31 c1             	xor    %rax,%r9
    51ae:	49 c1 c9 10          	ror    $0x10,%r9
    51b2:	4c 01 de             	add    %r11,%rsi
    51b5:	4f 8d 1c 10          	lea    (%r8,%r10,1),%r11
    51b9:	4d 01 cf             	add    %r9,%r15
    51bc:	49 31 f6             	xor    %rsi,%r14
    51bf:	4c 89 9c 24 a0 00 00 	mov    %r11,0xa0(%rsp)
    51c6:	00 
    51c7:	49 c1 ce 10          	ror    $0x10,%r14
    51cb:	4c 89 b4 24 90 00 00 	mov    %r14,0x90(%rsp)
    51d2:	00 
    51d3:	4c 8b b4 24 a8 00 00 	mov    0xa8(%rsp),%r14
    51da:	00 
    51db:	4c 8b 84 24 90 00 00 	mov    0x90(%rsp),%r8
    51e2:	00 
    51e3:	4d 01 f0             	add    %r14,%r8
    51e6:	4c 8b 74 24 70       	mov    0x70(%rsp),%r14
    51eb:	4c 31 fb             	xor    %r15,%rbx
    51ee:	4c 31 dd             	xor    %r11,%rbp
    51f1:	48 d1 c3             	rol    %rbx
    51f4:	4c 8b 9c 24 88 00 00 	mov    0x88(%rsp),%r11
    51fb:	00 
    51fc:	4c 31 ef             	xor    %r13,%rdi
    51ff:	48 d1 c5             	rol    %rbp
    5202:	4c 01 f1             	add    %r14,%rcx
    5205:	4c 8b 74 24 58       	mov    0x58(%rsp),%r14
    520a:	48 d1 c7             	rol    %rdi
    520d:	4d 31 c3             	xor    %r8,%r11
    5210:	48 01 e9             	add    %rbp,%rcx
    5213:	4c 01 f2             	add    %r14,%rdx
    5216:	49 d1 c3             	rol    %r11
    5219:	48 01 da             	add    %rbx,%rdx
    521c:	48 89 94 24 88 00 00 	mov    %rdx,0x88(%rsp)
    5223:	00 
    5224:	48 8b 54 24 30       	mov    0x30(%rsp),%rdx
    5229:	4c 8b b4 24 90 00 00 	mov    0x90(%rsp),%r14
    5230:	00 
    5231:	48 01 d0             	add    %rdx,%rax
    5234:	48 8b 54 24 18       	mov    0x18(%rsp),%rdx
    5239:	4c 01 d8             	add    %r11,%rax
    523c:	49 31 ce             	xor    %rcx,%r14
    523f:	48 01 d6             	add    %rdx,%rsi
    5242:	48 8b 94 24 88 00 00 	mov    0x88(%rsp),%rdx
    5249:	00 
    524a:	49 c1 c6 20          	rol    $0x20,%r14
    524e:	49 31 c2             	xor    %rax,%r10
    5251:	48 01 fe             	add    %rdi,%rsi
    5254:	4d 01 f7             	add    %r14,%r15
    5257:	49 c1 c2 20          	rol    $0x20,%r10
    525b:	49 31 d4             	xor    %rdx,%r12
    525e:	49 31 f1             	xor    %rsi,%r9
    5261:	4d 01 d5             	add    %r10,%r13
    5264:	4c 31 fd             	xor    %r15,%rbp
    5267:	48 8b 94 24 a0 00 00 	mov    0xa0(%rsp),%rdx
    526e:	00 
    526f:	49 c1 c4 20          	rol    $0x20,%r12
    5273:	49 c1 c1 20          	rol    $0x20,%r9
    5277:	4d 01 e0             	add    %r12,%r8
    527a:	48 c1 cd 18          	ror    $0x18,%rbp
    527e:	4c 01 ca             	add    %r9,%rdx
    5281:	4c 31 c3             	xor    %r8,%rbx
    5284:	48 c1 cb 18          	ror    $0x18,%rbx
    5288:	48 89 94 24 a0 00 00 	mov    %rdx,0xa0(%rsp)
    528f:	00 
    5290:	4d 31 eb             	xor    %r13,%r11
    5293:	48 31 d7             	xor    %rdx,%rdi
    5296:	48 8b 54 24 08       	mov    0x8(%rsp),%rdx
    529b:	49 c1 cb 18          	ror    $0x18,%r11
    529f:	48 c1 cf 18          	ror    $0x18,%rdi
    52a3:	4c 89 9c 24 90 00 00 	mov    %r11,0x90(%rsp)
    52aa:	00 
    52ab:	4c 8b 5c 24 60       	mov    0x60(%rsp),%r11
    52b0:	48 01 d1             	add    %rdx,%rcx
    52b3:	48 8b 94 24 88 00 00 	mov    0x88(%rsp),%rdx
    52ba:	00 
    52bb:	48 01 e9             	add    %rbp,%rcx
    52be:	4c 01 da             	add    %r11,%rdx
    52c1:	4c 8b 5c 24 40       	mov    0x40(%rsp),%r11
    52c6:	49 31 ce             	xor    %rcx,%r14
    52c9:	48 01 da             	add    %rbx,%rdx
    52cc:	49 c1 ce 10          	ror    $0x10,%r14
    52d0:	4c 01 d8             	add    %r11,%rax
    52d3:	4c 8b 9c 24 90 00 00 	mov    0x90(%rsp),%r11
    52da:	00 
    52db:	49 31 d4             	xor    %rdx,%r12
    52de:	4d 01 f7             	add    %r14,%r15
    52e1:	49 c1 cc 10          	ror    $0x10,%r12
    52e5:	4c 31 fd             	xor    %r15,%rbp
    52e8:	4c 01 d8             	add    %r11,%rax
    52eb:	4c 8b 5c 24 68       	mov    0x68(%rsp),%r11
    52f0:	48 d1 c5             	rol    %rbp
    52f3:	49 31 c2             	xor    %rax,%r10
    52f6:	4c 01 de             	add    %r11,%rsi
    52f9:	49 c1 ca 10          	ror    $0x10,%r10
    52fd:	48 01 fe             	add    %rdi,%rsi
    5300:	4d 01 d5             	add    %r10,%r13
    5303:	49 31 f1             	xor    %rsi,%r9
    5306:	49 c1 c9 10          	ror    $0x10,%r9
    530a:	4c 89 8c 24 88 00 00 	mov    %r9,0x88(%rsp)
    5311:	00 
    5312:	4f 8d 0c 20          	lea    (%r8,%r12,1),%r9
    5316:	4c 8b 84 24 88 00 00 	mov    0x88(%rsp),%r8
    531d:	00 
    531e:	4d 89 cb             	mov    %r9,%r11
    5321:	4c 8b 8c 24 a0 00 00 	mov    0xa0(%rsp),%r9
    5328:	00 
    5329:	4c 31 db             	xor    %r11,%rbx
    532c:	4c 89 9c 24 a0 00 00 	mov    %r11,0xa0(%rsp)
    5333:	00 
    5334:	4c 8b 9c 24 90 00 00 	mov    0x90(%rsp),%r11
    533b:	00 
    533c:	4d 01 c8             	add    %r9,%r8
    533f:	4c 8b 4c 24 10       	mov    0x10(%rsp),%r9
    5344:	48 d1 c3             	rol    %rbx
    5347:	4d 31 eb             	xor    %r13,%r11
    534a:	4c 31 c7             	xor    %r8,%rdi
    534d:	49 d1 c3             	rol    %r11
    5350:	48 d1 c7             	rol    %rdi
    5353:	4c 01 c9             	add    %r9,%rcx
    5356:	4c 8b 4c 24 30       	mov    0x30(%rsp),%r9
    535b:	48 01 f9             	add    %rdi,%rcx
    535e:	4c 01 ca             	add    %r9,%rdx
    5361:	4c 8b 4c 24 40       	mov    0x40(%rsp),%r9
    5366:	49 31 cc             	xor    %rcx,%r12
    5369:	48 01 ea             	add    %rbp,%rdx
    536c:	49 c1 c4 20          	rol    $0x20,%r12
    5370:	48 89 94 24 90 00 00 	mov    %rdx,0x90(%rsp)
    5377:	00 
    5378:	48 8b 14 24          	mov    (%rsp),%rdx
    537c:	4c 01 ce             	add    %r9,%rsi
    537f:	4d 01 e5             	add    %r12,%r13
    5382:	4c 01 de             	add    %r11,%rsi
    5385:	4c 8b 8c 24 88 00 00 	mov    0x88(%rsp),%r9
    538c:	00 
    538d:	4c 31 ef             	xor    %r13,%rdi
    5390:	48 01 d0             	add    %rdx,%rax
    5393:	48 8b 94 24 90 00 00 	mov    0x90(%rsp),%rdx
    539a:	00 
    539b:	49 31 f6             	xor    %rsi,%r14
    539e:	48 c1 cf 18          	ror    $0x18,%rdi
    53a2:	49 c1 c6 20          	rol    $0x20,%r14
    53a6:	48 01 d8             	add    %rbx,%rax
    53a9:	49 31 d2             	xor    %rdx,%r10
    53ac:	48 8b 94 24 a0 00 00 	mov    0xa0(%rsp),%rdx
    53b3:	00 
    53b4:	49 31 c1             	xor    %rax,%r9
    53b7:	49 c1 c2 20          	rol    $0x20,%r10
    53bb:	49 c1 c1 20          	rol    $0x20,%r9
    53bf:	4c 01 f2             	add    %r14,%rdx
    53c2:	4d 01 d0             	add    %r10,%r8
    53c5:	4d 01 cf             	add    %r9,%r15
    53c8:	49 31 d3             	xor    %rdx,%r11
    53cb:	48 89 94 24 a0 00 00 	mov    %rdx,0xa0(%rsp)
    53d2:	00 
    53d3:	4c 31 c5             	xor    %r8,%rbp
    53d6:	4c 31 fb             	xor    %r15,%rbx
    53d9:	49 c1 cb 18          	ror    $0x18,%r11
    53dd:	48 8b 94 24 90 00 00 	mov    0x90(%rsp),%rdx
    53e4:	00 
    53e5:	48 c1 cd 18          	ror    $0x18,%rbp
    53e9:	4c 89 9c 24 88 00 00 	mov    %r11,0x88(%rsp)
    53f0:	00 
    53f1:	4c 8b 5c 24 60       	mov    0x60(%rsp),%r11
    53f6:	48 c1 cb 18          	ror    $0x18,%rbx
    53fa:	4c 01 d9             	add    %r11,%rcx
    53fd:	4c 8b 5c 24 50       	mov    0x50(%rsp),%r11
    5402:	48 01 f9             	add    %rdi,%rcx
    5405:	4c 01 da             	add    %r11,%rdx
    5408:	4c 8b 5c 24 58       	mov    0x58(%rsp),%r11
    540d:	48 01 ea             	add    %rbp,%rdx
    5410:	4c 01 d8             	add    %r11,%rax
    5413:	49 31 cc             	xor    %rcx,%r12
    5416:	4c 8b 5c 24 18       	mov    0x18(%rsp),%r11
    541b:	49 31 d2             	xor    %rdx,%r10
    541e:	49 c1 cc 10          	ror    $0x10,%r12
    5422:	48 01 d8             	add    %rbx,%rax
    5425:	49 c1 ca 10          	ror    $0x10,%r10
    5429:	4d 01 e5             	add    %r12,%r13
    542c:	4c 01 de             	add    %r11,%rsi
    542f:	4d 01 d0             	add    %r10,%r8
    5432:	49 31 c1             	xor    %rax,%r9
    5435:	4c 31 ef             	xor    %r13,%rdi
    5438:	4c 8b 9c 24 88 00 00 	mov    0x88(%rsp),%r11
    543f:	00 
    5440:	49 c1 c9 10          	ror    $0x10,%r9
    5444:	48 d1 c7             	rol    %rdi
    5447:	4d 01 cf             	add    %r9,%r15
    544a:	48 89 bc 24 90 00 00 	mov    %rdi,0x90(%rsp)
    5451:	00 
    5452:	48 8b 7c 24 20       	mov    0x20(%rsp),%rdi
    5457:	4c 01 de             	add    %r11,%rsi
    545a:	4d 89 c3             	mov    %r8,%r11
    545d:	49 31 f6             	xor    %rsi,%r14
    5460:	4c 8b 84 24 a0 00 00 	mov    0xa0(%rsp),%r8
    5467:	00 
    5468:	4c 31 dd             	xor    %r11,%rbp
    546b:	4c 31 fb             	xor    %r15,%rbx
    546e:	48 01 f9             	add    %rdi,%rcx
    5471:	48 8b 7c 24 38       	mov    0x38(%rsp),%rdi
    5476:	4c 89 9c 24 a0 00 00 	mov    %r11,0xa0(%rsp)
    547d:	00 
    547e:	49 c1 ce 10          	ror    $0x10,%r14
    5482:	4c 8b 9c 24 88 00 00 	mov    0x88(%rsp),%r11
    5489:	00 
    548a:	48 d1 c5             	rol    %rbp
    548d:	4d 01 f0             	add    %r14,%r8
    5490:	48 d1 c3             	rol    %rbx
    5493:	48 01 fa             	add    %rdi,%rdx
    5496:	48 8b 7c 24 78       	mov    0x78(%rsp),%rdi
    549b:	48 01 e9             	add    %rbp,%rcx
    549e:	4d 31 c3             	xor    %r8,%r11
    54a1:	48 01 da             	add    %rbx,%rdx
    54a4:	48 01 f8             	add    %rdi,%rax
    54a7:	48 8b 7c 24 08       	mov    0x8(%rsp),%rdi
    54ac:	49 d1 c3             	rol    %r11
    54af:	4c 01 d8             	add    %r11,%rax
    54b2:	48 01 fe             	add    %rdi,%rsi
    54b5:	48 8b bc 24 90 00 00 	mov    0x90(%rsp),%rdi
    54bc:	00 
    54bd:	48 01 fe             	add    %rdi,%rsi
    54c0:	49 31 ce             	xor    %rcx,%r14
    54c3:	49 31 d4             	xor    %rdx,%r12
    54c6:	49 31 c2             	xor    %rax,%r10
    54c9:	49 c1 c4 20          	rol    $0x20,%r12
    54cd:	48 8b bc 24 a0 00 00 	mov    0xa0(%rsp),%rdi
    54d4:	00 
    54d5:	49 31 f1             	xor    %rsi,%r9
    54d8:	49 c1 c6 20          	rol    $0x20,%r14
    54dc:	49 c1 c1 20          	rol    $0x20,%r9
    54e0:	4d 01 e0             	add    %r12,%r8
    54e3:	4d 01 f7             	add    %r14,%r15
    54e6:	49 c1 c2 20          	rol    $0x20,%r10
    54ea:	4c 31 c3             	xor    %r8,%rbx
    54ed:	4c 01 cf             	add    %r9,%rdi
    54f0:	4c 31 fd             	xor    %r15,%rbp
    54f3:	4d 01 d5             	add    %r10,%r13
    54f6:	48 c1 cb 18          	ror    $0x18,%rbx
    54fa:	48 89 bc 24 a0 00 00 	mov    %rdi,0xa0(%rsp)
    5501:	00 
    5502:	48 c1 cd 18          	ror    $0x18,%rbp
    5506:	4d 31 eb             	xor    %r13,%r11
    5509:	48 89 9c 24 a8 00 00 	mov    %rbx,0xa8(%rsp)
    5510:	00 
    5511:	48 89 fb             	mov    %rdi,%rbx
    5514:	49 c1 cb 18          	ror    $0x18,%r11
    5518:	48 8b bc 24 90 00 00 	mov    0x90(%rsp),%rdi
    551f:	00 
    5520:	48 31 df             	xor    %rbx,%rdi
    5523:	48 8b 5c 24 68       	mov    0x68(%rsp),%rbx
    5528:	48 c1 cf 18          	ror    $0x18,%rdi
    552c:	48 01 d9             	add    %rbx,%rcx
    552f:	48 8b 5c 24 28       	mov    0x28(%rsp),%rbx
    5534:	48 01 e9             	add    %rbp,%rcx
    5537:	48 01 da             	add    %rbx,%rdx
    553a:	48 8b 5c 24 70       	mov    0x70(%rsp),%rbx
    553f:	48 89 8c 24 88 00 00 	mov    %rcx,0x88(%rsp)
    5546:	00 
    5547:	48 8b 8c 24 a8 00 00 	mov    0xa8(%rsp),%rcx
    554e:	00 
    554f:	48 01 d8             	add    %rbx,%rax
    5552:	48 8b 5c 24 48       	mov    0x48(%rsp),%rbx
    5557:	48 01 ca             	add    %rcx,%rdx
    555a:	4c 01 d8             	add    %r11,%rax
    555d:	48 01 de             	add    %rbx,%rsi
    5560:	48 8b 9c 24 88 00 00 	mov    0x88(%rsp),%rbx
    5567:	00 
    5568:	49 31 d4             	xor    %rdx,%r12
    556b:	48 01 fe             	add    %rdi,%rsi
    556e:	49 c1 cc 10          	ror    $0x10,%r12
    5572:	49 31 de             	xor    %rbx,%r14
    5575:	49 c1 ce 10          	ror    $0x10,%r14
    5579:	49 31 c2             	xor    %rax,%r10
    557c:	4d 01 e0             	add    %r12,%r8
    557f:	49 31 f1             	xor    %rsi,%r9
    5582:	49 c1 ca 10          	ror    $0x10,%r10
    5586:	4c 89 c3             	mov    %r8,%rbx
    5589:	49 c1 c9 10          	ror    $0x10,%r9
    558d:	4d 01 f7             	add    %r14,%r15
    5590:	4d 01 d5             	add    %r10,%r13
    5593:	48 31 d9             	xor    %rbx,%rcx
    5596:	4c 8b 84 24 a0 00 00 	mov    0xa0(%rsp),%r8
    559d:	00 
    559e:	4c 31 fd             	xor    %r15,%rbp
    55a1:	4d 31 eb             	xor    %r13,%r11
    55a4:	48 89 9c 24 a0 00 00 	mov    %rbx,0xa0(%rsp)
    55ab:	00 
    55ac:	48 89 cb             	mov    %rcx,%rbx
    55af:	48 8b 8c 24 88 00 00 	mov    0x88(%rsp),%rcx
    55b6:	00 
    55b7:	49 d1 c3             	rol    %r11
    55ba:	4d 01 c8             	add    %r9,%r8
    55bd:	48 d1 c5             	rol    %rbp
    55c0:	4c 89 9c 24 90 00 00 	mov    %r11,0x90(%rsp)
    55c7:	00 
    55c8:	4c 8b 5c 24 60       	mov    0x60(%rsp),%r11
    55cd:	4c 31 c7             	xor    %r8,%rdi
    55d0:	48 d1 c3             	rol    %rbx
    55d3:	48 d1 c7             	rol    %rdi
    55d6:	4c 01 d9             	add    %r11,%rcx
    55d9:	4c 8b 5c 24 08       	mov    0x8(%rsp),%r11
    55de:	48 01 f9             	add    %rdi,%rcx
    55e1:	4c 01 da             	add    %r11,%rdx
    55e4:	4c 8b 5c 24 70       	mov    0x70(%rsp),%r11
    55e9:	49 31 cc             	xor    %rcx,%r12
    55ec:	48 01 ea             	add    %rbp,%rdx
    55ef:	49 c1 c4 20          	rol    $0x20,%r12
    55f3:	4c 01 d8             	add    %r11,%rax
    55f6:	4c 8b 5c 24 20       	mov    0x20(%rsp),%r11
    55fb:	49 31 d2             	xor    %rdx,%r10
    55fe:	48 01 d8             	add    %rbx,%rax
    5601:	49 c1 c2 20          	rol    $0x20,%r10
    5605:	4c 01 de             	add    %r11,%rsi
    5608:	4c 8b 9c 24 90 00 00 	mov    0x90(%rsp),%r11
    560f:	00 
    5610:	49 31 c1             	xor    %rax,%r9
    5613:	49 c1 c1 20          	rol    $0x20,%r9
    5617:	4c 01 de             	add    %r11,%rsi
    561a:	4c 8b 9c 24 a0 00 00 	mov    0xa0(%rsp),%r11
    5621:	00 
    5622:	49 31 f6             	xor    %rsi,%r14
    5625:	49 c1 c6 20          	rol    $0x20,%r14
    5629:	4d 01 e5             	add    %r12,%r13
    562c:	4d 01 d0             	add    %r10,%r8
    562f:	4d 01 cf             	add    %r9,%r15
    5632:	4c 31 c5             	xor    %r8,%rbp
    5635:	4d 01 f3             	add    %r14,%r11
    5638:	4c 31 ef             	xor    %r13,%rdi
    563b:	4c 31 fb             	xor    %r15,%rbx
    563e:	48 c1 cd 18          	ror    $0x18,%rbp
    5642:	48 c1 cf 18          	ror    $0x18,%rdi
    5646:	48 89 ac 24 88 00 00 	mov    %rbp,0x88(%rsp)
    564d:	00 
    564e:	4c 89 dd             	mov    %r11,%rbp
    5651:	48 c1 cb 18          	ror    $0x18,%rbx
    5655:	4c 89 9c 24 a0 00 00 	mov    %r11,0xa0(%rsp)
    565c:	00 
    565d:	4c 8b 9c 24 90 00 00 	mov    0x90(%rsp),%r11
    5664:	00 
    5665:	49 31 eb             	xor    %rbp,%r11
    5668:	48 8b 6c 24 28       	mov    0x28(%rsp),%rbp
    566d:	49 c1 cb 18          	ror    $0x18,%r11
    5671:	48 01 e9             	add    %rbp,%rcx
    5674:	48 8b 6c 24 78       	mov    0x78(%rsp),%rbp
    5679:	48 01 f9             	add    %rdi,%rcx
    567c:	48 01 ea             	add    %rbp,%rdx
    567f:	48 8b ac 24 88 00 00 	mov    0x88(%rsp),%rbp
    5686:	00 
    5687:	49 31 cc             	xor    %rcx,%r12
    568a:	49 c1 cc 10          	ror    $0x10,%r12
    568e:	48 01 ea             	add    %rbp,%rdx
    5691:	48 8b 6c 24 68       	mov    0x68(%rsp),%rbp
    5696:	4d 01 e5             	add    %r12,%r13
    5699:	49 31 d2             	xor    %rdx,%r10
    569c:	48 01 e8             	add    %rbp,%rax
    569f:	48 8b 6c 24 50       	mov    0x50(%rsp),%rbp
    56a4:	49 c1 ca 10          	ror    $0x10,%r10
    56a8:	48 01 d8             	add    %rbx,%rax
    56ab:	4d 01 d0             	add    %r10,%r8
    56ae:	48 01 ee             	add    %rbp,%rsi
    56b1:	49 31 c1             	xor    %rax,%r9
    56b4:	4c 89 c5             	mov    %r8,%rbp
    56b7:	4c 8b 84 24 a0 00 00 	mov    0xa0(%rsp),%r8
    56be:	00 
    56bf:	4c 01 de             	add    %r11,%rsi
    56c2:	49 c1 c9 10          	ror    $0x10,%r9
    56c6:	48 89 ac 24 a0 00 00 	mov    %rbp,0xa0(%rsp)
    56cd:	00 
    56ce:	49 31 f6             	xor    %rsi,%r14
    56d1:	4d 01 cf             	add    %r9,%r15
    56d4:	49 c1 ce 10          	ror    $0x10,%r14
    56d8:	4d 01 f0             	add    %r14,%r8
    56db:	4c 31 ef             	xor    %r13,%rdi
    56de:	4c 31 fb             	xor    %r15,%rbx
    56e1:	48 d1 c7             	rol    %rdi
    56e4:	48 d1 c3             	rol    %rbx
    56e7:	4d 31 c3             	xor    %r8,%r11
    56ea:	48 89 bc 24 90 00 00 	mov    %rdi,0x90(%rsp)
    56f1:	00 
    56f2:	48 89 ef             	mov    %rbp,%rdi
    56f5:	49 d1 c3             	rol    %r11
    56f8:	48 8b ac 24 88 00 00 	mov    0x88(%rsp),%rbp
    56ff:	00 
    5700:	48 31 fd             	xor    %rdi,%rbp
    5703:	48 8b 3c 24          	mov    (%rsp),%rdi
    5707:	48 d1 c5             	rol    %rbp
    570a:	48 01 f9             	add    %rdi,%rcx
    570d:	48 8b 7c 24 30       	mov    0x30(%rsp),%rdi
    5712:	48 01 e9             	add    %rbp,%rcx
    5715:	48 01 fa             	add    %rdi,%rdx
    5718:	48 8b 7c 24 48       	mov    0x48(%rsp),%rdi
    571d:	49 31 ce             	xor    %rcx,%r14
    5720:	48 01 da             	add    %rbx,%rdx
    5723:	49 c1 c6 20          	rol    $0x20,%r14
    5727:	48 01 f8             	add    %rdi,%rax
    572a:	48 8b 7c 24 40       	mov    0x40(%rsp),%rdi
    572f:	49 31 d4             	xor    %rdx,%r12
    5732:	4d 01 f7             	add    %r14,%r15
    5735:	49 c1 c4 20          	rol    $0x20,%r12
    5739:	4c 01 d8             	add    %r11,%rax
    573c:	4c 31 fd             	xor    %r15,%rbp
    573f:	48 01 fe             	add    %rdi,%rsi
    5742:	4d 01 e0             	add    %r12,%r8
    5745:	49 31 c2             	xor    %rax,%r10
    5748:	48 c1 cd 18          	ror    $0x18,%rbp
    574c:	48 8b bc 24 90 00 00 	mov    0x90(%rsp),%rdi
    5753:	00 
    5754:	4c 31 c3             	xor    %r8,%rbx
    5757:	49 c1 c2 20          	rol    $0x20,%r10
    575b:	48 c1 cb 18          	ror    $0x18,%rbx
    575f:	4d 01 d5             	add    %r10,%r13
    5762:	48 01 fe             	add    %rdi,%rsi
    5765:	48 8b bc 24 a0 00 00 	mov    0xa0(%rsp),%rdi
    576c:	00 
    576d:	48 89 9c 24 88 00 00 	mov    %rbx,0x88(%rsp)
    5774:	00 
    5775:	49 31 f1             	xor    %rsi,%r9
    5778:	49 c1 c1 20          	rol    $0x20,%r9
    577c:	4c 01 cf             	add    %r9,%rdi
    577f:	4d 31 eb             	xor    %r13,%r11
    5782:	48 89 bc 24 a0 00 00 	mov    %rdi,0xa0(%rsp)
    5789:	00 
    578a:	48 89 fb             	mov    %rdi,%rbx
    578d:	49 c1 cb 18          	ror    $0x18,%r11
    5791:	48 8b bc 24 90 00 00 	mov    0x90(%rsp),%rdi
    5798:	00 
    5799:	48 31 df             	xor    %rbx,%rdi
    579c:	48 8b 5c 24 38       	mov    0x38(%rsp),%rbx
    57a1:	48 c1 cf 18          	ror    $0x18,%rdi
    57a5:	48 01 d9             	add    %rbx,%rcx
    57a8:	48 8b 5c 24 18       	mov    0x18(%rsp),%rbx
    57ad:	48 01 e9             	add    %rbp,%rcx
    57b0:	48 01 da             	add    %rbx,%rdx
    57b3:	48 8b 9c 24 88 00 00 	mov    0x88(%rsp),%rbx
    57ba:	00 
    57bb:	49 31 ce             	xor    %rcx,%r14
    57be:	49 c1 ce 10          	ror    $0x10,%r14
    57c2:	48 01 da             	add    %rbx,%rdx
    57c5:	48 8b 5c 24 10       	mov    0x10(%rsp),%rbx
    57ca:	4d 01 f7             	add    %r14,%r15
    57cd:	49 31 d4             	xor    %rdx,%r12
    57d0:	4c 31 fd             	xor    %r15,%rbp
    57d3:	49 c1 cc 10          	ror    $0x10,%r12
    57d7:	48 01 d8             	add    %rbx,%rax
    57da:	48 8b 5c 24 58       	mov    0x58(%rsp),%rbx
    57df:	48 d1 c5             	rol    %rbp
    57e2:	4c 01 d8             	add    %r11,%rax
    57e5:	4d 01 e0             	add    %r12,%r8
    57e8:	48 01 de             	add    %rbx,%rsi
    57eb:	49 31 c2             	xor    %rax,%r10
    57ee:	4c 89 c3             	mov    %r8,%rbx
    57f1:	4c 8b 84 24 a0 00 00 	mov    0xa0(%rsp),%r8
    57f8:	00 
    57f9:	48 01 fe             	add    %rdi,%rsi
    57fc:	49 c1 ca 10          	ror    $0x10,%r10
    5800:	48 89 9c 24 90 00 00 	mov    %rbx,0x90(%rsp)
    5807:	00 
    5808:	49 31 f1             	xor    %rsi,%r9
    580b:	4d 01 d5             	add    %r10,%r13
    580e:	49 c1 c9 10          	ror    $0x10,%r9
    5812:	4d 31 eb             	xor    %r13,%r11
    5815:	4d 01 c8             	add    %r9,%r8
    5818:	49 d1 c3             	rol    %r11
    581b:	4c 89 84 24 a0 00 00 	mov    %r8,0xa0(%rsp)
    5822:	00 
    5823:	49 89 d8             	mov    %rbx,%r8
    5826:	48 8b 9c 24 88 00 00 	mov    0x88(%rsp),%rbx
    582d:	00 
    582e:	4c 89 9c 24 88 00 00 	mov    %r11,0x88(%rsp)
    5835:	00 
    5836:	4c 8b 9c 24 a0 00 00 	mov    0xa0(%rsp),%r11
    583d:	00 
    583e:	4c 31 c3             	xor    %r8,%rbx
    5841:	4c 8b 44 24 68       	mov    0x68(%rsp),%r8
    5846:	4c 31 df             	xor    %r11,%rdi
    5849:	48 d1 c3             	rol    %rbx
    584c:	48 d1 c7             	rol    %rdi
    584f:	4c 01 c1             	add    %r8,%rcx
    5852:	4c 8b 44 24 38       	mov    0x38(%rsp),%r8
    5857:	48 01 f9             	add    %rdi,%rcx
    585a:	4c 01 c2             	add    %r8,%rdx
    585d:	4c 8b 44 24 60       	mov    0x60(%rsp),%r8
    5862:	49 31 cc             	xor    %rcx,%r12
    5865:	48 01 ea             	add    %rbp,%rdx
    5868:	49 c1 c4 20          	rol    $0x20,%r12
    586c:	4c 01 c0             	add    %r8,%rax
    586f:	4c 8b 44 24 18       	mov    0x18(%rsp),%r8
    5874:	49 31 d2             	xor    %rdx,%r10
    5877:	4d 01 e5             	add    %r12,%r13
    587a:	49 c1 c2 20          	rol    $0x20,%r10
    587e:	48 01 d8             	add    %rbx,%rax
    5881:	4c 31 ef             	xor    %r13,%rdi
    5884:	4c 01 c6             	add    %r8,%rsi
    5887:	4d 01 d3             	add    %r10,%r11
    588a:	49 31 c1             	xor    %rax,%r9
    588d:	48 c1 cf 18          	ror    $0x18,%rdi
    5891:	4c 8b 84 24 88 00 00 	mov    0x88(%rsp),%r8
    5898:	00 
    5899:	4c 31 dd             	xor    %r11,%rbp
    589c:	49 c1 c1 20          	rol    $0x20,%r9
    58a0:	4d 01 cf             	add    %r9,%r15
    58a3:	48 c1 cd 18          	ror    $0x18,%rbp
    58a7:	4c 01 c6             	add    %r8,%rsi
    58aa:	4c 8b 84 24 90 00 00 	mov    0x90(%rsp),%r8
    58b1:	00 
    58b2:	4c 31 fb             	xor    %r15,%rbx
    58b5:	4c 89 9c 24 90 00 00 	mov    %r11,0x90(%rsp)
    58bc:	00 
    58bd:	49 31 f6             	xor    %rsi,%r14
    58c0:	4c 8b 9c 24 88 00 00 	mov    0x88(%rsp),%r11
    58c7:	00 
    58c8:	48 c1 cb 18          	ror    $0x18,%rbx
    58cc:	49 c1 c6 20          	rol    $0x20,%r14
    58d0:	4d 01 f0             	add    %r14,%r8
    58d3:	4c 89 84 24 a0 00 00 	mov    %r8,0xa0(%rsp)
    58da:	00 
    58db:	4d 31 c3             	xor    %r8,%r11
    58de:	4c 8b 44 24 58       	mov    0x58(%rsp),%r8
    58e3:	49 c1 cb 18          	ror    $0x18,%r11
    58e7:	4c 01 c1             	add    %r8,%rcx
    58ea:	4c 8b 44 24 70       	mov    0x70(%rsp),%r8
    58ef:	48 01 f9             	add    %rdi,%rcx
    58f2:	4c 01 c2             	add    %r8,%rdx
    58f5:	4c 8b 44 24 08       	mov    0x8(%rsp),%r8
    58fa:	48 01 ea             	add    %rbp,%rdx
    58fd:	4c 01 c0             	add    %r8,%rax
    5900:	49 31 d2             	xor    %rdx,%r10
    5903:	49 31 cc             	xor    %rcx,%r12
    5906:	4c 8d 04 18          	lea    (%rax,%rbx,1),%r8
    590a:	48 8b 44 24 48       	mov    0x48(%rsp),%rax
    590f:	49 c1 ca 10          	ror    $0x10,%r10
    5913:	49 c1 cc 10          	ror    $0x10,%r12
    5917:	4c 89 84 24 a8 00 00 	mov    %r8,0xa8(%rsp)
    591e:	00 
    591f:	4d 31 c1             	xor    %r8,%r9
    5922:	4d 01 e5             	add    %r12,%r13
    5925:	48 01 c6             	add    %rax,%rsi
    5928:	48 8b 84 24 90 00 00 	mov    0x90(%rsp),%rax
    592f:	00 
    5930:	49 c1 c9 10          	ror    $0x10,%r9
    5934:	4c 31 ef             	xor    %r13,%rdi
    5937:	4c 01 de             	add    %r11,%rsi
    593a:	4d 01 cf             	add    %r9,%r15
    593d:	48 d1 c7             	rol    %rdi
    5940:	4c 01 d0             	add    %r10,%rax
    5943:	49 31 f6             	xor    %rsi,%r14
    5946:	4c 31 fb             	xor    %r15,%rbx
    5949:	49 c1 ce 10          	ror    $0x10,%r14
    594d:	49 89 c0             	mov    %rax,%r8
    5950:	48 8b 84 24 a0 00 00 	mov    0xa0(%rsp),%rax
    5957:	00 
    5958:	48 d1 c3             	rol    %rbx
    595b:	4c 89 84 24 90 00 00 	mov    %r8,0x90(%rsp)
    5962:	00 
    5963:	4c 31 c5             	xor    %r8,%rbp
    5966:	4c 8b 84 24 a8 00 00 	mov    0xa8(%rsp),%r8
    596d:	00 
    596e:	4c 01 f0             	add    %r14,%rax
    5971:	48 d1 c5             	rol    %rbp
    5974:	48 89 84 24 88 00 00 	mov    %rax,0x88(%rsp)
    597b:	00 
    597c:	48 8b 84 24 88 00 00 	mov    0x88(%rsp),%rax
    5983:	00 
    5984:	49 31 c3             	xor    %rax,%r11
    5987:	48 8b 44 24 28       	mov    0x28(%rsp),%rax
    598c:	49 d1 c3             	rol    %r11
    598f:	48 01 c1             	add    %rax,%rcx
    5992:	48 8b 44 24 78       	mov    0x78(%rsp),%rax
    5997:	48 01 e9             	add    %rbp,%rcx
    599a:	48 01 c2             	add    %rax,%rdx
    599d:	48 8b 44 24 40       	mov    0x40(%rsp),%rax
    59a2:	49 31 ce             	xor    %rcx,%r14
    59a5:	48 01 da             	add    %rbx,%rdx
    59a8:	49 01 c0             	add    %rax,%r8
    59ab:	4c 89 c0             	mov    %r8,%rax
    59ae:	4c 01 d8             	add    %r11,%rax
    59b1:	49 89 c0             	mov    %rax,%r8
    59b4:	48 8b 44 24 10       	mov    0x10(%rsp),%rax
    59b9:	4c 89 84 24 a0 00 00 	mov    %r8,0xa0(%rsp)
    59c0:	00 
    59c1:	48 01 c6             	add    %rax,%rsi
    59c4:	48 8b 84 24 90 00 00 	mov    0x90(%rsp),%rax
    59cb:	00 
    59cc:	48 01 fe             	add    %rdi,%rsi
    59cf:	49 c1 c6 20          	rol    $0x20,%r14
    59d3:	49 31 d4             	xor    %rdx,%r12
    59d6:	4d 31 c2             	xor    %r8,%r10
    59d9:	49 c1 c4 20          	rol    $0x20,%r12
    59dd:	49 31 f1             	xor    %rsi,%r9
    59e0:	49 c1 c2 20          	rol    $0x20,%r10
    59e4:	4d 01 f7             	add    %r14,%r15
    59e7:	49 c1 c1 20          	rol    $0x20,%r9
    59eb:	4c 8b 84 24 88 00 00 	mov    0x88(%rsp),%r8
    59f2:	00 
    59f3:	4d 01 d5             	add    %r10,%r13
    59f6:	4c 31 fd             	xor    %r15,%rbp
    59f9:	4c 01 c8             	add    %r9,%rax
    59fc:	4d 31 eb             	xor    %r13,%r11
    59ff:	48 c1 cd 18          	ror    $0x18,%rbp
    5a03:	48 89 84 24 a8 00 00 	mov    %rax,0xa8(%rsp)
    5a0a:	00 
    5a0b:	48 31 c7             	xor    %rax,%rdi
    5a0e:	48 8b 04 24          	mov    (%rsp),%rax
    5a12:	4d 01 e0             	add    %r12,%r8
    5a15:	49 c1 cb 18          	ror    $0x18,%r11
    5a19:	4c 31 c3             	xor    %r8,%rbx
    5a1c:	48 c1 cf 18          	ror    $0x18,%rdi
    5a20:	48 01 c1             	add    %rax,%rcx
    5a23:	48 8b 44 24 20       	mov    0x20(%rsp),%rax
    5a28:	48 c1 cb 18          	ror    $0x18,%rbx
    5a2c:	48 01 e9             	add    %rbp,%rcx
    5a2f:	48 01 c2             	add    %rax,%rdx
    5a32:	48 8b 44 24 30       	mov    0x30(%rsp),%rax
    5a37:	49 31 ce             	xor    %rcx,%r14
    5a3a:	48 01 da             	add    %rbx,%rdx
    5a3d:	49 c1 ce 10          	ror    $0x10,%r14
    5a41:	48 89 94 24 88 00 00 	mov    %rdx,0x88(%rsp)
    5a48:	00 
    5a49:	48 8b 94 24 a0 00 00 	mov    0xa0(%rsp),%rdx
    5a50:	00 
    5a51:	48 01 c2             	add    %rax,%rdx
    5a54:	48 89 d0             	mov    %rdx,%rax
    5a57:	48 8b 54 24 50       	mov    0x50(%rsp),%rdx
    5a5c:	4c 01 d8             	add    %r11,%rax
    5a5f:	48 01 d6             	add    %rdx,%rsi
    5a62:	48 8b 94 24 88 00 00 	mov    0x88(%rsp),%rdx
    5a69:	00 
    5a6a:	49 31 c2             	xor    %rax,%r10
    5a6d:	48 01 fe             	add    %rdi,%rsi
    5a70:	49 31 d4             	xor    %rdx,%r12
    5a73:	49 c1 cc 10          	ror    $0x10,%r12
    5a77:	49 c1 ca 10          	ror    $0x10,%r10
    5a7b:	49 31 f1             	xor    %rsi,%r9
    5a7e:	4d 01 f7             	add    %r14,%r15
    5a81:	49 c1 c9 10          	ror    $0x10,%r9
    5a85:	4b 8d 14 20          	lea    (%r8,%r12,1),%rdx
    5a89:	4c 31 fd             	xor    %r15,%rbp
    5a8c:	4d 01 d5             	add    %r10,%r13
    5a8f:	4c 89 8c 24 90 00 00 	mov    %r9,0x90(%rsp)
    5a96:	00 
    5a97:	48 31 d3             	xor    %rdx,%rbx
    5a9a:	48 d1 c5             	rol    %rbp
    5a9d:	4d 31 eb             	xor    %r13,%r11
    5aa0:	4c 8b 8c 24 a8 00 00 	mov    0xa8(%rsp),%r9
    5aa7:	00 
    5aa8:	4c 8b 84 24 90 00 00 	mov    0x90(%rsp),%r8
    5aaf:	00 
    5ab0:	48 d1 c3             	rol    %rbx
    5ab3:	49 d1 c3             	rol    %r11
    5ab6:	48 89 94 24 a0 00 00 	mov    %rdx,0xa0(%rsp)
    5abd:	00 
    5abe:	48 8b 54 24 70       	mov    0x70(%rsp),%rdx
    5ac3:	4d 01 c8             	add    %r9,%r8
    5ac6:	4c 8b 4c 24 30       	mov    0x30(%rsp),%r9
    5acb:	4c 31 c7             	xor    %r8,%rdi
    5ace:	4c 01 c9             	add    %r9,%rcx
    5ad1:	4c 8b 8c 24 88 00 00 	mov    0x88(%rsp),%r9
    5ad8:	00 
    5ad9:	48 d1 c7             	rol    %rdi
    5adc:	48 01 f9             	add    %rdi,%rcx
    5adf:	49 01 d1             	add    %rdx,%r9
    5ae2:	49 31 cc             	xor    %rcx,%r12
    5ae5:	4c 89 ca             	mov    %r9,%rdx
    5ae8:	49 c1 c4 20          	rol    $0x20,%r12
    5aec:	48 01 ea             	add    %rbp,%rdx
    5aef:	4d 01 e5             	add    %r12,%r13
    5af2:	49 89 d1             	mov    %rdx,%r9
    5af5:	48 8b 54 24 58       	mov    0x58(%rsp),%rdx
    5afa:	4c 89 8c 24 a8 00 00 	mov    %r9,0xa8(%rsp)
    5b01:	00 
    5b02:	4d 31 ca             	xor    %r9,%r10
    5b05:	4c 8b 8c 24 90 00 00 	mov    0x90(%rsp),%r9
    5b0c:	00 
    5b0d:	48 01 d0             	add    %rdx,%rax
    5b10:	48 8b 14 24          	mov    (%rsp),%rdx
    5b14:	49 c1 c2 20          	rol    $0x20,%r10
    5b18:	48 01 d8             	add    %rbx,%rax
    5b1b:	4d 01 d0             	add    %r10,%r8
    5b1e:	48 01 d6             	add    %rdx,%rsi
    5b21:	49 31 c1             	xor    %rax,%r9
    5b24:	48 8b 94 24 a0 00 00 	mov    0xa0(%rsp),%rdx
    5b2b:	00 
    5b2c:	4c 01 de             	add    %r11,%rsi
    5b2f:	49 c1 c1 20          	rol    $0x20,%r9
    5b33:	49 31 f6             	xor    %rsi,%r14
    5b36:	49 c1 c6 20          	rol    $0x20,%r14
    5b3a:	4d 01 cf             	add    %r9,%r15
    5b3d:	4c 31 c5             	xor    %r8,%rbp
    5b40:	4c 31 ef             	xor    %r13,%rdi
    5b43:	48 c1 cd 18          	ror    $0x18,%rbp
    5b47:	4c 01 f2             	add    %r14,%rdx
    5b4a:	48 c1 cf 18          	ror    $0x18,%rdi
    5b4e:	4c 31 fb             	xor    %r15,%rbx
    5b51:	48 89 ac 24 88 00 00 	mov    %rbp,0x88(%rsp)
    5b58:	00 
    5b59:	48 8b 6c 24 78       	mov    0x78(%rsp),%rbp
    5b5e:	49 31 d3             	xor    %rdx,%r11
    5b61:	48 c1 cb 18          	ror    $0x18,%rbx
    5b65:	48 89 94 24 90 00 00 	mov    %rdx,0x90(%rsp)
    5b6c:	00 
    5b6d:	48 8b 94 24 a8 00 00 	mov    0xa8(%rsp),%rdx
    5b74:	00 
    5b75:	49 c1 cb 18          	ror    $0x18,%r11
    5b79:	48 01 e9             	add    %rbp,%rcx
    5b7c:	48 8b 6c 24 48       	mov    0x48(%rsp),%rbp
    5b81:	48 01 f9             	add    %rdi,%rcx
    5b84:	48 01 ea             	add    %rbp,%rdx
    5b87:	48 8b ac 24 88 00 00 	mov    0x88(%rsp),%rbp
    5b8e:	00 
    5b8f:	49 31 cc             	xor    %rcx,%r12
    5b92:	49 c1 cc 10          	ror    $0x10,%r12
    5b96:	48 01 ea             	add    %rbp,%rdx
    5b99:	48 8b 6c 24 18       	mov    0x18(%rsp),%rbp
    5b9e:	4d 01 e5             	add    %r12,%r13
    5ba1:	49 31 d2             	xor    %rdx,%r10
    5ba4:	4c 31 ef             	xor    %r13,%rdi
    5ba7:	49 c1 ca 10          	ror    $0x10,%r10
    5bab:	48 01 e8             	add    %rbp,%rax
    5bae:	48 8b 6c 24 40       	mov    0x40(%rsp),%rbp
    5bb3:	48 d1 c7             	rol    %rdi
    5bb6:	4d 01 d0             	add    %r10,%r8
    5bb9:	48 01 d8             	add    %rbx,%rax
    5bbc:	48 01 ee             	add    %rbp,%rsi
    5bbf:	4c 89 c5             	mov    %r8,%rbp
    5bc2:	49 31 c1             	xor    %rax,%r9
    5bc5:	4c 8b 84 24 90 00 00 	mov    0x90(%rsp),%r8
    5bcc:	00 
    5bcd:	4c 01 de             	add    %r11,%rsi
    5bd0:	48 89 bc 24 90 00 00 	mov    %rdi,0x90(%rsp)
    5bd7:	00 
    5bd8:	48 89 ef             	mov    %rbp,%rdi
    5bdb:	49 c1 c9 10          	ror    $0x10,%r9
    5bdf:	48 89 ac 24 a0 00 00 	mov    %rbp,0xa0(%rsp)
    5be6:	00 
    5be7:	49 31 f6             	xor    %rsi,%r14
    5bea:	4d 01 cf             	add    %r9,%r15
    5bed:	48 8b ac 24 88 00 00 	mov    0x88(%rsp),%rbp
    5bf4:	00 
    5bf5:	49 c1 ce 10          	ror    $0x10,%r14
    5bf9:	4d 01 f0             	add    %r14,%r8
    5bfc:	48 31 fd             	xor    %rdi,%rbp
    5bff:	48 8b 7c 24 60       	mov    0x60(%rsp),%rdi
    5c04:	4c 31 fb             	xor    %r15,%rbx
    5c07:	48 d1 c5             	rol    %rbp
    5c0a:	4d 31 c3             	xor    %r8,%r11
    5c0d:	48 d1 c3             	rol    %rbx
    5c10:	48 01 f9             	add    %rdi,%rcx
    5c13:	48 8b 7c 24 68       	mov    0x68(%rsp),%rdi
    5c18:	49 d1 c3             	rol    %r11
    5c1b:	48 01 e9             	add    %rbp,%rcx
    5c1e:	48 01 fa             	add    %rdi,%rdx
    5c21:	48 8b 7c 24 08       	mov    0x8(%rsp),%rdi
    5c26:	49 31 ce             	xor    %rcx,%r14
    5c29:	48 01 da             	add    %rbx,%rdx
    5c2c:	49 c1 c6 20          	rol    $0x20,%r14
    5c30:	48 01 f8             	add    %rdi,%rax
    5c33:	48 8b 7c 24 50       	mov    0x50(%rsp),%rdi
    5c38:	49 31 d4             	xor    %rdx,%r12
    5c3b:	4d 01 f7             	add    %r14,%r15
    5c3e:	4c 01 d8             	add    %r11,%rax
    5c41:	49 c1 c4 20          	rol    $0x20,%r12
    5c45:	4c 31 fd             	xor    %r15,%rbp
    5c48:	48 01 fe             	add    %rdi,%rsi
    5c4b:	49 31 c2             	xor    %rax,%r10
    5c4e:	4d 01 e0             	add    %r12,%r8
    5c51:	48 c1 cd 18          	ror    $0x18,%rbp
    5c55:	48 8b bc 24 90 00 00 	mov    0x90(%rsp),%rdi
    5c5c:	00 
    5c5d:	49 c1 c2 20          	rol    $0x20,%r10
    5c61:	4c 31 c3             	xor    %r8,%rbx
    5c64:	4d 01 d5             	add    %r10,%r13
    5c67:	48 c1 cb 18          	ror    $0x18,%rbx
    5c6b:	48 01 fe             	add    %rdi,%rsi
    5c6e:	48 8b bc 24 a0 00 00 	mov    0xa0(%rsp),%rdi
    5c75:	00 
    5c76:	4d 31 eb             	xor    %r13,%r11
    5c79:	49 31 f1             	xor    %rsi,%r9
    5c7c:	49 c1 cb 18          	ror    $0x18,%r11
    5c80:	49 c1 c1 20          	rol    $0x20,%r9
    5c84:	4c 89 9c 24 88 00 00 	mov    %r11,0x88(%rsp)
    5c8b:	00 
    5c8c:	4c 01 cf             	add    %r9,%rdi
    5c8f:	48 89 bc 24 a0 00 00 	mov    %rdi,0xa0(%rsp)
    5c96:	00 
    5c97:	49 89 fb             	mov    %rdi,%r11
    5c9a:	48 8b bc 24 90 00 00 	mov    0x90(%rsp),%rdi
    5ca1:	00 
    5ca2:	4c 31 df             	xor    %r11,%rdi
    5ca5:	4c 8b 5c 24 10       	mov    0x10(%rsp),%r11
    5caa:	48 c1 cf 18          	ror    $0x18,%rdi
    5cae:	4c 01 d9             	add    %r11,%rcx
    5cb1:	4c 8b 5c 24 38       	mov    0x38(%rsp),%r11
    5cb6:	48 01 e9             	add    %rbp,%rcx
    5cb9:	4c 01 da             	add    %r11,%rdx
    5cbc:	4c 8b 5c 24 20       	mov    0x20(%rsp),%r11
    5cc1:	49 31 ce             	xor    %rcx,%r14
    5cc4:	48 01 da             	add    %rbx,%rdx
    5cc7:	49 c1 ce 10          	ror    $0x10,%r14
    5ccb:	4c 01 d8             	add    %r11,%rax
    5cce:	4c 8b 9c 24 88 00 00 	mov    0x88(%rsp),%r11
    5cd5:	00 
    5cd6:	49 31 d4             	xor    %rdx,%r12
    5cd9:	4d 01 f7             	add    %r14,%r15
    5cdc:	49 c1 cc 10          	ror    $0x10,%r12
    5ce0:	4c 31 fd             	xor    %r15,%rbp
    5ce3:	4c 01 d8             	add    %r11,%rax
    5ce6:	4c 8b 5c 24 28       	mov    0x28(%rsp),%r11
    5ceb:	4d 01 e0             	add    %r12,%r8
    5cee:	48 d1 c5             	rol    %rbp
    5cf1:	49 31 c2             	xor    %rax,%r10
    5cf4:	4c 01 de             	add    %r11,%rsi
    5cf7:	4d 89 c3             	mov    %r8,%r11
    5cfa:	49 c1 ca 10          	ror    $0x10,%r10
    5cfe:	4c 8b 84 24 a0 00 00 	mov    0xa0(%rsp),%r8
    5d05:	00 
    5d06:	4c 89 9c 24 90 00 00 	mov    %r11,0x90(%rsp)
    5d0d:	00 
    5d0e:	4c 31 db             	xor    %r11,%rbx
    5d11:	4d 01 d5             	add    %r10,%r13
    5d14:	48 01 fe             	add    %rdi,%rsi
    5d17:	4c 8b 9c 24 88 00 00 	mov    0x88(%rsp),%r11
    5d1e:	00 
    5d1f:	49 31 f1             	xor    %rsi,%r9
    5d22:	48 d1 c3             	rol    %rbx
    5d25:	49 c1 c9 10          	ror    $0x10,%r9
    5d29:	4d 31 eb             	xor    %r13,%r11
    5d2c:	4d 01 c8             	add    %r9,%r8
    5d2f:	49 d1 c3             	rol    %r11
    5d32:	4c 31 c7             	xor    %r8,%rdi
    5d35:	4c 89 9c 24 88 00 00 	mov    %r11,0x88(%rsp)
    5d3c:	00 
    5d3d:	4c 8b 5c 24 50       	mov    0x50(%rsp),%r11
    5d42:	48 d1 c7             	rol    %rdi
    5d45:	4c 01 d9             	add    %r11,%rcx
    5d48:	4c 8b 5c 24 40       	mov    0x40(%rsp),%r11
    5d4d:	48 01 f9             	add    %rdi,%rcx
    5d50:	4c 01 da             	add    %r11,%rdx
    5d53:	4c 8b 5c 24 38       	mov    0x38(%rsp),%r11
    5d58:	49 31 cc             	xor    %rcx,%r12
    5d5b:	48 01 ea             	add    %rbp,%rdx
    5d5e:	49 c1 c4 20          	rol    $0x20,%r12
    5d62:	4c 01 d8             	add    %r11,%rax
    5d65:	4c 8b 5c 24 08       	mov    0x8(%rsp),%r11
    5d6a:	49 31 d2             	xor    %rdx,%r10
    5d6d:	4d 01 e5             	add    %r12,%r13
    5d70:	48 01 d8             	add    %rbx,%rax
    5d73:	49 c1 c2 20          	rol    $0x20,%r10
    5d77:	4c 31 ef             	xor    %r13,%rdi
    5d7a:	4c 01 de             	add    %r11,%rsi
    5d7d:	49 31 c1             	xor    %rax,%r9
    5d80:	4d 01 d0             	add    %r10,%r8
    5d83:	48 c1 cf 18          	ror    $0x18,%rdi
    5d87:	4c 8b 9c 24 88 00 00 	mov    0x88(%rsp),%r11
    5d8e:	00 
    5d8f:	49 c1 c1 20          	rol    $0x20,%r9
    5d93:	4c 31 c5             	xor    %r8,%rbp
    5d96:	4d 01 cf             	add    %r9,%r15
    5d99:	48 c1 cd 18          	ror    $0x18,%rbp
    5d9d:	4c 01 de             	add    %r11,%rsi
    5da0:	4c 8b 9c 24 90 00 00 	mov    0x90(%rsp),%r11
    5da7:	00 
    5da8:	4c 31 fb             	xor    %r15,%rbx
    5dab:	49 31 f6             	xor    %rsi,%r14
    5dae:	48 c1 cb 18          	ror    $0x18,%rbx
    5db2:	49 c1 c6 20          	rol    $0x20,%r14
    5db6:	48 89 9c 24 90 00 00 	mov    %rbx,0x90(%rsp)
    5dbd:	00 
    5dbe:	4d 01 f3             	add    %r14,%r11
    5dc1:	4c 89 9c 24 a0 00 00 	mov    %r11,0xa0(%rsp)
    5dc8:	00 
    5dc9:	4c 89 db             	mov    %r11,%rbx
    5dcc:	4c 8b 9c 24 88 00 00 	mov    0x88(%rsp),%r11
    5dd3:	00 
    5dd4:	49 31 db             	xor    %rbx,%r11
    5dd7:	48 8b 5c 24 10       	mov    0x10(%rsp),%rbx
    5ddc:	49 c1 cb 18          	ror    $0x18,%r11
    5de0:	48 01 d9             	add    %rbx,%rcx
    5de3:	48 8b 5c 24 20       	mov    0x20(%rsp),%rbx
    5de8:	48 01 f9             	add    %rdi,%rcx
    5deb:	48 01 da             	add    %rbx,%rdx
    5dee:	48 8b 5c 24 30       	mov    0x30(%rsp),%rbx
    5df3:	48 01 ea             	add    %rbp,%rdx
    5df6:	48 01 d8             	add    %rbx,%rax
    5df9:	48 8b 9c 24 90 00 00 	mov    0x90(%rsp),%rbx
    5e00:	00 
    5e01:	48 01 d8             	add    %rbx,%rax
    5e04:	48 8b 5c 24 28       	mov    0x28(%rsp),%rbx
    5e09:	48 01 de             	add    %rbx,%rsi
    5e0c:	49 31 d2             	xor    %rdx,%r10
    5e0f:	49 31 cc             	xor    %rcx,%r12
    5e12:	49 31 c1             	xor    %rax,%r9
    5e15:	49 c1 ca 10          	ror    $0x10,%r10
    5e19:	4c 01 de             	add    %r11,%rsi
    5e1c:	49 c1 c9 10          	ror    $0x10,%r9
    5e20:	4d 01 d0             	add    %r10,%r8
    5e23:	49 31 f6             	xor    %rsi,%r14
    5e26:	4d 01 cf             	add    %r9,%r15
    5e29:	49 c1 cc 10          	ror    $0x10,%r12
    5e2d:	4c 89 c3             	mov    %r8,%rbx
    5e30:	4c 8b 84 24 a0 00 00 	mov    0xa0(%rsp),%r8
    5e37:	00 
    5e38:	49 c1 ce 10          	ror    $0x10,%r14
    5e3c:	4d 01 e5             	add    %r12,%r13
    5e3f:	48 31 dd             	xor    %rbx,%rbp
    5e42:	48 89 9c 24 a0 00 00 	mov    %rbx,0xa0(%rsp)
    5e49:	00 
    5e4a:	4c 31 ef             	xor    %r13,%rdi
    5e4d:	48 8b 9c 24 90 00 00 	mov    0x90(%rsp),%rbx
    5e54:	00 
    5e55:	48 d1 c5             	rol    %rbp
    5e58:	4d 01 f0             	add    %r14,%r8
    5e5b:	48 d1 c7             	rol    %rdi
    5e5e:	48 89 ac 24 88 00 00 	mov    %rbp,0x88(%rsp)
    5e65:	00 
    5e66:	48 8b 6c 24 78       	mov    0x78(%rsp),%rbp
    5e6b:	4c 31 fb             	xor    %r15,%rbx
    5e6e:	4d 31 c3             	xor    %r8,%r11
    5e71:	48 d1 c3             	rol    %rbx
    5e74:	49 d1 c3             	rol    %r11
    5e77:	48 01 e9             	add    %rbp,%rcx
    5e7a:	48 8b ac 24 88 00 00 	mov    0x88(%rsp),%rbp
    5e81:	00 
    5e82:	48 01 e9             	add    %rbp,%rcx
    5e85:	48 8b 6c 24 48       	mov    0x48(%rsp),%rbp
    5e8a:	49 31 ce             	xor    %rcx,%r14
    5e8d:	48 01 ea             	add    %rbp,%rdx
    5e90:	48 8b 6c 24 18       	mov    0x18(%rsp),%rbp
    5e95:	49 c1 c6 20          	rol    $0x20,%r14
    5e99:	48 01 da             	add    %rbx,%rdx
    5e9c:	48 01 e8             	add    %rbp,%rax
    5e9f:	48 8b 6c 24 68       	mov    0x68(%rsp),%rbp
    5ea4:	4c 01 d8             	add    %r11,%rax
    5ea7:	48 01 ee             	add    %rbp,%rsi
    5eaa:	48 01 fe             	add    %rdi,%rsi
