
enclave/encl.elf:     file format elf64-x86-64


Disassembly of section .tcs:

0000000000000000 <__enclave_base>:
	...
      10:	00 40 02             	add    %al,0x2(%rax)
	...
      1b:	00 01                	add    %al,(%rcx)
      1d:	00 00                	add    %al,(%rax)
      1f:	00 11                	add    %dl,(%rcx)
      21:	12 00                	adc    (%rax),%al
	...
      3f:	00 ff                	add    %bh,%bh
      41:	ff                   	(bad)  
      42:	ff                   	(bad)  
      43:	ff                   	(bad)  
      44:	ff                   	(bad)  
      45:	ff                   	(bad)  
      46:	ff                   	(bad)  
      47:	ff 00                	incl   (%rax)
	...

Disassembly of section .text:

0000000000001000 <malloc>:
    1000:	f3 0f 1e fa          	endbr64 
    1004:	48 8d 47 ff          	lea    -0x1(%rdi),%rax
    1008:	31 d2                	xor    %edx,%edx
    100a:	48 83 f8 ee          	cmp    $0xffffffffffffffee,%rax
    100e:	77 2e                	ja     103e <malloc+0x3e>
    1010:	48 89 f8             	mov    %rdi,%rax
    1013:	48 8d 57 10          	lea    0x10(%rdi),%rdx
    1017:	83 e0 03             	and    $0x3,%eax
    101a:	74 15                	je     1031 <malloc+0x31>
    101c:	48 8d 48 fb          	lea    -0x5(%rax),%rcx
    1020:	48 39 d1             	cmp    %rdx,%rcx
    1023:	72 17                	jb     103c <malloc+0x3c>
    1025:	48 83 c7 14          	add    $0x14,%rdi
    1029:	48 29 c7             	sub    %rax,%rdi
    102c:	48 89 fa             	mov    %rdi,%rdx
    102f:	74 0d                	je     103e <malloc+0x3e>
    1031:	48 81 fa fc 4f 00 00 	cmp    $0x4ffc,%rdx
    1038:	76 04                	jbe    103e <malloc+0x3e>
    103a:	eb fe                	jmp    103a <malloc+0x3a>
    103c:	31 d2                	xor    %edx,%edx
    103e:	80 3d 3b 50 02 00 00 	cmpb   $0x0,0x2503b(%rip)        # 26080 <xHeapHasBeenInitialised>
    1045:	75 48                	jne    108f <malloc+0x8f>
    1047:	31 f6                	xor    %esi,%esi
    1049:	31 c9                	xor    %ecx,%ecx
    104b:	48 8d 05 91 50 02 00 	lea    0x25091(%rip),%rax        # 260e3 <ucHeap+0x3>
    1052:	48 c7 05 3b 50 02 00 	movq   $0x4ffc,0x2503b(%rip)        # 26098 <xEnd+0x8>
    1059:	fc 4f 00 00 
    105d:	48 83 e0 fc          	and    $0xfffffffffffffffc,%rax
    1061:	48 89 35 28 50 02 00 	mov    %rsi,0x25028(%rip)        # 26090 <xEnd>
    1068:	48 8d 35 21 50 02 00 	lea    0x25021(%rip),%rsi        # 26090 <xEnd>
    106f:	48 89 05 2a 50 02 00 	mov    %rax,0x2502a(%rip)        # 260a0 <xStart>
    1076:	48 89 0d 2b 50 02 00 	mov    %rcx,0x2502b(%rip)        # 260a8 <xStart+0x8>
    107d:	48 c7 40 08 fc 4f 00 	movq   $0x4ffc,0x8(%rax)
    1084:	00 
    1085:	48 89 30             	mov    %rsi,(%rax)
    1088:	c6 05 f1 4f 02 00 01 	movb   $0x1,0x24ff1(%rip)        # 26080 <xHeapHasBeenInitialised>
    108f:	31 c9                	xor    %ecx,%ecx
    1091:	48 85 d2             	test   %rdx,%rdx
    1094:	0f 84 a0 00 00 00    	je     113a <malloc+0x13a>
    109a:	48 8b 3d 5f 1f 02 00 	mov    0x21f5f(%rip),%rdi        # 23000 <xFreeBytesRemaining>
    10a1:	48 8b 05 f8 4f 02 00 	mov    0x24ff8(%rip),%rax        # 260a0 <xStart>
    10a8:	4c 8d 05 f1 4f 02 00 	lea    0x24ff1(%rip),%r8        # 260a0 <xStart>
    10af:	48 39 d7             	cmp    %rdx,%rdi
    10b2:	0f 82 82 00 00 00    	jb     113a <malloc+0x13a>
    10b8:	48 8b 70 08          	mov    0x8(%rax),%rsi
    10bc:	48 39 d6             	cmp    %rdx,%rsi
    10bf:	73 10                	jae    10d1 <malloc+0xd1>
    10c1:	48 8b 08             	mov    (%rax),%rcx
    10c4:	48 85 c9             	test   %rcx,%rcx
    10c7:	74 08                	je     10d1 <malloc+0xd1>
    10c9:	49 89 c0             	mov    %rax,%r8
    10cc:	48 89 c8             	mov    %rcx,%rax
    10cf:	eb e7                	jmp    10b8 <malloc+0xb8>
    10d1:	4c 8d 0d b8 4f 02 00 	lea    0x24fb8(%rip),%r9        # 26090 <xEnd>
    10d8:	31 c9                	xor    %ecx,%ecx
    10da:	4c 39 c8             	cmp    %r9,%rax
    10dd:	74 5b                	je     113a <malloc+0x13a>
    10df:	49 8b 08             	mov    (%r8),%rcx
    10e2:	4c 8b 08             	mov    (%rax),%r9
    10e5:	48 29 d6             	sub    %rdx,%rsi
    10e8:	4d 89 08             	mov    %r9,(%r8)
    10eb:	48 83 c1 10          	add    $0x10,%rcx
    10ef:	48 83 fe 20          	cmp    $0x20,%rsi
    10f3:	76 29                	jbe    111e <malloc+0x11e>
    10f5:	4c 8d 04 10          	lea    (%rax,%rdx,1),%r8
    10f9:	49 89 70 08          	mov    %rsi,0x8(%r8)
    10fd:	48 89 50 08          	mov    %rdx,0x8(%rax)
    1101:	4d 8b 48 08          	mov    0x8(%r8),%r9
    1105:	48 8d 15 94 4f 02 00 	lea    0x24f94(%rip),%rdx        # 260a0 <xStart>
    110c:	48 89 d6             	mov    %rdx,%rsi
    110f:	48 8b 12             	mov    (%rdx),%rdx
    1112:	4c 39 4a 08          	cmp    %r9,0x8(%rdx)
    1116:	72 f4                	jb     110c <malloc+0x10c>
    1118:	49 89 10             	mov    %rdx,(%r8)
    111b:	4c 89 06             	mov    %r8,(%rsi)
    111e:	48 8b 50 08          	mov    0x8(%rax),%rdx
    1122:	48 29 d7             	sub    %rdx,%rdi
    1125:	48 0f ba ea 3f       	bts    $0x3f,%rdx
    112a:	48 89 50 08          	mov    %rdx,0x8(%rax)
    112e:	31 d2                	xor    %edx,%edx
    1130:	48 89 3d c9 1e 02 00 	mov    %rdi,0x21ec9(%rip)        # 23000 <xFreeBytesRemaining>
    1137:	48 89 10             	mov    %rdx,(%rax)
    113a:	48 89 c8             	mov    %rcx,%rax
    113d:	c3                   	ret    

000000000000113e <free>:
    113e:	f3 0f 1e fa          	endbr64 
    1142:	48 85 ff             	test   %rdi,%rdi
    1145:	74 57                	je     119e <free+0x60>
    1147:	48 8b 57 f8          	mov    -0x8(%rdi),%rdx
    114b:	53                   	push   %rbx
    114c:	48 89 fb             	mov    %rdi,%rbx
    114f:	48 85 d2             	test   %rdx,%rdx
    1152:	78 02                	js     1156 <free+0x18>
    1154:	eb fe                	jmp    1154 <free+0x16>
    1156:	48 83 7f f0 00       	cmpq   $0x0,-0x10(%rdi)
    115b:	74 02                	je     115f <free+0x21>
    115d:	eb fe                	jmp    115d <free+0x1f>
    115f:	48 0f ba f2 3f       	btr    $0x3f,%rdx
    1164:	31 f6                	xor    %esi,%esi
    1166:	48 89 57 f8          	mov    %rdx,-0x8(%rdi)
    116a:	48 83 ea 10          	sub    $0x10,%rdx
    116e:	e8 66 02 00 00       	call   13d9 <memset>
    1173:	48 8b 53 f8          	mov    -0x8(%rbx),%rdx
    1177:	48 8d 05 22 4f 02 00 	lea    0x24f22(%rip),%rax        # 260a0 <xStart>
    117e:	48 89 c1             	mov    %rax,%rcx
    1181:	48 8b 00             	mov    (%rax),%rax
    1184:	48 39 50 08          	cmp    %rdx,0x8(%rax)
    1188:	72 f4                	jb     117e <free+0x40>
    118a:	48 89 43 f0          	mov    %rax,-0x10(%rbx)
    118e:	48 83 eb 10          	sub    $0x10,%rbx
    1192:	48 89 19             	mov    %rbx,(%rcx)
    1195:	5b                   	pop    %rbx
    1196:	48 01 15 63 1e 02 00 	add    %rdx,0x21e63(%rip)        # 23000 <xFreeBytesRemaining>
    119d:	c3                   	ret    
    119e:	c3                   	ret    

000000000000119f <xPortGetFreeHeapSize>:
    119f:	f3 0f 1e fa          	endbr64 
    11a3:	48 8b 05 56 1e 02 00 	mov    0x21e56(%rip),%rax        # 23000 <xFreeBytesRemaining>
    11aa:	c3                   	ret    

00000000000011ab <vPortInitialiseBlocks>:
    11ab:	f3 0f 1e fa          	endbr64 
    11af:	c3                   	ret    

00000000000011b0 <calloc>:
    11b0:	f3 0f 1e fa          	endbr64 
    11b4:	53                   	push   %rbx
    11b5:	48 85 ff             	test   %rdi,%rdi
    11b8:	74 0a                	je     11c4 <calloc+0x14>
    11ba:	48 89 f8             	mov    %rdi,%rax
    11bd:	31 db                	xor    %ebx,%ebx
    11bf:	48 f7 e6             	mul    %rsi
    11c2:	70 21                	jo     11e5 <calloc+0x35>
    11c4:	48 0f af fe          	imul   %rsi,%rdi
    11c8:	49 89 fa             	mov    %rdi,%r10
    11cb:	e8 30 fe ff ff       	call   1000 <malloc>
    11d0:	48 89 c3             	mov    %rax,%rbx
    11d3:	48 85 c0             	test   %rax,%rax
    11d6:	74 0d                	je     11e5 <calloc+0x35>
    11d8:	4c 89 d2             	mov    %r10,%rdx
    11db:	31 f6                	xor    %esi,%esi
    11dd:	48 89 c7             	mov    %rax,%rdi
    11e0:	e8 f4 01 00 00       	call   13d9 <memset>
    11e5:	48 89 d8             	mov    %rbx,%rax
    11e8:	5b                   	pop    %rbx
    11e9:	c3                   	ret    

00000000000011ea <vPortHeapResetState>:
    11ea:	f3 0f 1e fa          	endbr64 
    11ee:	48 c7 05 07 1e 02 00 	movq   $0x4ffc,0x21e07(%rip)        # 23000 <xFreeBytesRemaining>
    11f5:	fc 4f 00 00 
    11f9:	c6 05 80 4e 02 00 00 	movb   $0x0,0x24e80(%rip)        # 26080 <xHeapHasBeenInitialised>
    1200:	c3                   	ret    

0000000000001201 <get_enclave_base>:
    1201:	48 8d 05 f8 ed ff ff 	lea    -0x1208(%rip),%rax        # 0 <__enclave_base>
    1208:	c3                   	ret    

0000000000001209 <get_enclave_size>:
    1209:	48 8b 05 26 00 00 00 	mov    0x26(%rip),%rax        # 1236 <__enclave_size>
    1210:	c3                   	ret    

0000000000001211 <encl_entry>:
    1211:	48 8d 05 e8 4d 02 00 	lea    0x24de8(%rip),%rax        # 26000 <AEAD_key>
    1218:	48 94                	xchg   %rax,%rsp
    121a:	50                   	push   %rax
    121b:	51                   	push   %rcx
    121c:	48 89 f7             	mov    %rsi,%rdi
    121f:	48 89 d6             	mov    %rdx,%rsi
    1222:	e8 5f 01 00 00       	call   1386 <encl_body>
    1227:	5b                   	pop    %rbx
    1228:	58                   	pop    %rax
    1229:	48 89 c4             	mov    %rax,%rsp
    122c:	48 c7 c0 04 00 00 00 	mov    $0x4,%rax
    1233:	0f 01 d7             	enclu  

0000000000001236 <__enclave_size>:
	...

000000000000123e <do_encl_op_hmac>:
    123e:	f3 0f 1e fa          	endbr64 
    1242:	48 b8 00 01 02 03 04 	movabs $0x706050403020100,%rax
    1249:	05 06 07 
    124c:	48 83 ec 18          	sub    $0x18,%rsp
    1250:	48 ba 08 09 0a 0b 0c 	movabs $0xf0e0d0c0b0a0908,%rdx
    1257:	0d 0e 0f 
    125a:	48 8b 4f 10          	mov    0x10(%rdi),%rcx
    125e:	48 89 04 24          	mov    %rax,(%rsp)
    1262:	48 8b 47 18          	mov    0x18(%rdi),%rax
    1266:	48 89 e6             	mov    %rsp,%rsi
    1269:	44 8b 47 08          	mov    0x8(%rdi),%r8d
    126d:	48 89 54 24 08       	mov    %rdx,0x8(%rsp)
    1272:	ba 10 00 00 00       	mov    $0x10,%edx
    1277:	48 89 c7             	mov    %rax,%rdi
    127a:	e8 f1 21 00 00       	call   3470 <Hacl_HMAC_compute_sha2_256>
    127f:	48 83 c4 18          	add    $0x18,%rsp
    1283:	c3                   	ret    

0000000000001284 <do_encl_op_AEAD_decrypt>:
    1284:	f3 0f 1e fa          	endbr64 
    1288:	50                   	push   %rax
    1289:	48 8b 4f 18          	mov    0x18(%rdi),%rcx
    128d:	4c 8d 0d 6c 4d 02 00 	lea    0x24d6c(%rip),%r9        # 26000 <AEAD_key>
    1294:	8b 57 20             	mov    0x20(%rdi),%edx
    1297:	48 8b 77 30          	mov    0x30(%rdi),%rsi
    129b:	48 8b 47 28          	mov    0x28(%rdi),%rax
    129f:	ff 77 38             	push   0x38(%rdi)
    12a2:	ff 77 08             	push   0x8(%rdi)
    12a5:	44 8b 47 10          	mov    0x10(%rdi),%r8d
    12a9:	48 89 c7             	mov    %rax,%rdi
    12ac:	e8 8f 0b 00 00       	call   1e40 <Hacl_AEAD_Chacha20Poly1305_decrypt>
    12b1:	48 83 c4 18          	add    $0x18,%rsp
    12b5:	c3                   	ret    

00000000000012b6 <do_encl_op_AEAD_encrypt>:
    12b6:	f3 0f 1e fa          	endbr64 
    12ba:	4c 8d 15 3f 4d 02 00 	lea    0x24d3f(%rip),%r10        # 26000 <AEAD_key>
    12c1:	50                   	push   %rax
    12c2:	8b 4f 20             	mov    0x20(%rdi),%ecx
    12c5:	48 8b 57 28          	mov    0x28(%rdi),%rdx
    12c9:	48 8b 77 38          	mov    0x38(%rdi),%rsi
    12cd:	48 8b 47 30          	mov    0x30(%rdi),%rax
    12d1:	ff 77 08             	push   0x8(%rdi)
    12d4:	41 52                	push   %r10
    12d6:	44 8b 4f 10          	mov    0x10(%rdi),%r9d
    12da:	4c 8b 47 18          	mov    0x18(%rdi),%r8
    12de:	48 89 c7             	mov    %rax,%rdi
    12e1:	e8 aa 07 00 00       	call   1a90 <Hacl_AEAD_Chacha20Poly1305_encrypt>
    12e6:	48 83 c4 18          	add    $0x18,%rsp
    12ea:	c3                   	ret    

00000000000012eb <do_encl_op_sub>:
    12eb:	f3 0f 1e fa          	endbr64 
    12ef:	53                   	push   %rbx
    12f0:	be 08 00 00 00       	mov    $0x8,%esi
    12f5:	48 89 fb             	mov    %rdi,%rbx
    12f8:	48 83 ec 20          	sub    $0x20,%rsp
    12fc:	e8 f0 00 00 00       	call   13f1 <is_outside_enclave>
    1301:	85 c0                	test   %eax,%eax
    1303:	75 05                	jne    130a <do_encl_op_sub+0x1f>
    1305:	e8 9b 01 00 00       	call   14a5 <panic>
    130a:	48 89 e7             	mov    %rsp,%rdi
    130d:	ba 20 00 00 00       	mov    $0x20,%edx
    1312:	48 89 de             	mov    %rbx,%rsi
    1315:	e8 a3 00 00 00       	call   13bd <memcpy>
    131a:	48 8b 54 24 18       	mov    0x18(%rsp),%rdx
    131f:	48 8b 44 24 08       	mov    0x8(%rsp),%rax
    1324:	48 2b 44 24 10       	sub    0x10(%rsp),%rax
    1329:	48 89 02             	mov    %rax,(%rdx)
    132c:	48 83 c4 20          	add    $0x20,%rsp
    1330:	5b                   	pop    %rbx
    1331:	c3                   	ret    

0000000000001332 <do_encl_op_add>:
    1332:	f3 0f 1e fa          	endbr64 
    1336:	53                   	push   %rbx
    1337:	be 08 00 00 00       	mov    $0x8,%esi
    133c:	48 89 fb             	mov    %rdi,%rbx
    133f:	48 83 ec 20          	sub    $0x20,%rsp
    1343:	e8 a9 00 00 00       	call   13f1 <is_outside_enclave>
    1348:	85 c0                	test   %eax,%eax
    134a:	75 05                	jne    1351 <do_encl_op_add+0x1f>
    134c:	e8 54 01 00 00       	call   14a5 <panic>
    1351:	48 89 e7             	mov    %rsp,%rdi
    1354:	ba 20 00 00 00       	mov    $0x20,%edx
    1359:	48 89 de             	mov    %rbx,%rsi
    135c:	e8 5c 00 00 00       	call   13bd <memcpy>
    1361:	48 8b 54 24 18       	mov    0x18(%rsp),%rdx
    1366:	48 8b 44 24 10       	mov    0x10(%rsp),%rax
    136b:	48 03 44 24 08       	add    0x8(%rsp),%rax
    1370:	48 89 02             	mov    %rax,(%rdx)
    1373:	48 83 c4 20          	add    $0x20,%rsp
    1377:	5b                   	pop    %rbx
    1378:	c3                   	ret    

0000000000001379 <exit>:
    1379:	f3 0f 1e fa          	endbr64 
    137d:	eb fe                	jmp    137d <exit+0x4>

000000000000137f <fprintf>:
    137f:	f3 0f 1e fa          	endbr64 
    1383:	31 c0                	xor    %eax,%eax
    1385:	c3                   	ret    

0000000000001386 <encl_body>:
    1386:	f3 0f 1e fa          	endbr64 
    138a:	53                   	push   %rbx
    138b:	be 08 00 00 00       	mov    $0x8,%esi
    1390:	48 89 fb             	mov    %rdi,%rbx
    1393:	e8 59 00 00 00       	call   13f1 <is_outside_enclave>
    1398:	85 c0                	test   %eax,%eax
    139a:	75 05                	jne    13a1 <encl_body+0x1b>
    139c:	e8 04 01 00 00       	call   14a5 <panic>
    13a1:	48 83 3b 05          	cmpq   $0x5,(%rbx)
    13a5:	77 14                	ja     13bb <encl_body+0x35>
    13a7:	48 8d 05 52 ec ff ff 	lea    -0x13ae(%rip),%rax        # 0 <__enclave_base>
    13ae:	48 89 df             	mov    %rbx,%rdi
    13b1:	5b                   	pop    %rbx
    13b2:	48 03 05 9f 4c 02 00 	add    0x24c9f(%rip),%rax        # 26058 <g_ecall_table+0x8>
    13b9:	ff e0                	jmp    *%rax
    13bb:	5b                   	pop    %rbx
    13bc:	c3                   	ret    

00000000000013bd <memcpy>:
    13bd:	f3 0f 1e fa          	endbr64 
    13c1:	48 89 f8             	mov    %rdi,%rax
    13c4:	31 c9                	xor    %ecx,%ecx
    13c6:	48 39 d1             	cmp    %rdx,%rcx
    13c9:	74 0d                	je     13d8 <memcpy+0x1b>
    13cb:	40 8a 3c 0e          	mov    (%rsi,%rcx,1),%dil
    13cf:	40 88 3c 08          	mov    %dil,(%rax,%rcx,1)
    13d3:	48 ff c1             	inc    %rcx
    13d6:	eb ee                	jmp    13c6 <memcpy+0x9>
    13d8:	c3                   	ret    

00000000000013d9 <memset>:
    13d9:	f3 0f 1e fa          	endbr64 
    13dd:	48 89 f8             	mov    %rdi,%rax
    13e0:	31 c9                	xor    %ecx,%ecx
    13e2:	48 39 d1             	cmp    %rdx,%rcx
    13e5:	74 09                	je     13f0 <memset+0x17>
    13e7:	40 88 34 08          	mov    %sil,(%rax,%rcx,1)
    13eb:	48 ff c1             	inc    %rcx
    13ee:	eb f2                	jmp    13e2 <memset+0x9>
    13f0:	c3                   	ret    

00000000000013f1 <is_outside_enclave>:
    13f1:	f3 0f 1e fa          	endbr64 
    13f5:	41 55                	push   %r13
    13f7:	48 ff ce             	dec    %rsi
    13fa:	41 54                	push   %r12
    13fc:	48 01 fe             	add    %rdi,%rsi
    13ff:	55                   	push   %rbp
    1400:	41 0f 92 c5          	setb   %r13b
    1404:	49 89 f4             	mov    %rsi,%r12
    1407:	53                   	push   %rbx
    1408:	48 89 fb             	mov    %rdi,%rbx
    140b:	45 0f b6 ed          	movzbl %r13b,%r13d
    140f:	51                   	push   %rcx
    1410:	e8 ec fd ff ff       	call   1201 <get_enclave_base>
    1415:	48 89 c5             	mov    %rax,%rbp
    1418:	e8 ec fd ff ff       	call   1209 <get_enclave_size>
    141d:	48 89 c2             	mov    %rax,%rdx
    1420:	31 c0                	xor    %eax,%eax
    1422:	4d 85 ed             	test   %r13,%r13
    1425:	75 1b                	jne    1442 <is_outside_enclave+0x51>
    1427:	48 01 d5             	add    %rdx,%rbp
    142a:	b8 01 00 00 00       	mov    $0x1,%eax
    142f:	48 39 dd             	cmp    %rbx,%rbp
    1432:	72 0e                	jb     1442 <is_outside_enclave+0x51>
    1434:	e8 c8 fd ff ff       	call   1201 <get_enclave_base>
    1439:	49 39 c4             	cmp    %rax,%r12
    143c:	0f 92 c0             	setb   %al
    143f:	0f b6 c0             	movzbl %al,%eax
    1442:	5a                   	pop    %rdx
    1443:	5b                   	pop    %rbx
    1444:	5d                   	pop    %rbp
    1445:	41 5c                	pop    %r12
    1447:	41 5d                	pop    %r13
    1449:	c3                   	ret    

000000000000144a <is_inside_enclave>:
    144a:	f3 0f 1e fa          	endbr64 
    144e:	41 56                	push   %r14
    1450:	48 ff ce             	dec    %rsi
    1453:	41 55                	push   %r13
    1455:	48 01 fe             	add    %rdi,%rsi
    1458:	41 54                	push   %r12
    145a:	41 0f 92 c6          	setb   %r14b
    145e:	49 89 f4             	mov    %rsi,%r12
    1461:	55                   	push   %rbp
    1462:	45 0f b6 f6          	movzbl %r14b,%r14d
    1466:	53                   	push   %rbx
    1467:	48 89 fb             	mov    %rdi,%rbx
    146a:	e8 92 fd ff ff       	call   1201 <get_enclave_base>
    146f:	48 89 c5             	mov    %rax,%rbp
    1472:	e8 92 fd ff ff       	call   1209 <get_enclave_size>
    1477:	4d 85 f6             	test   %r14,%r14
    147a:	75 1e                	jne    149a <is_inside_enclave+0x50>
    147c:	49 89 c5             	mov    %rax,%r13
    147f:	e8 7d fd ff ff       	call   1201 <get_enclave_base>
    1484:	4c 01 ed             	add    %r13,%rbp
    1487:	4c 39 e5             	cmp    %r12,%rbp
    148a:	0f 93 c2             	setae  %dl
    148d:	48 39 c3             	cmp    %rax,%rbx
    1490:	0f 93 c0             	setae  %al
    1493:	0f b6 c0             	movzbl %al,%eax
    1496:	21 d0                	and    %edx,%eax
    1498:	eb 02                	jmp    149c <is_inside_enclave+0x52>
    149a:	31 c0                	xor    %eax,%eax
    149c:	5b                   	pop    %rbx
    149d:	5d                   	pop    %rbp
    149e:	41 5c                	pop    %r12
    14a0:	41 5d                	pop    %r13
    14a2:	41 5e                	pop    %r14
    14a4:	c3                   	ret    

00000000000014a5 <panic>:
    14a5:	f3 0f 1e fa          	endbr64 
    14a9:	0f 0b                	ud2    
    14ab:	c3                   	ret    

00000000000014ac <assert_inside_enclave>:
    14ac:	f3 0f 1e fa          	endbr64 
    14b0:	51                   	push   %rcx
    14b1:	e8 94 ff ff ff       	call   144a <is_inside_enclave>
    14b6:	85 c0                	test   %eax,%eax
    14b8:	75 03                	jne    14bd <assert_inside_enclave+0x11>
    14ba:	5a                   	pop    %rdx
    14bb:	eb e8                	jmp    14a5 <panic>
    14bd:	58                   	pop    %rax
    14be:	c3                   	ret    

00000000000014bf <sgx_do_encl_op_hmac>:
    14bf:	f3 0f 1e fa          	endbr64 
    14c3:	48 85 ff             	test   %rdi,%rdi
    14c6:	0f 84 ab 00 00 00    	je     1577 <sgx_do_encl_op_hmac+0xb8>
    14cc:	55                   	push   %rbp
    14cd:	be 08 00 00 00       	mov    $0x8,%esi
    14d2:	53                   	push   %rbx
    14d3:	48 89 fb             	mov    %rdi,%rbx
    14d6:	48 83 ec 18          	sub    $0x18,%rsp
    14da:	e8 12 ff ff ff       	call   13f1 <is_outside_enclave>
    14df:	85 c0                	test   %eax,%eax
    14e1:	75 0a                	jne    14ed <sgx_do_encl_op_hmac+0x2e>
    14e3:	b8 03 00 01 00       	mov    $0x10003,%eax
    14e8:	e9 83 00 00 00       	jmp    1570 <sgx_do_encl_op_hmac+0xb1>
    14ed:	48 8d 7c 24 08       	lea    0x8(%rsp),%rdi
    14f2:	ba 08 00 00 00       	mov    $0x8,%edx
    14f7:	48 89 de             	mov    %rbx,%rsi
    14fa:	e8 be fe ff ff       	call   13bd <memcpy>
    14ff:	48 8b 6c 24 08       	mov    0x8(%rsp),%rbp
    1504:	48 85 ed             	test   %rbp,%rbp
    1507:	74 3a                	je     1543 <sgx_do_encl_op_hmac+0x84>
    1509:	be 20 00 00 00       	mov    $0x20,%esi
    150e:	48 89 ef             	mov    %rbp,%rdi
    1511:	e8 db fe ff ff       	call   13f1 <is_outside_enclave>
    1516:	85 c0                	test   %eax,%eax
    1518:	74 c9                	je     14e3 <sgx_do_encl_op_hmac+0x24>
    151a:	bf 20 00 00 00       	mov    $0x20,%edi
    151f:	e8 dc fa ff ff       	call   1000 <malloc>
    1524:	48 89 c3             	mov    %rax,%rbx
    1527:	b8 05 00 01 00       	mov    $0x10005,%eax
    152c:	48 85 db             	test   %rbx,%rbx
    152f:	74 3f                	je     1570 <sgx_do_encl_op_hmac+0xb1>
    1531:	ba 20 00 00 00       	mov    $0x20,%edx
    1536:	48 89 ee             	mov    %rbp,%rsi
    1539:	48 89 df             	mov    %rbx,%rdi
    153c:	e8 7c fe ff ff       	call   13bd <memcpy>
    1541:	eb 02                	jmp    1545 <sgx_do_encl_op_hmac+0x86>
    1543:	31 db                	xor    %ebx,%ebx
    1545:	48 89 df             	mov    %rbx,%rdi
    1548:	e8 f1 fc ff ff       	call   123e <do_encl_op_hmac>
    154d:	48 85 db             	test   %rbx,%rbx
    1550:	75 04                	jne    1556 <sgx_do_encl_op_hmac+0x97>
    1552:	31 c0                	xor    %eax,%eax
    1554:	eb 1a                	jmp    1570 <sgx_do_encl_op_hmac+0xb1>
    1556:	48 89 ef             	mov    %rbp,%rdi
    1559:	ba 20 00 00 00       	mov    $0x20,%edx
    155e:	48 89 de             	mov    %rbx,%rsi
    1561:	e8 57 fe ff ff       	call   13bd <memcpy>
    1566:	48 89 df             	mov    %rbx,%rdi
    1569:	e8 d0 fb ff ff       	call   113e <free>
    156e:	eb e2                	jmp    1552 <sgx_do_encl_op_hmac+0x93>
    1570:	48 83 c4 18          	add    $0x18,%rsp
    1574:	5b                   	pop    %rbx
    1575:	5d                   	pop    %rbp
    1576:	c3                   	ret    
    1577:	b8 03 00 01 00       	mov    $0x10003,%eax
    157c:	c3                   	ret    
    157d:	0f 1f 00             	nopl   (%rax)

0000000000001580 <FStar_UInt8_eq_mask>:
    1580:	31 fe                	xor    %edi,%esi
    1582:	89 f0                	mov    %esi,%eax
    1584:	f7 d8                	neg    %eax
    1586:	09 f0                	or     %esi,%eax
    1588:	c0 e8 07             	shr    $0x7,%al
    158b:	83 e8 01             	sub    $0x1,%eax
    158e:	c3                   	ret    
    158f:	90                   	nop

0000000000001590 <poly1305_padded_32>:
    1590:	41 57                	push   %r15
    1592:	89 f0                	mov    %esi,%eax
    1594:	41 56                	push   %r14
    1596:	83 e0 f0             	and    $0xfffffff0,%eax
    1599:	41 55                	push   %r13
    159b:	41 89 f5             	mov    %esi,%r13d
    159e:	41 54                	push   %r12
    15a0:	41 83 e5 0f          	and    $0xf,%r13d
    15a4:	49 89 fc             	mov    %rdi,%r12
    15a7:	55                   	push   %rbp
    15a8:	53                   	push   %rbx
    15a9:	48 8d 1c 02          	lea    (%rdx,%rax,1),%rbx
    15ad:	48 83 ec 48          	sub    $0x48,%rsp
    15b1:	c1 ee 04             	shr    $0x4,%esi
    15b4:	0f 84 c6 04 00 00    	je     1a80 <poly1305_padded_32+0x4f0>
    15ba:	89 f6                	mov    %esi,%esi
    15bc:	44 89 6c 24 14       	mov    %r13d,0x14(%rsp)
    15c1:	48 c1 e6 04          	shl    $0x4,%rsi
    15c5:	48 89 5c 24 18       	mov    %rbx,0x18(%rsp)
    15ca:	48 89 d3             	mov    %rdx,%rbx
    15cd:	48 8d 3c 32          	lea    (%rdx,%rsi,1),%rdi
    15d1:	48 89 7c 24 08       	mov    %rdi,0x8(%rsp)
    15d6:	48 8d 7c 24 30       	lea    0x30(%rsp),%rdi
    15db:	48 89 3c 24          	mov    %rdi,(%rsp)
    15df:	90                   	nop
    15e0:	4c 8b 34 24          	mov    (%rsp),%r14
    15e4:	48 89 de             	mov    %rbx,%rsi
    15e7:	ba 08 00 00 00       	mov    $0x8,%edx
    15ec:	4c 89 f7             	mov    %r14,%rdi
    15ef:	e8 c9 fd ff ff       	call   13bd <memcpy>
    15f4:	48 8d 73 08          	lea    0x8(%rbx),%rsi
    15f8:	4c 89 f7             	mov    %r14,%rdi
    15fb:	ba 08 00 00 00       	mov    $0x8,%edx
    1600:	4c 8b 7c 24 30       	mov    0x30(%rsp),%r15
    1605:	e8 b3 fd ff ff       	call   13bd <memcpy>
    160a:	48 8b 74 24 30       	mov    0x30(%rsp),%rsi
    160f:	49 8b 44 24 28       	mov    0x28(%r12),%rax
    1614:	4d 8b 74 24 70       	mov    0x70(%r12),%r14
    1619:	4d 89 fa             	mov    %r15,%r10
    161c:	4c 89 f9             	mov    %r15,%rcx
    161f:	4d 89 fd             	mov    %r15,%r13
    1622:	48 89 f7             	mov    %rsi,%rdi
    1625:	48 c1 e9 34          	shr    $0x34,%rcx
    1629:	49 89 f1             	mov    %rsi,%r9
    162c:	4d 8b 5c 24 60       	mov    0x60(%r12),%r11
    1631:	48 c1 e7 0c          	shl    $0xc,%rdi
    1635:	49 c1 ea 1a          	shr    $0x1a,%r10
    1639:	4c 89 f2             	mov    %r14,%rdx
    163c:	49 8b 6c 24 30       	mov    0x30(%r12),%rbp
    1641:	81 e7 00 f0 ff 03    	and    $0x3fff000,%edi
    1647:	41 81 e5 ff ff ff 03 	and    $0x3ffffff,%r13d
    164e:	4d 03 2c 24          	add    (%r12),%r13
    1652:	49 c1 e9 0e          	shr    $0xe,%r9
    1656:	48 09 cf             	or     %rcx,%rdi
    1659:	41 81 e2 ff ff ff 03 	and    $0x3ffffff,%r10d
    1660:	48 89 c1             	mov    %rax,%rcx
    1663:	49 89 e8             	mov    %rbp,%r8
    1666:	4d 03 54 24 08       	add    0x8(%r12),%r10
    166b:	49 0f af cd          	imul   %r13,%rcx
    166f:	49 03 7c 24 10       	add    0x10(%r12),%rdi
    1674:	41 81 e1 ff ff ff 03 	and    $0x3ffffff,%r9d
    167b:	49 0f af d2          	imul   %r10,%rdx
    167f:	4d 03 4c 24 18       	add    0x18(%r12),%r9
    1684:	48 c1 ee 28          	shr    $0x28,%rsi
    1688:	4d 8b 7c 24 48       	mov    0x48(%r12),%r15
    168d:	4d 0f af d9          	imul   %r9,%r11
    1691:	48 81 ce 00 00 00 01 	or     $0x1000000,%rsi
    1698:	49 03 74 24 20       	add    0x20(%r12),%rsi
    169d:	48 01 d1             	add    %rdx,%rcx
    16a0:	49 8b 54 24 68       	mov    0x68(%r12),%rdx
    16a5:	48 0f af d7          	imul   %rdi,%rdx
    16a9:	48 01 ca             	add    %rcx,%rdx
    16ac:	49 8b 4c 24 38       	mov    0x38(%r12),%rcx
    16b1:	49 01 d3             	add    %rdx,%r11
    16b4:	49 8b 54 24 58       	mov    0x58(%r12),%rdx
    16b9:	49 0f af ca          	imul   %r10,%rcx
    16bd:	48 0f af d6          	imul   %rsi,%rdx
    16c1:	49 01 d3             	add    %rdx,%r11
    16c4:	49 8b 54 24 40       	mov    0x40(%r12),%rdx
    16c9:	49 0f af d5          	imul   %r13,%rdx
    16cd:	48 01 ca             	add    %rcx,%rdx
    16d0:	48 89 e9             	mov    %rbp,%rcx
    16d3:	48 0f af cf          	imul   %rdi,%rcx
    16d7:	48 01 d1             	add    %rdx,%rcx
    16da:	48 89 c2             	mov    %rax,%rdx
    16dd:	49 0f af d1          	imul   %r9,%rdx
    16e1:	4d 0f af c5          	imul   %r13,%r8
    16e5:	4d 0f af fd          	imul   %r13,%r15
    16e9:	48 01 ca             	add    %rcx,%rdx
    16ec:	4c 89 f1             	mov    %r14,%rcx
    16ef:	48 0f af ce          	imul   %rsi,%rcx
    16f3:	48 01 ca             	add    %rcx,%rdx
    16f6:	48 89 c1             	mov    %rax,%rcx
    16f9:	49 0f af ca          	imul   %r10,%rcx
    16fd:	49 01 c8             	add    %rcx,%r8
    1700:	4c 89 f1             	mov    %r14,%rcx
    1703:	48 0f af cf          	imul   %rdi,%rcx
    1707:	4d 0f af f1          	imul   %r9,%r14
    170b:	4c 01 c1             	add    %r8,%rcx
    170e:	4d 8b 44 24 68       	mov    0x68(%r12),%r8
    1713:	4d 0f af c1          	imul   %r9,%r8
    1717:	49 01 c8             	add    %rcx,%r8
    171a:	49 8b 4c 24 60       	mov    0x60(%r12),%rcx
    171f:	48 0f af ce          	imul   %rsi,%rcx
    1723:	4c 01 c1             	add    %r8,%rcx
    1726:	4d 89 d8             	mov    %r11,%r8
    1729:	49 c1 e8 1a          	shr    $0x1a,%r8
    172d:	4c 01 c1             	add    %r8,%rcx
    1730:	4d 8b 44 24 40       	mov    0x40(%r12),%r8
    1735:	4d 0f af c2          	imul   %r10,%r8
    1739:	4d 01 f8             	add    %r15,%r8
    173c:	4d 8b 7c 24 38       	mov    0x38(%r12),%r15
    1741:	4c 0f af ff          	imul   %rdi,%r15
    1745:	4d 01 f8             	add    %r15,%r8
    1748:	49 89 ef             	mov    %rbp,%r15
    174b:	4d 0f af f9          	imul   %r9,%r15
    174f:	49 0f af ea          	imul   %r10,%rbp
    1753:	4d 8b 54 24 38       	mov    0x38(%r12),%r10
    1758:	4d 01 c7             	add    %r8,%r15
    175b:	4d 0f af d5          	imul   %r13,%r10
    175f:	49 89 c0             	mov    %rax,%r8
    1762:	4c 0f af c6          	imul   %rsi,%r8
    1766:	48 0f af c7          	imul   %rdi,%rax
    176a:	4c 01 d5             	add    %r10,%rbp
    176d:	4d 01 f8             	add    %r15,%r8
    1770:	49 89 d7             	mov    %rdx,%r15
    1773:	49 c1 ef 1a          	shr    $0x1a,%r15
    1777:	48 01 e8             	add    %rbp,%rax
    177a:	4d 01 f8             	add    %r15,%r8
    177d:	4c 01 f0             	add    %r14,%rax
    1780:	81 e2 ff ff ff 03    	and    $0x3ffffff,%edx
    1786:	48 83 c3 10          	add    $0x10,%rbx
    178a:	49 0f af 74 24 68    	imul   0x68(%r12),%rsi
    1790:	41 81 e3 ff ff ff 03 	and    $0x3ffffff,%r11d
    1797:	48 01 f0             	add    %rsi,%rax
    179a:	48 89 ce             	mov    %rcx,%rsi
    179d:	81 e1 ff ff ff 03    	and    $0x3ffffff,%ecx
    17a3:	48 c1 ee 1a          	shr    $0x1a,%rsi
    17a7:	48 01 f0             	add    %rsi,%rax
    17aa:	4c 89 c6             	mov    %r8,%rsi
    17ad:	41 81 e0 ff ff ff 03 	and    $0x3ffffff,%r8d
    17b4:	48 c1 ee 1a          	shr    $0x1a,%rsi
    17b8:	48 8d 34 b6          	lea    (%rsi,%rsi,4),%rsi
    17bc:	49 01 f3             	add    %rsi,%r11
    17bf:	48 89 c6             	mov    %rax,%rsi
    17c2:	25 ff ff ff 03       	and    $0x3ffffff,%eax
    17c7:	48 c1 ee 1a          	shr    $0x1a,%rsi
    17cb:	49 89 44 24 10       	mov    %rax,0x10(%r12)
    17d0:	48 01 f2             	add    %rsi,%rdx
    17d3:	4c 89 de             	mov    %r11,%rsi
    17d6:	49 c1 eb 1a          	shr    $0x1a,%r11
    17da:	48 89 d0             	mov    %rdx,%rax
    17dd:	48 c1 ea 1a          	shr    $0x1a,%rdx
    17e1:	81 e6 ff ff ff 03    	and    $0x3ffffff,%esi
    17e7:	4c 01 d9             	add    %r11,%rcx
    17ea:	25 ff ff ff 03       	and    $0x3ffffff,%eax
    17ef:	49 01 d0             	add    %rdx,%r8
    17f2:	49 89 34 24          	mov    %rsi,(%r12)
    17f6:	49 89 44 24 18       	mov    %rax,0x18(%r12)
    17fb:	48 8b 44 24 08       	mov    0x8(%rsp),%rax
    1800:	49 89 4c 24 08       	mov    %rcx,0x8(%r12)
    1805:	4d 89 44 24 20       	mov    %r8,0x20(%r12)
    180a:	48 39 c3             	cmp    %rax,%rbx
    180d:	0f 85 cd fd ff ff    	jne    15e0 <poly1305_padded_32+0x50>
    1813:	44 8b 6c 24 14       	mov    0x14(%rsp),%r13d
    1818:	48 8b 5c 24 18       	mov    0x18(%rsp),%rbx
    181d:	48 8b 3c 24          	mov    (%rsp),%rdi
    1821:	66 0f ef c0          	pxor   %xmm0,%xmm0
    1825:	44 89 ea             	mov    %r13d,%edx
    1828:	48 89 de             	mov    %rbx,%rsi
    182b:	0f 29 44 24 30       	movaps %xmm0,0x30(%rsp)
    1830:	e8 88 fb ff ff       	call   13bd <memcpy>
    1835:	45 85 ed             	test   %r13d,%r13d
    1838:	75 16                	jne    1850 <poly1305_padded_32+0x2c0>
    183a:	48 83 c4 48          	add    $0x48,%rsp
    183e:	5b                   	pop    %rbx
    183f:	5d                   	pop    %rbp
    1840:	41 5c                	pop    %r12
    1842:	41 5d                	pop    %r13
    1844:	41 5e                	pop    %r14
    1846:	41 5f                	pop    %r15
    1848:	c3                   	ret    
    1849:	0f 1f 80 00 00 00 00 	nopl   0x0(%rax)
    1850:	48 8d 5c 24 28       	lea    0x28(%rsp),%rbx
    1855:	48 8b 34 24          	mov    (%rsp),%rsi
    1859:	ba 08 00 00 00       	mov    $0x8,%edx
    185e:	48 89 df             	mov    %rbx,%rdi
    1861:	e8 57 fb ff ff       	call   13bd <memcpy>
    1866:	4c 8b 74 24 28       	mov    0x28(%rsp),%r14
    186b:	48 8d 74 24 38       	lea    0x38(%rsp),%rsi
    1870:	48 89 df             	mov    %rbx,%rdi
    1873:	ba 08 00 00 00       	mov    $0x8,%edx
    1878:	e8 40 fb ff ff       	call   13bd <memcpy>
    187d:	49 8b 5c 24 28       	mov    0x28(%r12),%rbx
    1882:	4d 89 f2             	mov    %r14,%r10
    1885:	4c 89 f5             	mov    %r14,%rbp
    1888:	4d 8b 7c 24 70       	mov    0x70(%r12),%r15
    188d:	49 c1 ea 1a          	shr    $0x1a,%r10
    1891:	48 8b 74 24 28       	mov    0x28(%rsp),%rsi
    1896:	81 e5 ff ff ff 03    	and    $0x3ffffff,%ebp
    189c:	41 81 e2 ff ff ff 03 	and    $0x3ffffff,%r10d
    18a3:	48 89 da             	mov    %rbx,%rdx
    18a6:	4c 89 f1             	mov    %r14,%rcx
    18a9:	49 89 db             	mov    %rbx,%r11
    18ac:	49 03 2c 24          	add    (%r12),%rbp
    18b0:	4d 03 54 24 08       	add    0x8(%r12),%r10
    18b5:	4c 89 ff             	mov    %r15,%rdi
    18b8:	49 89 f0             	mov    %rsi,%r8
    18bb:	48 0f af d5          	imul   %rbp,%rdx
    18bf:	49 c1 e0 0c          	shl    $0xc,%r8
    18c3:	48 c1 e9 34          	shr    $0x34,%rcx
    18c7:	49 89 f1             	mov    %rsi,%r9
    18ca:	49 0f af fa          	imul   %r10,%rdi
    18ce:	41 81 e0 00 f0 ff 03 	and    $0x3fff000,%r8d
    18d5:	49 c1 e9 0e          	shr    $0xe,%r9
    18d9:	4d 8b 6c 24 38       	mov    0x38(%r12),%r13
    18de:	49 09 c8             	or     %rcx,%r8
    18e1:	4d 03 44 24 10       	add    0x10(%r12),%r8
    18e6:	48 c1 ee 28          	shr    $0x28,%rsi
    18ea:	41 81 e1 ff ff ff 03 	and    $0x3ffffff,%r9d
    18f1:	4d 03 4c 24 18       	add    0x18(%r12),%r9
    18f6:	48 81 ce 00 00 00 01 	or     $0x1000000,%rsi
    18fd:	49 03 74 24 20       	add    0x20(%r12),%rsi
    1902:	4c 89 e9             	mov    %r13,%rcx
    1905:	48 01 d7             	add    %rdx,%rdi
    1908:	49 8b 54 24 68       	mov    0x68(%r12),%rdx
    190d:	49 0f af ca          	imul   %r10,%rcx
    1911:	49 8b 44 24 30       	mov    0x30(%r12),%rax
    1916:	4d 8b 74 24 60       	mov    0x60(%r12),%r14
    191b:	49 0f af d0          	imul   %r8,%rdx
    191f:	48 01 d7             	add    %rdx,%rdi
    1922:	49 8b 54 24 60       	mov    0x60(%r12),%rdx
    1927:	49 0f af d1          	imul   %r9,%rdx
    192b:	48 01 d7             	add    %rdx,%rdi
    192e:	49 8b 54 24 58       	mov    0x58(%r12),%rdx
    1933:	48 0f af d6          	imul   %rsi,%rdx
    1937:	48 01 d7             	add    %rdx,%rdi
    193a:	49 8b 54 24 40       	mov    0x40(%r12),%rdx
    193f:	48 0f af d5          	imul   %rbp,%rdx
    1943:	48 01 ca             	add    %rcx,%rdx
    1946:	48 89 c1             	mov    %rax,%rcx
    1949:	49 0f af c8          	imul   %r8,%rcx
    194d:	48 01 d1             	add    %rdx,%rcx
    1950:	48 89 da             	mov    %rbx,%rdx
    1953:	49 0f af d1          	imul   %r9,%rdx
    1957:	4d 0f af da          	imul   %r10,%r11
    195b:	4c 0f af f6          	imul   %rsi,%r14
    195f:	48 01 ca             	add    %rcx,%rdx
    1962:	4c 89 f9             	mov    %r15,%rcx
    1965:	48 0f af ce          	imul   %rsi,%rcx
    1969:	48 01 ca             	add    %rcx,%rdx
    196c:	48 89 c1             	mov    %rax,%rcx
    196f:	48 0f af cd          	imul   %rbp,%rcx
    1973:	4c 01 d9             	add    %r11,%rcx
    1976:	4d 89 fb             	mov    %r15,%r11
    1979:	4d 0f af d8          	imul   %r8,%r11
    197d:	4d 0f af f9          	imul   %r9,%r15
    1981:	49 01 cb             	add    %rcx,%r11
    1984:	49 8b 4c 24 68       	mov    0x68(%r12),%rcx
    1989:	49 0f af c9          	imul   %r9,%rcx
    198d:	49 01 cb             	add    %rcx,%r11
    1990:	4b 8d 0c 33          	lea    (%r11,%r14,1),%rcx
    1994:	49 89 fb             	mov    %rdi,%r11
    1997:	4d 8b 74 24 48       	mov    0x48(%r12),%r14
    199c:	49 c1 eb 1a          	shr    $0x1a,%r11
    19a0:	4c 01 d9             	add    %r11,%rcx
    19a3:	4d 8b 5c 24 40       	mov    0x40(%r12),%r11
    19a8:	4c 0f af f5          	imul   %rbp,%r14
    19ac:	4d 0f af da          	imul   %r10,%r11
    19b0:	4d 01 f3             	add    %r14,%r11
    19b3:	4d 89 ee             	mov    %r13,%r14
    19b6:	4d 0f af f0          	imul   %r8,%r14
    19ba:	4c 0f af ed          	imul   %rbp,%r13
    19be:	4d 01 de             	add    %r11,%r14
    19c1:	49 89 c3             	mov    %rax,%r11
    19c4:	4d 0f af d9          	imul   %r9,%r11
    19c8:	49 0f af c2          	imul   %r10,%rax
    19cc:	4d 01 f3             	add    %r14,%r11
    19cf:	49 89 de             	mov    %rbx,%r14
    19d2:	4c 0f af f6          	imul   %rsi,%r14
    19d6:	4c 01 e8             	add    %r13,%rax
    19d9:	49 0f af d8          	imul   %r8,%rbx
    19dd:	4d 01 de             	add    %r11,%r14
    19e0:	49 89 d3             	mov    %rdx,%r11
    19e3:	48 01 d8             	add    %rbx,%rax
    19e6:	49 c1 eb 1a          	shr    $0x1a,%r11
    19ea:	4d 01 f3             	add    %r14,%r11
    19ed:	4c 01 f8             	add    %r15,%rax
    19f0:	49 0f af 74 24 68    	imul   0x68(%r12),%rsi
    19f6:	81 e7 ff ff ff 03    	and    $0x3ffffff,%edi
    19fc:	81 e2 ff ff ff 03    	and    $0x3ffffff,%edx
    1a02:	48 01 f0             	add    %rsi,%rax
    1a05:	48 89 ce             	mov    %rcx,%rsi
    1a08:	81 e1 ff ff ff 03    	and    $0x3ffffff,%ecx
    1a0e:	48 c1 ee 1a          	shr    $0x1a,%rsi
    1a12:	48 01 f0             	add    %rsi,%rax
    1a15:	4c 89 de             	mov    %r11,%rsi
    1a18:	41 81 e3 ff ff ff 03 	and    $0x3ffffff,%r11d
    1a1f:	48 c1 ee 1a          	shr    $0x1a,%rsi
    1a23:	48 8d 34 b6          	lea    (%rsi,%rsi,4),%rsi
    1a27:	48 01 fe             	add    %rdi,%rsi
    1a2a:	48 89 c7             	mov    %rax,%rdi
    1a2d:	25 ff ff ff 03       	and    $0x3ffffff,%eax
    1a32:	48 c1 ef 1a          	shr    $0x1a,%rdi
    1a36:	49 89 44 24 10       	mov    %rax,0x10(%r12)
    1a3b:	48 01 fa             	add    %rdi,%rdx
    1a3e:	48 89 f7             	mov    %rsi,%rdi
    1a41:	48 c1 ee 1a          	shr    $0x1a,%rsi
    1a45:	48 89 d0             	mov    %rdx,%rax
    1a48:	48 c1 ea 1a          	shr    $0x1a,%rdx
    1a4c:	81 e7 ff ff ff 03    	and    $0x3ffffff,%edi
    1a52:	48 01 f1             	add    %rsi,%rcx
    1a55:	25 ff ff ff 03       	and    $0x3ffffff,%eax
    1a5a:	49 01 d3             	add    %rdx,%r11
    1a5d:	49 89 3c 24          	mov    %rdi,(%r12)
    1a61:	49 89 4c 24 08       	mov    %rcx,0x8(%r12)
    1a66:	49 89 44 24 18       	mov    %rax,0x18(%r12)
    1a6b:	4d 89 5c 24 20       	mov    %r11,0x20(%r12)
    1a70:	48 83 c4 48          	add    $0x48,%rsp
    1a74:	5b                   	pop    %rbx
    1a75:	5d                   	pop    %rbp
    1a76:	41 5c                	pop    %r12
    1a78:	41 5d                	pop    %r13
    1a7a:	41 5e                	pop    %r14
    1a7c:	41 5f                	pop    %r15
    1a7e:	c3                   	ret    
    1a7f:	90                   	nop
    1a80:	48 8d 44 24 30       	lea    0x30(%rsp),%rax
    1a85:	48 89 04 24          	mov    %rax,(%rsp)
    1a89:	e9 8f fd ff ff       	jmp    181d <poly1305_padded_32+0x28d>
    1a8e:	66 90                	xchg   %ax,%ax

0000000000001a90 <Hacl_AEAD_Chacha20Poly1305_encrypt>:
    1a90:	f3 0f 1e fa          	endbr64 
    1a94:	41 57                	push   %r15
    1a96:	41 56                	push   %r14
    1a98:	41 55                	push   %r13
    1a9a:	4d 89 c5             	mov    %r8,%r13
    1a9d:	41 54                	push   %r12
    1a9f:	49 89 fc             	mov    %rdi,%r12
    1aa2:	55                   	push   %rbp
    1aa3:	44 89 cd             	mov    %r9d,%ebp
    1aa6:	41 b9 01 00 00 00    	mov    $0x1,%r9d
    1aac:	53                   	push   %rbx
    1aad:	89 cb                	mov    %ecx,%ebx
    1aaf:	48 81 ec 48 01 00 00 	sub    $0x148,%rsp
    1ab6:	4c 8b bc 24 88 01 00 	mov    0x188(%rsp),%r15
    1abd:	00 
    1abe:	48 89 74 24 08       	mov    %rsi,0x8(%rsp)
    1ac3:	48 89 fe             	mov    %rdi,%rsi
    1ac6:	89 df                	mov    %ebx,%edi
    1ac8:	48 8b 8c 24 80 01 00 	mov    0x180(%rsp),%rcx
    1acf:	00 
    1ad0:	4c 8d 74 24 30       	lea    0x30(%rsp),%r14
    1ad5:	4d 89 f8             	mov    %r15,%r8
    1ad8:	e8 83 11 00 00       	call   2c60 <Hacl_Chacha20_chacha20_encrypt>
    1add:	66 0f ef c0          	pxor   %xmm0,%xmm0
    1ae1:	45 31 c9             	xor    %r9d,%r9d
    1ae4:	4c 89 f6             	mov    %r14,%rsi
    1ae7:	bf 40 00 00 00       	mov    $0x40,%edi
    1aec:	4d 89 f8             	mov    %r15,%r8
    1aef:	4c 89 f2             	mov    %r14,%rdx
    1af2:	0f 29 44 24 30       	movaps %xmm0,0x30(%rsp)
    1af7:	48 8b 8c 24 80 01 00 	mov    0x180(%rsp),%rcx
    1afe:	00 
    1aff:	0f 29 44 24 40       	movaps %xmm0,0x40(%rsp)
    1b04:	0f 29 44 24 50       	movaps %xmm0,0x50(%rsp)
    1b09:	0f 29 44 24 60       	movaps %xmm0,0x60(%rsp)
    1b0e:	e8 4d 11 00 00       	call   2c60 <Hacl_Chacha20_chacha20_encrypt>
    1b13:	31 c0                	xor    %eax,%eax
    1b15:	48 8d 7c 24 70       	lea    0x70(%rsp),%rdi
    1b1a:	66 0f ef c0          	pxor   %xmm0,%xmm0
    1b1e:	b9 19 00 00 00       	mov    $0x19,%ecx
    1b23:	4c 89 f6             	mov    %r14,%rsi
    1b26:	0f 29 44 24 20       	movaps %xmm0,0x20(%rsp)
    1b2b:	f3 48 ab             	rep stos %rax,%es:(%rdi)
    1b2e:	48 8d 44 24 70       	lea    0x70(%rsp),%rax
    1b33:	48 89 c7             	mov    %rax,%rdi
    1b36:	48 89 04 24          	mov    %rax,(%rsp)
    1b3a:	e8 b1 e7 01 00       	call   202f0 <Hacl_MAC_Poly1305_poly1305_init>
    1b3f:	85 ed                	test   %ebp,%ebp
    1b41:	0f 85 c1 02 00 00    	jne    1e08 <Hacl_AEAD_Chacha20Poly1305_encrypt+0x378>
    1b47:	85 db                	test   %ebx,%ebx
    1b49:	0f 85 cf 02 00 00    	jne    1e1e <Hacl_AEAD_Chacha20Poly1305_encrypt+0x38e>
    1b4f:	4c 8d 64 24 20       	lea    0x20(%rsp),%r12
    1b54:	89 e8                	mov    %ebp,%eax
    1b56:	48 8d 6c 24 18       	lea    0x18(%rsp),%rbp
    1b5b:	ba 08 00 00 00       	mov    $0x8,%edx
    1b60:	48 89 ee             	mov    %rbp,%rsi
    1b63:	4c 89 e7             	mov    %r12,%rdi
    1b66:	48 89 44 24 18       	mov    %rax,0x18(%rsp)
    1b6b:	e8 4d f8 ff ff       	call   13bd <memcpy>
    1b70:	89 d8                	mov    %ebx,%eax
    1b72:	48 8d 5c 24 28       	lea    0x28(%rsp),%rbx
    1b77:	48 89 ee             	mov    %rbp,%rsi
    1b7a:	48 89 df             	mov    %rbx,%rdi
    1b7d:	ba 08 00 00 00       	mov    $0x8,%edx
    1b82:	48 89 44 24 18       	mov    %rax,0x18(%rsp)
    1b87:	e8 31 f8 ff ff       	call   13bd <memcpy>
    1b8c:	4c 89 e6             	mov    %r12,%rsi
    1b8f:	48 89 ef             	mov    %rbp,%rdi
    1b92:	ba 08 00 00 00       	mov    $0x8,%edx
    1b97:	e8 21 f8 ff ff       	call   13bd <memcpy>
    1b9c:	48 89 de             	mov    %rbx,%rsi
    1b9f:	48 89 ef             	mov    %rbp,%rdi
    1ba2:	ba 08 00 00 00       	mov    $0x8,%edx
    1ba7:	4c 8b 6c 24 18       	mov    0x18(%rsp),%r13
    1bac:	e8 0c f8 ff ff       	call   13bd <memcpy>
    1bb1:	48 8b 4c 24 18       	mov    0x18(%rsp),%rcx
    1bb6:	4c 8b a4 24 e0 00 00 	mov    0xe0(%rsp),%r12
    1bbd:	00 
    1bbe:	4d 89 ea             	mov    %r13,%r10
    1bc1:	48 8b bc 24 d0 00 00 	mov    0xd0(%rsp),%rdi
    1bc8:	00 
    1bc9:	4c 89 ed             	mov    %r13,%rbp
    1bcc:	48 8b 9c 24 98 00 00 	mov    0x98(%rsp),%rbx
    1bd3:	00 
    1bd4:	49 89 c9             	mov    %rcx,%r9
    1bd7:	49 c1 ea 1a          	shr    $0x1a,%r10
    1bdb:	4c 89 e2             	mov    %r12,%rdx
    1bde:	81 e5 ff ff ff 03    	and    $0x3ffffff,%ebp
    1be4:	49 c1 e9 0e          	shr    $0xe,%r9
    1be8:	48 03 6c 24 70       	add    0x70(%rsp),%rbp
    1bed:	48 89 ce             	mov    %rcx,%rsi
    1bf0:	48 c1 e9 28          	shr    $0x28,%rcx
    1bf4:	41 81 e2 ff ff ff 03 	and    $0x3ffffff,%r10d
    1bfb:	4c 03 54 24 78       	add    0x78(%rsp),%r10
    1c00:	41 81 e1 ff ff ff 03 	and    $0x3ffffff,%r9d
    1c07:	4c 03 8c 24 88 00 00 	add    0x88(%rsp),%r9
    1c0e:	00 
    1c0f:	49 0f af d2          	imul   %r10,%rdx
    1c13:	48 c1 e6 0c          	shl    $0xc,%rsi
    1c17:	4d 89 e8             	mov    %r13,%r8
    1c1a:	4c 8b 9c 24 c8 00 00 	mov    0xc8(%rsp),%r11
    1c21:	00 
    1c22:	49 0f af f9          	imul   %r9,%rdi
    1c26:	49 c1 e8 34          	shr    $0x34,%r8
    1c2a:	48 81 c9 00 00 00 01 	or     $0x1000000,%rcx
    1c31:	48 03 8c 24 90 00 00 	add    0x90(%rsp),%rcx
    1c38:	00 
    1c39:	4c 0f af d9          	imul   %rcx,%r11
    1c3d:	81 e6 00 f0 ff 03    	and    $0x3fff000,%esi
    1c43:	4c 8b bc 24 a8 00 00 	mov    0xa8(%rsp),%r15
    1c4a:	00 
    1c4b:	48 8b 84 24 a0 00 00 	mov    0xa0(%rsp),%rax
    1c52:	00 
    1c53:	4c 09 c6             	or     %r8,%rsi
    1c56:	48 03 b4 24 80 00 00 	add    0x80(%rsp),%rsi
    1c5d:	00 
    1c5e:	49 89 d8             	mov    %rbx,%r8
    1c61:	48 01 d7             	add    %rdx,%rdi
    1c64:	48 89 da             	mov    %rbx,%rdx
    1c67:	49 89 c5             	mov    %rax,%r13
    1c6a:	48 0f af d5          	imul   %rbp,%rdx
    1c6e:	48 01 fa             	add    %rdi,%rdx
    1c71:	4c 89 ff             	mov    %r15,%rdi
    1c74:	49 01 d3             	add    %rdx,%r11
    1c77:	48 8b 94 24 d8 00 00 	mov    0xd8(%rsp),%rdx
    1c7e:	00 
    1c7f:	49 0f af fa          	imul   %r10,%rdi
    1c83:	48 0f af d6          	imul   %rsi,%rdx
    1c87:	49 01 d3             	add    %rdx,%r11
    1c8a:	48 89 da             	mov    %rbx,%rdx
    1c8d:	49 0f af d1          	imul   %r9,%rdx
    1c91:	48 01 fa             	add    %rdi,%rdx
    1c94:	48 8b bc 24 b0 00 00 	mov    0xb0(%rsp),%rdi
    1c9b:	00 
    1c9c:	48 0f af fd          	imul   %rbp,%rdi
    1ca0:	4d 0f af c2          	imul   %r10,%r8
    1ca4:	4d 0f af e9          	imul   %r9,%r13
    1ca8:	48 01 d7             	add    %rdx,%rdi
    1cab:	4c 89 e2             	mov    %r12,%rdx
    1cae:	48 0f af d1          	imul   %rcx,%rdx
    1cb2:	48 01 fa             	add    %rdi,%rdx
    1cb5:	48 89 c7             	mov    %rax,%rdi
    1cb8:	48 0f af fe          	imul   %rsi,%rdi
    1cbc:	48 01 fa             	add    %rdi,%rdx
    1cbf:	48 8b bc 24 d8 00 00 	mov    0xd8(%rsp),%rdi
    1cc6:	00 
    1cc7:	49 0f af f9          	imul   %r9,%rdi
    1ccb:	4c 01 c7             	add    %r8,%rdi
    1cce:	49 89 c0             	mov    %rax,%r8
    1cd1:	4c 0f af c5          	imul   %rbp,%r8
    1cd5:	49 0f af c2          	imul   %r10,%rax
    1cd9:	49 01 f8             	add    %rdi,%r8
    1cdc:	48 8b bc 24 d0 00 00 	mov    0xd0(%rsp),%rdi
    1ce3:	00 
    1ce4:	48 0f af f9          	imul   %rcx,%rdi
    1ce8:	4c 01 c7             	add    %r8,%rdi
    1ceb:	4d 89 e0             	mov    %r12,%r8
    1cee:	4c 0f af c6          	imul   %rsi,%r8
    1cf2:	4d 0f af e1          	imul   %r9,%r12
    1cf6:	49 01 f8             	add    %rdi,%r8
    1cf9:	4c 89 df             	mov    %r11,%rdi
    1cfc:	48 c1 ef 1a          	shr    $0x1a,%rdi
    1d00:	4c 01 e0             	add    %r12,%rax
    1d03:	49 01 f8             	add    %rdi,%r8
    1d06:	48 8b bc 24 b0 00 00 	mov    0xb0(%rsp),%rdi
    1d0d:	00 
    1d0e:	49 0f af fa          	imul   %r10,%rdi
    1d12:	49 01 fd             	add    %rdi,%r13
    1d15:	48 8b bc 24 b8 00 00 	mov    0xb8(%rsp),%rdi
    1d1c:	00 
    1d1d:	48 0f af fd          	imul   %rbp,%rdi
    1d21:	4c 01 ef             	add    %r13,%rdi
    1d24:	49 89 dd             	mov    %rbx,%r13
    1d27:	4c 0f af e9          	imul   %rcx,%r13
    1d2b:	49 01 fd             	add    %rdi,%r13
    1d2e:	4c 89 ff             	mov    %r15,%rdi
    1d31:	48 0f af fe          	imul   %rsi,%rdi
    1d35:	4c 0f af fd          	imul   %rbp,%r15
    1d39:	4c 01 ef             	add    %r13,%rdi
    1d3c:	49 89 d5             	mov    %rdx,%r13
    1d3f:	49 c1 ed 1a          	shr    $0x1a,%r13
    1d43:	4c 01 ef             	add    %r13,%rdi
    1d46:	4c 01 f8             	add    %r15,%rax
    1d49:	41 81 e3 ff ff ff 03 	and    $0x3ffffff,%r11d
    1d50:	81 e2 ff ff ff 03    	and    $0x3ffffff,%edx
    1d56:	48 0f af 8c 24 d8 00 	imul   0xd8(%rsp),%rcx
    1d5d:	00 00 
    1d5f:	48 0f af de          	imul   %rsi,%rbx
    1d63:	4c 89 f6             	mov    %r14,%rsi
    1d66:	48 01 c8             	add    %rcx,%rax
    1d69:	4c 89 c1             	mov    %r8,%rcx
    1d6c:	41 81 e0 ff ff ff 03 	and    $0x3ffffff,%r8d
    1d73:	48 01 d8             	add    %rbx,%rax
    1d76:	48 c1 e9 1a          	shr    $0x1a,%rcx
    1d7a:	48 01 c8             	add    %rcx,%rax
    1d7d:	48 89 f9             	mov    %rdi,%rcx
    1d80:	81 e7 ff ff ff 03    	and    $0x3ffffff,%edi
    1d86:	48 c1 e9 1a          	shr    $0x1a,%rcx
    1d8a:	48 8d 0c 89          	lea    (%rcx,%rcx,4),%rcx
    1d8e:	49 01 cb             	add    %rcx,%r11
    1d91:	48 89 c1             	mov    %rax,%rcx
    1d94:	25 ff ff ff 03       	and    $0x3ffffff,%eax
    1d99:	48 c1 e9 1a          	shr    $0x1a,%rcx
    1d9d:	48 89 84 24 80 00 00 	mov    %rax,0x80(%rsp)
    1da4:	00 
    1da5:	48 01 ca             	add    %rcx,%rdx
    1da8:	4c 89 d9             	mov    %r11,%rcx
    1dab:	49 c1 eb 1a          	shr    $0x1a,%r11
    1daf:	48 89 d0             	mov    %rdx,%rax
    1db2:	48 c1 ea 1a          	shr    $0x1a,%rdx
    1db6:	81 e1 ff ff ff 03    	and    $0x3ffffff,%ecx
    1dbc:	4d 01 d8             	add    %r11,%r8
    1dbf:	48 01 d7             	add    %rdx,%rdi
    1dc2:	48 8b 14 24          	mov    (%rsp),%rdx
    1dc6:	25 ff ff ff 03       	and    $0x3ffffff,%eax
    1dcb:	48 89 4c 24 70       	mov    %rcx,0x70(%rsp)
    1dd0:	48 89 bc 24 90 00 00 	mov    %rdi,0x90(%rsp)
    1dd7:	00 
    1dd8:	48 8b 7c 24 08       	mov    0x8(%rsp),%rdi
    1ddd:	4c 89 44 24 78       	mov    %r8,0x78(%rsp)
    1de2:	48 89 84 24 88 00 00 	mov    %rax,0x88(%rsp)
    1de9:	00 
    1dea:	e8 31 e6 01 00       	call   20420 <Hacl_MAC_Poly1305_poly1305_finish>
    1def:	48 81 c4 48 01 00 00 	add    $0x148,%rsp
    1df6:	5b                   	pop    %rbx
    1df7:	5d                   	pop    %rbp
    1df8:	41 5c                	pop    %r12
    1dfa:	41 5d                	pop    %r13
    1dfc:	41 5e                	pop    %r14
    1dfe:	41 5f                	pop    %r15
    1e00:	c3                   	ret    
    1e01:	0f 1f 80 00 00 00 00 	nopl   0x0(%rax)
    1e08:	48 8b 3c 24          	mov    (%rsp),%rdi
    1e0c:	4c 89 ea             	mov    %r13,%rdx
    1e0f:	89 ee                	mov    %ebp,%esi
    1e11:	e8 7a f7 ff ff       	call   1590 <poly1305_padded_32>
    1e16:	85 db                	test   %ebx,%ebx
    1e18:	0f 84 31 fd ff ff    	je     1b4f <Hacl_AEAD_Chacha20Poly1305_encrypt+0xbf>
    1e1e:	48 8b 3c 24          	mov    (%rsp),%rdi
    1e22:	4c 89 e2             	mov    %r12,%rdx
    1e25:	89 de                	mov    %ebx,%esi
    1e27:	e8 64 f7 ff ff       	call   1590 <poly1305_padded_32>
    1e2c:	e9 1e fd ff ff       	jmp    1b4f <Hacl_AEAD_Chacha20Poly1305_encrypt+0xbf>
    1e31:	66 66 2e 0f 1f 84 00 	data16 cs nopw 0x0(%rax,%rax,1)
    1e38:	00 00 00 00 
    1e3c:	0f 1f 40 00          	nopl   0x0(%rax)

0000000000001e40 <Hacl_AEAD_Chacha20Poly1305_decrypt>:
    1e40:	f3 0f 1e fa          	endbr64 
    1e44:	41 57                	push   %r15
    1e46:	66 0f ef c0          	pxor   %xmm0,%xmm0
    1e4a:	41 56                	push   %r14
    1e4c:	41 55                	push   %r13
    1e4e:	49 89 cd             	mov    %rcx,%r13
    1e51:	4c 89 c9             	mov    %r9,%rcx
    1e54:	41 54                	push   %r12
    1e56:	45 89 c4             	mov    %r8d,%r12d
    1e59:	55                   	push   %rbp
    1e5a:	53                   	push   %rbx
    1e5b:	48 81 ec 78 01 00 00 	sub    $0x178,%rsp
    1e62:	48 8d 6c 24 60       	lea    0x60(%rsp),%rbp
    1e67:	4c 8b 84 24 b0 01 00 	mov    0x1b0(%rsp),%r8
    1e6e:	00 
    1e6f:	48 89 7c 24 20       	mov    %rdi,0x20(%rsp)
    1e74:	bf 40 00 00 00       	mov    $0x40,%edi
    1e79:	48 89 74 24 18       	mov    %rsi,0x18(%rsp)
    1e7e:	48 89 ee             	mov    %rbp,%rsi
    1e81:	48 8b 9c 24 b8 01 00 	mov    0x1b8(%rsp),%rbx
    1e88:	00 
    1e89:	89 54 24 0c          	mov    %edx,0xc(%rsp)
    1e8d:	48 89 ea             	mov    %rbp,%rdx
    1e90:	4c 89 4c 24 28       	mov    %r9,0x28(%rsp)
    1e95:	45 31 c9             	xor    %r9d,%r9d
    1e98:	0f 29 44 24 40       	movaps %xmm0,0x40(%rsp)
    1e9d:	0f 29 44 24 60       	movaps %xmm0,0x60(%rsp)
    1ea2:	0f 29 44 24 70       	movaps %xmm0,0x70(%rsp)
    1ea7:	0f 29 84 24 80 00 00 	movaps %xmm0,0x80(%rsp)
    1eae:	00 
    1eaf:	0f 29 84 24 90 00 00 	movaps %xmm0,0x90(%rsp)
    1eb6:	00 
    1eb7:	e8 a4 0d 00 00       	call   2c60 <Hacl_Chacha20_chacha20_encrypt>
    1ebc:	31 c0                	xor    %eax,%eax
    1ebe:	b9 19 00 00 00       	mov    $0x19,%ecx
    1ec3:	66 0f ef c0          	pxor   %xmm0,%xmm0
    1ec7:	48 8d bc 24 a0 00 00 	lea    0xa0(%rsp),%rdi
    1ece:	00 
    1ecf:	48 89 ee             	mov    %rbp,%rsi
    1ed2:	0f 29 44 24 50       	movaps %xmm0,0x50(%rsp)
    1ed7:	f3 48 ab             	rep stos %rax,%es:(%rdi)
    1eda:	48 8d 84 24 a0 00 00 	lea    0xa0(%rsp),%rax
    1ee1:	00 
    1ee2:	48 89 c7             	mov    %rax,%rdi
    1ee5:	48 89 44 24 10       	mov    %rax,0x10(%rsp)
    1eea:	e8 01 e4 01 00       	call   202f0 <Hacl_MAC_Poly1305_poly1305_init>
    1eef:	45 85 e4             	test   %r12d,%r12d
    1ef2:	0f 85 e8 03 00 00    	jne    22e0 <Hacl_AEAD_Chacha20Poly1305_decrypt+0x4a0>
    1ef8:	8b 44 24 0c          	mov    0xc(%rsp),%eax
    1efc:	85 c0                	test   %eax,%eax
    1efe:	0f 85 f8 03 00 00    	jne    22fc <Hacl_AEAD_Chacha20Poly1305_decrypt+0x4bc>
    1f04:	44 89 e0             	mov    %r12d,%eax
    1f07:	4c 8d 74 24 50       	lea    0x50(%rsp),%r14
    1f0c:	4c 8d 64 24 38       	lea    0x38(%rsp),%r12
    1f11:	ba 08 00 00 00       	mov    $0x8,%edx
    1f16:	4c 89 e6             	mov    %r12,%rsi
    1f19:	4c 89 f7             	mov    %r14,%rdi
    1f1c:	4c 8d 6c 24 58       	lea    0x58(%rsp),%r13
    1f21:	48 89 44 24 38       	mov    %rax,0x38(%rsp)
    1f26:	e8 92 f4 ff ff       	call   13bd <memcpy>
    1f2b:	8b 44 24 0c          	mov    0xc(%rsp),%eax
    1f2f:	4c 89 e6             	mov    %r12,%rsi
    1f32:	4c 89 ef             	mov    %r13,%rdi
    1f35:	ba 08 00 00 00       	mov    $0x8,%edx
    1f3a:	48 89 44 24 38       	mov    %rax,0x38(%rsp)
    1f3f:	e8 79 f4 ff ff       	call   13bd <memcpy>
    1f44:	4c 89 f6             	mov    %r14,%rsi
    1f47:	4c 89 e7             	mov    %r12,%rdi
    1f4a:	ba 08 00 00 00       	mov    $0x8,%edx
    1f4f:	e8 69 f4 ff ff       	call   13bd <memcpy>
    1f54:	4c 89 ee             	mov    %r13,%rsi
    1f57:	4c 89 e7             	mov    %r12,%rdi
    1f5a:	ba 08 00 00 00       	mov    $0x8,%edx
    1f5f:	4c 8b 7c 24 38       	mov    0x38(%rsp),%r15
    1f64:	e8 54 f4 ff ff       	call   13bd <memcpy>
    1f69:	48 8b 54 24 38       	mov    0x38(%rsp),%rdx
    1f6e:	4c 8b b4 24 10 01 00 	mov    0x110(%rsp),%r14
    1f75:	00 
    1f76:	4d 89 f9             	mov    %r15,%r9
    1f79:	48 8b b4 24 00 01 00 	mov    0x100(%rsp),%rsi
    1f80:	00 
    1f81:	4d 89 fd             	mov    %r15,%r13
    1f84:	4c 8b a4 24 c8 00 00 	mov    0xc8(%rsp),%r12
    1f8b:	00 
    1f8c:	49 89 d0             	mov    %rdx,%r8
    1f8f:	49 c1 e9 1a          	shr    $0x1a,%r9
    1f93:	4c 89 f0             	mov    %r14,%rax
    1f96:	48 89 d1             	mov    %rdx,%rcx
    1f99:	49 c1 e8 0e          	shr    $0xe,%r8
    1f9d:	48 c1 ea 28          	shr    $0x28,%rdx
    1fa1:	4c 89 e7             	mov    %r12,%rdi
    1fa4:	41 81 e1 ff ff ff 03 	and    $0x3ffffff,%r9d
    1fab:	41 81 e0 ff ff ff 03 	and    $0x3ffffff,%r8d
    1fb2:	4c 03 8c 24 a8 00 00 	add    0xa8(%rsp),%r9
    1fb9:	00 
    1fba:	4c 03 84 24 b8 00 00 	add    0xb8(%rsp),%r8
    1fc1:	00 
    1fc2:	41 81 e5 ff ff ff 03 	and    $0x3ffffff,%r13d
    1fc9:	49 0f af c1          	imul   %r9,%rax
    1fcd:	48 c1 e1 0c          	shl    $0xc,%rcx
    1fd1:	49 c1 ef 34          	shr    $0x34,%r15
    1fd5:	4c 03 ac 24 a0 00 00 	add    0xa0(%rsp),%r13
    1fdc:	00 
    1fdd:	49 0f af f0          	imul   %r8,%rsi
    1fe1:	4c 8b 94 24 f8 00 00 	mov    0xf8(%rsp),%r10
    1fe8:	00 
    1fe9:	48 81 ca 00 00 00 01 	or     $0x1000000,%rdx
    1ff0:	48 03 94 24 c0 00 00 	add    0xc0(%rsp),%rdx
    1ff7:	00 
    1ff8:	81 e1 00 f0 ff 03    	and    $0x3fff000,%ecx
    1ffe:	4c 8b 9c 24 d0 00 00 	mov    0xd0(%rsp),%r11
    2005:	00 
    2006:	4c 0f af d2          	imul   %rdx,%r10
    200a:	4c 09 f9             	or     %r15,%rcx
    200d:	48 03 8c 24 b0 00 00 	add    0xb0(%rsp),%rcx
    2014:	00 
    2015:	48 01 c6             	add    %rax,%rsi
    2018:	4c 89 e0             	mov    %r12,%rax
    201b:	4d 89 df             	mov    %r11,%r15
    201e:	49 0f af c5          	imul   %r13,%rax
    2022:	48 01 f0             	add    %rsi,%rax
    2025:	48 8b b4 24 d8 00 00 	mov    0xd8(%rsp),%rsi
    202c:	00 
    202d:	49 01 c2             	add    %rax,%r10
    2030:	48 8b 84 24 08 01 00 	mov    0x108(%rsp),%rax
    2037:	00 
    2038:	49 0f af f1          	imul   %r9,%rsi
    203c:	48 0f af c1          	imul   %rcx,%rax
    2040:	49 01 c2             	add    %rax,%r10
    2043:	4c 89 e0             	mov    %r12,%rax
    2046:	49 0f af c0          	imul   %r8,%rax
    204a:	48 01 f0             	add    %rsi,%rax
    204d:	48 8b b4 24 e0 00 00 	mov    0xe0(%rsp),%rsi
    2054:	00 
    2055:	49 0f af f5          	imul   %r13,%rsi
    2059:	49 0f af f9          	imul   %r9,%rdi
    205d:	4d 0f af f8          	imul   %r8,%r15
    2061:	48 01 c6             	add    %rax,%rsi
    2064:	4c 89 f0             	mov    %r14,%rax
    2067:	48 0f af c2          	imul   %rdx,%rax
    206b:	48 01 f0             	add    %rsi,%rax
    206e:	4c 89 de             	mov    %r11,%rsi
    2071:	48 0f af f1          	imul   %rcx,%rsi
    2075:	48 01 f0             	add    %rsi,%rax
    2078:	48 8b b4 24 08 01 00 	mov    0x108(%rsp),%rsi
    207f:	00 
    2080:	49 0f af f0          	imul   %r8,%rsi
    2084:	48 01 fe             	add    %rdi,%rsi
    2087:	4c 89 df             	mov    %r11,%rdi
    208a:	49 0f af fd          	imul   %r13,%rdi
    208e:	4d 0f af d9          	imul   %r9,%r11
    2092:	48 01 f7             	add    %rsi,%rdi
    2095:	48 8b b4 24 00 01 00 	mov    0x100(%rsp),%rsi
    209c:	00 
    209d:	48 0f af f2          	imul   %rdx,%rsi
    20a1:	48 01 fe             	add    %rdi,%rsi
    20a4:	4c 89 f7             	mov    %r14,%rdi
    20a7:	48 0f af f9          	imul   %rcx,%rdi
    20ab:	4d 0f af f0          	imul   %r8,%r14
    20af:	4c 8b 84 24 d8 00 00 	mov    0xd8(%rsp),%r8
    20b6:	00 
    20b7:	48 01 f7             	add    %rsi,%rdi
    20ba:	4d 0f af c5          	imul   %r13,%r8
    20be:	4c 89 d6             	mov    %r10,%rsi
    20c1:	48 c1 ee 1a          	shr    $0x1a,%rsi
    20c5:	4d 01 f3             	add    %r14,%r11
    20c8:	48 01 f7             	add    %rsi,%rdi
    20cb:	48 8b b4 24 e0 00 00 	mov    0xe0(%rsp),%rsi
    20d2:	00 
    20d3:	49 0f af f1          	imul   %r9,%rsi
    20d7:	49 01 f7             	add    %rsi,%r15
    20da:	48 8b b4 24 e8 00 00 	mov    0xe8(%rsp),%rsi
    20e1:	00 
    20e2:	49 0f af f5          	imul   %r13,%rsi
    20e6:	4c 01 fe             	add    %r15,%rsi
    20e9:	4d 89 e7             	mov    %r12,%r15
    20ec:	4c 0f af fa          	imul   %rdx,%r15
    20f0:	49 01 f7             	add    %rsi,%r15
    20f3:	48 8b b4 24 d8 00 00 	mov    0xd8(%rsp),%rsi
    20fa:	00 
    20fb:	48 0f af f1          	imul   %rcx,%rsi
    20ff:	4c 01 fe             	add    %r15,%rsi
    2102:	49 89 c7             	mov    %rax,%r15
    2105:	49 c1 ef 1a          	shr    $0x1a,%r15
    2109:	4c 01 fe             	add    %r15,%rsi
    210c:	4d 01 d8             	add    %r11,%r8
    210f:	41 81 e2 ff ff ff 03 	and    $0x3ffffff,%r10d
    2116:	25 ff ff ff 03       	and    $0x3ffffff,%eax
    211b:	48 0f af 94 24 08 01 	imul   0x108(%rsp),%rdx
    2122:	00 00 
    2124:	4c 0f af e1          	imul   %rcx,%r12
    2128:	49 01 d0             	add    %rdx,%r8
    212b:	48 89 fa             	mov    %rdi,%rdx
    212e:	81 e7 ff ff ff 03    	and    $0x3ffffff,%edi
    2134:	48 c1 ea 1a          	shr    $0x1a,%rdx
    2138:	4d 01 e0             	add    %r12,%r8
    213b:	49 01 d0             	add    %rdx,%r8
    213e:	48 89 f2             	mov    %rsi,%rdx
    2141:	81 e6 ff ff ff 03    	and    $0x3ffffff,%esi
    2147:	48 c1 ea 1a          	shr    $0x1a,%rdx
    214b:	48 8d 14 92          	lea    (%rdx,%rdx,4),%rdx
    214f:	49 01 d2             	add    %rdx,%r10
    2152:	4c 89 c2             	mov    %r8,%rdx
    2155:	41 81 e0 ff ff ff 03 	and    $0x3ffffff,%r8d
    215c:	48 c1 ea 1a          	shr    $0x1a,%rdx
    2160:	4c 89 84 24 b0 00 00 	mov    %r8,0xb0(%rsp)
    2167:	00 
    2168:	48 01 d0             	add    %rdx,%rax
    216b:	4c 89 d2             	mov    %r10,%rdx
    216e:	49 c1 ea 1a          	shr    $0x1a,%r10
    2172:	81 e2 ff ff ff 03    	and    $0x3ffffff,%edx
    2178:	4c 01 d7             	add    %r10,%rdi
    217b:	48 89 94 24 a0 00 00 	mov    %rdx,0xa0(%rsp)
    2182:	00 
    2183:	48 89 c2             	mov    %rax,%rdx
    2186:	48 c1 e8 1a          	shr    $0x1a,%rax
    218a:	81 e2 ff ff ff 03    	and    $0x3ffffff,%edx
    2190:	48 01 c6             	add    %rax,%rsi
    2193:	48 89 bc 24 a8 00 00 	mov    %rdi,0xa8(%rsp)
    219a:	00 
    219b:	48 8d 7c 24 40       	lea    0x40(%rsp),%rdi
    21a0:	48 89 94 24 b8 00 00 	mov    %rdx,0xb8(%rsp)
    21a7:	00 
    21a8:	48 8b 54 24 10       	mov    0x10(%rsp),%rdx
    21ad:	48 89 b4 24 c0 00 00 	mov    %rsi,0xc0(%rsp)
    21b4:	00 
    21b5:	48 89 ee             	mov    %rbp,%rsi
    21b8:	e8 63 e2 01 00       	call   20420 <Hacl_MAC_Poly1305_poly1305_finish>
    21bd:	0f b6 33             	movzbl (%rbx),%esi
    21c0:	0f b6 7c 24 40       	movzbl 0x40(%rsp),%edi
    21c5:	e8 b6 f3 ff ff       	call   1580 <FStar_UInt8_eq_mask>
    21ca:	0f b6 73 01          	movzbl 0x1(%rbx),%esi
    21ce:	0f b6 7c 24 41       	movzbl 0x41(%rsp),%edi
    21d3:	89 c2                	mov    %eax,%edx
    21d5:	e8 a6 f3 ff ff       	call   1580 <FStar_UInt8_eq_mask>
    21da:	0f b6 73 02          	movzbl 0x2(%rbx),%esi
    21de:	0f b6 7c 24 42       	movzbl 0x42(%rsp),%edi
    21e3:	21 c2                	and    %eax,%edx
    21e5:	e8 96 f3 ff ff       	call   1580 <FStar_UInt8_eq_mask>
    21ea:	0f b6 73 03          	movzbl 0x3(%rbx),%esi
    21ee:	0f b6 7c 24 43       	movzbl 0x43(%rsp),%edi
    21f3:	21 c2                	and    %eax,%edx
    21f5:	e8 86 f3 ff ff       	call   1580 <FStar_UInt8_eq_mask>
    21fa:	0f b6 73 04          	movzbl 0x4(%rbx),%esi
    21fe:	0f b6 7c 24 44       	movzbl 0x44(%rsp),%edi
    2203:	21 c2                	and    %eax,%edx
    2205:	e8 76 f3 ff ff       	call   1580 <FStar_UInt8_eq_mask>
    220a:	0f b6 73 05          	movzbl 0x5(%rbx),%esi
    220e:	0f b6 7c 24 45       	movzbl 0x45(%rsp),%edi
    2213:	21 c2                	and    %eax,%edx
    2215:	e8 66 f3 ff ff       	call   1580 <FStar_UInt8_eq_mask>
    221a:	0f b6 73 06          	movzbl 0x6(%rbx),%esi
    221e:	0f b6 7c 24 46       	movzbl 0x46(%rsp),%edi
    2223:	21 c2                	and    %eax,%edx
    2225:	e8 56 f3 ff ff       	call   1580 <FStar_UInt8_eq_mask>
    222a:	0f b6 73 07          	movzbl 0x7(%rbx),%esi
    222e:	0f b6 7c 24 47       	movzbl 0x47(%rsp),%edi
    2233:	21 c2                	and    %eax,%edx
    2235:	e8 46 f3 ff ff       	call   1580 <FStar_UInt8_eq_mask>
    223a:	0f b6 73 08          	movzbl 0x8(%rbx),%esi
    223e:	0f b6 7c 24 48       	movzbl 0x48(%rsp),%edi
    2243:	21 c2                	and    %eax,%edx
    2245:	e8 36 f3 ff ff       	call   1580 <FStar_UInt8_eq_mask>
    224a:	0f b6 73 09          	movzbl 0x9(%rbx),%esi
    224e:	0f b6 7c 24 49       	movzbl 0x49(%rsp),%edi
    2253:	21 c2                	and    %eax,%edx
    2255:	e8 26 f3 ff ff       	call   1580 <FStar_UInt8_eq_mask>
    225a:	0f b6 73 0a          	movzbl 0xa(%rbx),%esi
    225e:	0f b6 7c 24 4a       	movzbl 0x4a(%rsp),%edi
    2263:	21 c2                	and    %eax,%edx
    2265:	e8 16 f3 ff ff       	call   1580 <FStar_UInt8_eq_mask>
    226a:	0f b6 73 0b          	movzbl 0xb(%rbx),%esi
    226e:	0f b6 7c 24 4b       	movzbl 0x4b(%rsp),%edi
    2273:	21 c2                	and    %eax,%edx
    2275:	e8 06 f3 ff ff       	call   1580 <FStar_UInt8_eq_mask>
    227a:	0f b6 73 0c          	movzbl 0xc(%rbx),%esi
    227e:	0f b6 7c 24 4c       	movzbl 0x4c(%rsp),%edi
    2283:	21 c2                	and    %eax,%edx
    2285:	e8 f6 f2 ff ff       	call   1580 <FStar_UInt8_eq_mask>
    228a:	0f b6 73 0d          	movzbl 0xd(%rbx),%esi
    228e:	0f b6 7c 24 4d       	movzbl 0x4d(%rsp),%edi
    2293:	21 c2                	and    %eax,%edx
    2295:	e8 e6 f2 ff ff       	call   1580 <FStar_UInt8_eq_mask>
    229a:	0f b6 73 0e          	movzbl 0xe(%rbx),%esi
    229e:	0f b6 7c 24 4e       	movzbl 0x4e(%rsp),%edi
    22a3:	21 c2                	and    %eax,%edx
    22a5:	e8 d6 f2 ff ff       	call   1580 <FStar_UInt8_eq_mask>
    22aa:	0f b6 73 0f          	movzbl 0xf(%rbx),%esi
    22ae:	0f b6 7c 24 4f       	movzbl 0x4f(%rsp),%edi
    22b3:	21 c2                	and    %eax,%edx
    22b5:	e8 c6 f2 ff ff       	call   1580 <FStar_UInt8_eq_mask>
    22ba:	21 c2                	and    %eax,%edx
    22bc:	b8 01 00 00 00       	mov    $0x1,%eax
    22c1:	80 fa ff             	cmp    $0xff,%dl
    22c4:	74 52                	je     2318 <Hacl_AEAD_Chacha20Poly1305_decrypt+0x4d8>
    22c6:	48 81 c4 78 01 00 00 	add    $0x178,%rsp
    22cd:	5b                   	pop    %rbx
    22ce:	5d                   	pop    %rbp
    22cf:	41 5c                	pop    %r12
    22d1:	41 5d                	pop    %r13
    22d3:	41 5e                	pop    %r14
    22d5:	41 5f                	pop    %r15
    22d7:	c3                   	ret    
    22d8:	0f 1f 84 00 00 00 00 	nopl   0x0(%rax,%rax,1)
    22df:	00 
    22e0:	48 8b 7c 24 10       	mov    0x10(%rsp),%rdi
    22e5:	4c 89 ea             	mov    %r13,%rdx
    22e8:	44 89 e6             	mov    %r12d,%esi
    22eb:	e8 a0 f2 ff ff       	call   1590 <poly1305_padded_32>
    22f0:	8b 44 24 0c          	mov    0xc(%rsp),%eax
    22f4:	85 c0                	test   %eax,%eax
    22f6:	0f 84 08 fc ff ff    	je     1f04 <Hacl_AEAD_Chacha20Poly1305_decrypt+0xc4>
    22fc:	48 8b 54 24 18       	mov    0x18(%rsp),%rdx
    2301:	8b 74 24 0c          	mov    0xc(%rsp),%esi
    2305:	48 8b 7c 24 10       	mov    0x10(%rsp),%rdi
    230a:	e8 81 f2 ff ff       	call   1590 <poly1305_padded_32>
    230f:	e9 f0 fb ff ff       	jmp    1f04 <Hacl_AEAD_Chacha20Poly1305_decrypt+0xc4>
    2314:	0f 1f 40 00          	nopl   0x0(%rax)
    2318:	48 8b 4c 24 28       	mov    0x28(%rsp),%rcx
    231d:	48 8b 54 24 18       	mov    0x18(%rsp),%rdx
    2322:	41 b9 01 00 00 00    	mov    $0x1,%r9d
    2328:	4c 8b 84 24 b0 01 00 	mov    0x1b0(%rsp),%r8
    232f:	00 
    2330:	48 8b 74 24 20       	mov    0x20(%rsp),%rsi
    2335:	8b 7c 24 0c          	mov    0xc(%rsp),%edi
    2339:	e8 22 09 00 00       	call   2c60 <Hacl_Chacha20_chacha20_encrypt>
    233e:	31 c0                	xor    %eax,%eax
    2340:	eb 84                	jmp    22c6 <Hacl_AEAD_Chacha20Poly1305_decrypt+0x486>
    2342:	66 2e 0f 1f 84 00 00 	cs nopw 0x0(%rax,%rax,1)
    2349:	00 00 00 
    234c:	0f 1f 40 00          	nopl   0x0(%rax)

0000000000002350 <double_round>:
    2350:	41 57                	push   %r15
    2352:	48 89 f8             	mov    %rdi,%rax
    2355:	44 8b 48 34          	mov    0x34(%rax),%r9d
    2359:	8b 70 18             	mov    0x18(%rax),%esi
    235c:	41 56                	push   %r14
    235e:	44 8b 40 38          	mov    0x38(%rax),%r8d
    2362:	44 8b 78 28          	mov    0x28(%rax),%r15d
    2366:	41 55                	push   %r13
    2368:	44 8b 68 04          	mov    0x4(%rax),%r13d
    236c:	8b 48 1c             	mov    0x1c(%rax),%ecx
    236f:	41 54                	push   %r12
    2371:	55                   	push   %rbp
    2372:	44 8b 60 08          	mov    0x8(%rax),%r12d
    2376:	53                   	push   %rbx
    2377:	8b 57 10             	mov    0x10(%rdi),%edx
    237a:	44 8b 37             	mov    (%rdi),%r14d
    237d:	44 8b 57 30          	mov    0x30(%rdi),%r10d
    2381:	41 01 f4             	add    %esi,%r12d
    2384:	44 8b 5f 20          	mov    0x20(%rdi),%r11d
    2388:	8b 7f 14             	mov    0x14(%rdi),%edi
    238b:	45 31 e0             	xor    %r12d,%r8d
    238e:	41 01 d6             	add    %edx,%r14d
    2391:	8b 58 24             	mov    0x24(%rax),%ebx
    2394:	41 c1 c0 10          	rol    $0x10,%r8d
    2398:	8b 68 0c             	mov    0xc(%rax),%ebp
    239b:	45 31 f2             	xor    %r14d,%r10d
    239e:	41 01 fd             	add    %edi,%r13d
    23a1:	45 01 c7             	add    %r8d,%r15d
    23a4:	41 c1 c2 10          	rol    $0x10,%r10d
    23a8:	45 31 e9             	xor    %r13d,%r9d
    23ab:	44 31 fe             	xor    %r15d,%esi
    23ae:	41 c1 c1 10          	rol    $0x10,%r9d
    23b2:	45 01 d3             	add    %r10d,%r11d
    23b5:	c1 c6 0c             	rol    $0xc,%esi
    23b8:	44 31 da             	xor    %r11d,%edx
    23bb:	44 01 cb             	add    %r9d,%ebx
    23be:	41 01 f4             	add    %esi,%r12d
    23c1:	c1 c2 0c             	rol    $0xc,%edx
    23c4:	31 df                	xor    %ebx,%edi
    23c6:	45 31 e0             	xor    %r12d,%r8d
    23c9:	c1 c7 0c             	rol    $0xc,%edi
    23cc:	41 01 d6             	add    %edx,%r14d
    23cf:	41 c1 c0 08          	rol    $0x8,%r8d
    23d3:	45 31 f2             	xor    %r14d,%r10d
    23d6:	41 01 fd             	add    %edi,%r13d
    23d9:	41 c1 c2 08          	rol    $0x8,%r10d
    23dd:	45 31 e9             	xor    %r13d,%r9d
    23e0:	45 01 d3             	add    %r10d,%r11d
    23e3:	41 c1 c1 08          	rol    $0x8,%r9d
    23e7:	44 31 da             	xor    %r11d,%edx
    23ea:	42 8d 1c 0b          	lea    (%rbx,%r9,1),%ebx
    23ee:	c1 c2 07             	rol    $0x7,%edx
    23f1:	31 df                	xor    %ebx,%edi
    23f3:	89 5c 24 f0          	mov    %ebx,-0x10(%rsp)
    23f7:	8b 58 2c             	mov    0x2c(%rax),%ebx
    23fa:	89 54 24 f4          	mov    %edx,-0xc(%rsp)
    23fe:	8b 50 3c             	mov    0x3c(%rax),%edx
    2401:	c1 c7 07             	rol    $0x7,%edi
    2404:	45 01 c7             	add    %r8d,%r15d
    2407:	01 cd                	add    %ecx,%ebp
    2409:	41 01 fe             	add    %edi,%r14d
    240c:	44 31 fe             	xor    %r15d,%esi
    240f:	31 ea                	xor    %ebp,%edx
    2411:	c1 c6 07             	rol    $0x7,%esi
    2414:	c1 c2 10             	rol    $0x10,%edx
    2417:	41 01 f5             	add    %esi,%r13d
    241a:	01 d3                	add    %edx,%ebx
    241c:	45 31 ea             	xor    %r13d,%r10d
    241f:	31 d9                	xor    %ebx,%ecx
    2421:	41 c1 c2 10          	rol    $0x10,%r10d
    2425:	c1 c1 0c             	rol    $0xc,%ecx
    2428:	01 cd                	add    %ecx,%ebp
    242a:	31 ea                	xor    %ebp,%edx
    242c:	c1 c2 08             	rol    $0x8,%edx
    242f:	01 d3                	add    %edx,%ebx
    2431:	44 31 f2             	xor    %r14d,%edx
    2434:	c1 c2 10             	rol    $0x10,%edx
    2437:	31 d9                	xor    %ebx,%ecx
    2439:	44 01 d3             	add    %r10d,%ebx
    243c:	41 01 d7             	add    %edx,%r15d
    243f:	c1 c1 07             	rol    $0x7,%ecx
    2442:	31 de                	xor    %ebx,%esi
    2444:	44 31 ff             	xor    %r15d,%edi
    2447:	c1 c7 0c             	rol    $0xc,%edi
    244a:	41 01 fe             	add    %edi,%r14d
    244d:	44 31 f2             	xor    %r14d,%edx
    2450:	44 89 30             	mov    %r14d,(%rax)
    2453:	c1 c2 08             	rol    $0x8,%edx
    2456:	89 50 3c             	mov    %edx,0x3c(%rax)
    2459:	44 01 fa             	add    %r15d,%edx
    245c:	31 d7                	xor    %edx,%edi
    245e:	66 0f 6e ca          	movd   %edx,%xmm1
    2462:	c1 c7 07             	rol    $0x7,%edi
    2465:	c1 c6 0c             	rol    $0xc,%esi
    2468:	41 01 cc             	add    %ecx,%r12d
    246b:	45 31 e1             	xor    %r12d,%r9d
    246e:	41 01 f5             	add    %esi,%r13d
    2471:	89 78 14             	mov    %edi,0x14(%rax)
    2474:	8b 7c 24 f4          	mov    -0xc(%rsp),%edi
    2478:	41 c1 c1 10          	rol    $0x10,%r9d
    247c:	45 31 ea             	xor    %r13d,%r10d
    247f:	44 89 68 04          	mov    %r13d,0x4(%rax)
    2483:	45 01 cb             	add    %r9d,%r11d
    2486:	41 c1 c2 08          	rol    $0x8,%r10d
    248a:	01 fd                	add    %edi,%ebp
    248c:	44 31 d9             	xor    %r11d,%ecx
    248f:	44 01 d3             	add    %r10d,%ebx
    2492:	41 31 e8             	xor    %ebp,%r8d
    2495:	44 89 50 30          	mov    %r10d,0x30(%rax)
    2499:	c1 c1 0c             	rol    $0xc,%ecx
    249c:	31 de                	xor    %ebx,%esi
    249e:	41 c1 c0 10          	rol    $0x10,%r8d
    24a2:	66 0f 6e d3          	movd   %ebx,%xmm2
    24a6:	41 01 cc             	add    %ecx,%r12d
    24a9:	c1 c6 07             	rol    $0x7,%esi
    24ac:	66 0f 62 ca          	punpckldq %xmm2,%xmm1
    24b0:	45 31 e1             	xor    %r12d,%r9d
    24b3:	89 70 18             	mov    %esi,0x18(%rax)
    24b6:	8b 74 24 f0          	mov    -0x10(%rsp),%esi
    24ba:	41 c1 c1 08          	rol    $0x8,%r9d
    24be:	5b                   	pop    %rbx
    24bf:	44 89 60 08          	mov    %r12d,0x8(%rax)
    24c3:	45 01 cb             	add    %r9d,%r11d
    24c6:	44 01 c6             	add    %r8d,%esi
    24c9:	44 89 48 34          	mov    %r9d,0x34(%rax)
    24cd:	44 31 d9             	xor    %r11d,%ecx
    24d0:	31 f7                	xor    %esi,%edi
    24d2:	66 41 0f 6e c3       	movd   %r11d,%xmm0
    24d7:	c1 c1 07             	rol    $0x7,%ecx
    24da:	89 48 1c             	mov    %ecx,0x1c(%rax)
    24dd:	89 f9                	mov    %edi,%ecx
    24df:	c1 c1 0c             	rol    $0xc,%ecx
    24e2:	01 cd                	add    %ecx,%ebp
    24e4:	41 31 e8             	xor    %ebp,%r8d
    24e7:	89 68 0c             	mov    %ebp,0xc(%rax)
    24ea:	5d                   	pop    %rbp
    24eb:	41 c1 c0 08          	rol    $0x8,%r8d
    24ef:	41 5c                	pop    %r12
    24f1:	41 5d                	pop    %r13
    24f3:	44 01 c6             	add    %r8d,%esi
    24f6:	41 5e                	pop    %r14
    24f8:	41 5f                	pop    %r15
    24fa:	44 89 40 38          	mov    %r8d,0x38(%rax)
    24fe:	66 0f 6e de          	movd   %esi,%xmm3
    2502:	31 f1                	xor    %esi,%ecx
    2504:	66 0f 62 c3          	punpckldq %xmm3,%xmm0
    2508:	c1 c1 07             	rol    $0x7,%ecx
    250b:	66 0f 6c c1          	punpcklqdq %xmm1,%xmm0
    250f:	89 48 10             	mov    %ecx,0x10(%rax)
    2512:	0f 11 40 20          	movups %xmm0,0x20(%rax)
    2516:	c3                   	ret    
    2517:	66 0f 1f 84 00 00 00 	nopw   0x0(%rax,%rax,1)
    251e:	00 00 

0000000000002520 <chacha20_encrypt_block>:
    2520:	41 57                	push   %r15
    2522:	66 0f ef c0          	pxor   %xmm0,%xmm0
    2526:	41 56                	push   %r14
    2528:	49 89 fe             	mov    %rdi,%r14
    252b:	41 55                	push   %r13
    252d:	41 54                	push   %r12
    252f:	49 89 cc             	mov    %rcx,%r12
    2532:	55                   	push   %rbp
    2533:	48 89 f5             	mov    %rsi,%rbp
    2536:	48 89 fe             	mov    %rdi,%rsi
    2539:	53                   	push   %rbx
    253a:	89 d3                	mov    %edx,%ebx
    253c:	ba 40 00 00 00       	mov    $0x40,%edx
    2541:	48 81 ec 88 00 00 00 	sub    $0x88,%rsp
    2548:	4c 8d 6c 24 40       	lea    0x40(%rsp),%r13
    254d:	0f 29 44 24 40       	movaps %xmm0,0x40(%rsp)
    2552:	4c 89 ef             	mov    %r13,%rdi
    2555:	0f 29 44 24 50       	movaps %xmm0,0x50(%rsp)
    255a:	0f 29 44 24 60       	movaps %xmm0,0x60(%rsp)
    255f:	0f 29 44 24 70       	movaps %xmm0,0x70(%rsp)
    2564:	e8 54 ee ff ff       	call   13bd <memcpy>
    2569:	4c 89 ef             	mov    %r13,%rdi
    256c:	01 5c 24 70          	add    %ebx,0x70(%rsp)
    2570:	e8 db fd ff ff       	call   2350 <double_round>
    2575:	4c 89 ef             	mov    %r13,%rdi
    2578:	e8 d3 fd ff ff       	call   2350 <double_round>
    257d:	4c 89 ef             	mov    %r13,%rdi
    2580:	e8 cb fd ff ff       	call   2350 <double_round>
    2585:	4c 89 ef             	mov    %r13,%rdi
    2588:	e8 c3 fd ff ff       	call   2350 <double_round>
    258d:	4c 89 ef             	mov    %r13,%rdi
    2590:	e8 bb fd ff ff       	call   2350 <double_round>
    2595:	4c 89 ef             	mov    %r13,%rdi
    2598:	e8 b3 fd ff ff       	call   2350 <double_round>
    259d:	4c 89 ef             	mov    %r13,%rdi
    25a0:	e8 ab fd ff ff       	call   2350 <double_round>
    25a5:	4c 89 ef             	mov    %r13,%rdi
    25a8:	e8 a3 fd ff ff       	call   2350 <double_round>
    25ad:	4c 89 ef             	mov    %r13,%rdi
    25b0:	e8 9b fd ff ff       	call   2350 <double_round>
    25b5:	4c 89 ef             	mov    %r13,%rdi
    25b8:	e8 93 fd ff ff       	call   2350 <double_round>
    25bd:	f3 41 0f 6f 4e 10    	movdqu 0x10(%r14),%xmm1
    25c3:	03 5c 24 70          	add    0x70(%rsp),%ebx
    25c7:	4c 89 e6             	mov    %r12,%rsi
    25ca:	66 0f fe 4c 24 50    	paddd  0x50(%rsp),%xmm1
    25d0:	f3 41 0f 6f 16       	movdqu (%r14),%xmm2
    25d5:	ba 04 00 00 00       	mov    $0x4,%edx
    25da:	f3 41 0f 6f 46 20    	movdqu 0x20(%r14),%xmm0
    25e0:	66 0f fe 44 24 60    	paddd  0x60(%rsp),%xmm0
    25e6:	66 0f 6e 5c 24 7c    	movd   0x7c(%rsp),%xmm3
    25ec:	66 0f 6e 64 24 74    	movd   0x74(%rsp),%xmm4
    25f2:	0f 29 4c 24 50       	movaps %xmm1,0x50(%rsp)
    25f7:	66 0f 6e 4c 24 78    	movd   0x78(%rsp),%xmm1
    25fd:	0f 29 44 24 60       	movaps %xmm0,0x60(%rsp)
    2602:	66 0f 6e c3          	movd   %ebx,%xmm0
    2606:	66 0f fe 54 24 40    	paddd  0x40(%rsp),%xmm2
    260c:	66 0f 62 c4          	punpckldq %xmm4,%xmm0
    2610:	48 8d 5c 24 3c       	lea    0x3c(%rsp),%rbx
    2615:	66 0f 62 cb          	punpckldq %xmm3,%xmm1
    2619:	48 89 df             	mov    %rbx,%rdi
    261c:	0f 29 54 24 40       	movaps %xmm2,0x40(%rsp)
    2621:	66 0f 6c c1          	punpcklqdq %xmm1,%xmm0
    2625:	f3 41 0f 6f 4e 30    	movdqu 0x30(%r14),%xmm1
    262b:	66 0f fe c1          	paddd  %xmm1,%xmm0
    262f:	0f 29 44 24 70       	movaps %xmm0,0x70(%rsp)
    2634:	e8 84 ed ff ff       	call   13bd <memcpy>
    2639:	8b 44 24 3c          	mov    0x3c(%rsp),%eax
    263d:	49 8d 74 24 04       	lea    0x4(%r12),%rsi
    2642:	48 89 df             	mov    %rbx,%rdi
    2645:	ba 04 00 00 00       	mov    $0x4,%edx
    264a:	89 44 24 18          	mov    %eax,0x18(%rsp)
    264e:	e8 6a ed ff ff       	call   13bd <memcpy>
    2653:	44 8b 5c 24 3c       	mov    0x3c(%rsp),%r11d
    2658:	49 8d 74 24 08       	lea    0x8(%r12),%rsi
    265d:	48 89 df             	mov    %rbx,%rdi
    2660:	ba 04 00 00 00       	mov    $0x4,%edx
    2665:	44 89 5c 24 2c       	mov    %r11d,0x2c(%rsp)
    266a:	e8 4e ed ff ff       	call   13bd <memcpy>
    266f:	44 8b 54 24 3c       	mov    0x3c(%rsp),%r10d
    2674:	49 8d 74 24 0c       	lea    0xc(%r12),%rsi
    2679:	48 89 df             	mov    %rbx,%rdi
    267c:	ba 04 00 00 00       	mov    $0x4,%edx
    2681:	44 89 54 24 28       	mov    %r10d,0x28(%rsp)
    2686:	e8 32 ed ff ff       	call   13bd <memcpy>
    268b:	44 8b 4c 24 3c       	mov    0x3c(%rsp),%r9d
    2690:	49 8d 74 24 10       	lea    0x10(%r12),%rsi
    2695:	48 89 df             	mov    %rbx,%rdi
    2698:	ba 04 00 00 00       	mov    $0x4,%edx
    269d:	44 89 4c 24 24       	mov    %r9d,0x24(%rsp)
    26a2:	e8 16 ed ff ff       	call   13bd <memcpy>
    26a7:	44 8b 44 24 3c       	mov    0x3c(%rsp),%r8d
    26ac:	49 8d 74 24 14       	lea    0x14(%r12),%rsi
    26b1:	48 89 df             	mov    %rbx,%rdi
    26b4:	ba 04 00 00 00       	mov    $0x4,%edx
    26b9:	44 89 44 24 20       	mov    %r8d,0x20(%rsp)
    26be:	e8 fa ec ff ff       	call   13bd <memcpy>
    26c3:	8b 4c 24 3c          	mov    0x3c(%rsp),%ecx
    26c7:	49 8d 74 24 18       	lea    0x18(%r12),%rsi
    26cc:	48 89 df             	mov    %rbx,%rdi
    26cf:	ba 04 00 00 00       	mov    $0x4,%edx
    26d4:	89 4c 24 1c          	mov    %ecx,0x1c(%rsp)
    26d8:	e8 e0 ec ff ff       	call   13bd <memcpy>
    26dd:	8b 4c 24 3c          	mov    0x3c(%rsp),%ecx
    26e1:	49 8d 74 24 1c       	lea    0x1c(%r12),%rsi
    26e6:	48 89 df             	mov    %rbx,%rdi
    26e9:	ba 04 00 00 00       	mov    $0x4,%edx
    26ee:	89 0c 24             	mov    %ecx,(%rsp)
    26f1:	e8 c7 ec ff ff       	call   13bd <memcpy>
    26f6:	8b 54 24 3c          	mov    0x3c(%rsp),%edx
    26fa:	49 8d 74 24 20       	lea    0x20(%r12),%rsi
    26ff:	48 89 df             	mov    %rbx,%rdi
    2702:	89 54 24 04          	mov    %edx,0x4(%rsp)
    2706:	ba 04 00 00 00       	mov    $0x4,%edx
    270b:	e8 ad ec ff ff       	call   13bd <memcpy>
    2710:	8b 74 24 3c          	mov    0x3c(%rsp),%esi
    2714:	48 89 df             	mov    %rbx,%rdi
    2717:	ba 04 00 00 00       	mov    $0x4,%edx
    271c:	89 74 24 08          	mov    %esi,0x8(%rsp)
    2720:	49 8d 74 24 24       	lea    0x24(%r12),%rsi
    2725:	e8 93 ec ff ff       	call   13bd <memcpy>
    272a:	8b 7c 24 3c          	mov    0x3c(%rsp),%edi
    272e:	49 8d 74 24 28       	lea    0x28(%r12),%rsi
    2733:	ba 04 00 00 00       	mov    $0x4,%edx
    2738:	89 7c 24 0c          	mov    %edi,0xc(%rsp)
    273c:	48 89 df             	mov    %rbx,%rdi
    273f:	e8 79 ec ff ff       	call   13bd <memcpy>
    2744:	44 8b 7c 24 3c       	mov    0x3c(%rsp),%r15d
    2749:	49 8d 74 24 2c       	lea    0x2c(%r12),%rsi
    274e:	48 89 df             	mov    %rbx,%rdi
    2751:	ba 04 00 00 00       	mov    $0x4,%edx
    2756:	44 89 7c 24 10       	mov    %r15d,0x10(%rsp)
    275b:	e8 5d ec ff ff       	call   13bd <memcpy>
    2760:	44 8b 4c 24 3c       	mov    0x3c(%rsp),%r9d
    2765:	49 8d 74 24 30       	lea    0x30(%r12),%rsi
    276a:	48 89 df             	mov    %rbx,%rdi
    276d:	ba 04 00 00 00       	mov    $0x4,%edx
    2772:	44 89 4c 24 14       	mov    %r9d,0x14(%rsp)
    2777:	e8 41 ec ff ff       	call   13bd <memcpy>
    277c:	49 8d 74 24 34       	lea    0x34(%r12),%rsi
    2781:	48 89 df             	mov    %rbx,%rdi
    2784:	ba 04 00 00 00       	mov    $0x4,%edx
    2789:	44 8b 7c 24 3c       	mov    0x3c(%rsp),%r15d
    278e:	e8 2a ec ff ff       	call   13bd <memcpy>
    2793:	49 8d 74 24 38       	lea    0x38(%r12),%rsi
    2798:	48 89 df             	mov    %rbx,%rdi
    279b:	ba 04 00 00 00       	mov    $0x4,%edx
    27a0:	44 8b 74 24 3c       	mov    0x3c(%rsp),%r14d
    27a5:	e8 13 ec ff ff       	call   13bd <memcpy>
    27aa:	49 8d 74 24 3c       	lea    0x3c(%r12),%rsi
    27af:	48 89 df             	mov    %rbx,%rdi
    27b2:	ba 04 00 00 00       	mov    $0x4,%edx
    27b7:	44 8b 6c 24 3c       	mov    0x3c(%rsp),%r13d
    27bc:	e8 fc eb ff ff       	call   13bd <memcpy>
    27c1:	44 8b 5c 24 2c       	mov    0x2c(%rsp),%r11d
    27c6:	44 8b 54 24 28       	mov    0x28(%rsp),%r10d
    27cb:	44 33 5c 24 44       	xor    0x44(%rsp),%r11d
    27d0:	44 33 54 24 48       	xor    0x48(%rsp),%r10d
    27d5:	44 8b 4c 24 24       	mov    0x24(%rsp),%r9d
    27da:	44 8b 44 24 20       	mov    0x20(%rsp),%r8d
    27df:	44 89 54 24 28       	mov    %r10d,0x28(%rsp)
    27e4:	44 33 4c 24 4c       	xor    0x4c(%rsp),%r9d
    27e9:	8b 4c 24 1c          	mov    0x1c(%rsp),%ecx
    27ed:	44 89 5c 24 2c       	mov    %r11d,0x2c(%rsp)
    27f2:	44 33 44 24 50       	xor    0x50(%rsp),%r8d
    27f7:	33 4c 24 54          	xor    0x54(%rsp),%ecx
    27fb:	44 89 4c 24 24       	mov    %r9d,0x24(%rsp)
    2800:	8b 54 24 04          	mov    0x4(%rsp),%edx
    2804:	8b 74 24 08          	mov    0x8(%rsp),%esi
    2808:	44 89 44 24 20       	mov    %r8d,0x20(%rsp)
    280d:	8b 7c 24 0c          	mov    0xc(%rsp),%edi
    2811:	44 8b 44 24 10       	mov    0x10(%rsp),%r8d
    2816:	89 4c 24 1c          	mov    %ecx,0x1c(%rsp)
    281a:	44 33 44 24 68       	xor    0x68(%rsp),%r8d
    281f:	8b 0c 24             	mov    (%rsp),%ecx
    2822:	33 54 24 5c          	xor    0x5c(%rsp),%edx
    2826:	33 4c 24 58          	xor    0x58(%rsp),%ecx
    282a:	44 89 44 24 10       	mov    %r8d,0x10(%rsp)
    282f:	33 74 24 60          	xor    0x60(%rsp),%esi
    2833:	33 7c 24 64          	xor    0x64(%rsp),%edi
    2837:	89 0c 24             	mov    %ecx,(%rsp)
    283a:	44 8b 4c 24 14       	mov    0x14(%rsp),%r9d
    283f:	44 33 4c 24 6c       	xor    0x6c(%rsp),%r9d
    2844:	89 54 24 04          	mov    %edx,0x4(%rsp)
    2848:	ba 04 00 00 00       	mov    $0x4,%edx
    284d:	89 74 24 08          	mov    %esi,0x8(%rsp)
    2851:	48 89 de             	mov    %rbx,%rsi
    2854:	89 7c 24 0c          	mov    %edi,0xc(%rsp)
    2858:	48 89 ef             	mov    %rbp,%rdi
    285b:	44 89 4c 24 14       	mov    %r9d,0x14(%rsp)
    2860:	8b 44 24 18          	mov    0x18(%rsp),%eax
    2864:	33 44 24 40          	xor    0x40(%rsp),%eax
    2868:	44 8b 64 24 3c       	mov    0x3c(%rsp),%r12d
    286d:	44 33 7c 24 70       	xor    0x70(%rsp),%r15d
    2872:	44 33 74 24 74       	xor    0x74(%rsp),%r14d
    2877:	89 44 24 3c          	mov    %eax,0x3c(%rsp)
    287b:	44 33 6c 24 78       	xor    0x78(%rsp),%r13d
    2880:	44 33 64 24 7c       	xor    0x7c(%rsp),%r12d
    2885:	e8 33 eb ff ff       	call   13bd <memcpy>
    288a:	44 8b 5c 24 2c       	mov    0x2c(%rsp),%r11d
    288f:	48 8d 7d 04          	lea    0x4(%rbp),%rdi
    2893:	48 89 de             	mov    %rbx,%rsi
    2896:	ba 04 00 00 00       	mov    $0x4,%edx
    289b:	44 89 5c 24 3c       	mov    %r11d,0x3c(%rsp)
    28a0:	e8 18 eb ff ff       	call   13bd <memcpy>
    28a5:	44 8b 54 24 28       	mov    0x28(%rsp),%r10d
    28aa:	48 8d 7d 08          	lea    0x8(%rbp),%rdi
    28ae:	48 89 de             	mov    %rbx,%rsi
    28b1:	ba 04 00 00 00       	mov    $0x4,%edx
    28b6:	44 89 54 24 3c       	mov    %r10d,0x3c(%rsp)
    28bb:	e8 fd ea ff ff       	call   13bd <memcpy>
    28c0:	44 8b 4c 24 24       	mov    0x24(%rsp),%r9d
    28c5:	48 8d 7d 0c          	lea    0xc(%rbp),%rdi
    28c9:	48 89 de             	mov    %rbx,%rsi
    28cc:	ba 04 00 00 00       	mov    $0x4,%edx
    28d1:	44 89 4c 24 3c       	mov    %r9d,0x3c(%rsp)
    28d6:	e8 e2 ea ff ff       	call   13bd <memcpy>
    28db:	44 8b 44 24 20       	mov    0x20(%rsp),%r8d
    28e0:	48 8d 7d 10          	lea    0x10(%rbp),%rdi
    28e4:	48 89 de             	mov    %rbx,%rsi
    28e7:	ba 04 00 00 00       	mov    $0x4,%edx
    28ec:	44 89 44 24 3c       	mov    %r8d,0x3c(%rsp)
    28f1:	e8 c7 ea ff ff       	call   13bd <memcpy>
    28f6:	8b 4c 24 1c          	mov    0x1c(%rsp),%ecx
    28fa:	48 8d 7d 14          	lea    0x14(%rbp),%rdi
    28fe:	48 89 de             	mov    %rbx,%rsi
    2901:	ba 04 00 00 00       	mov    $0x4,%edx
    2906:	89 4c 24 3c          	mov    %ecx,0x3c(%rsp)
    290a:	e8 ae ea ff ff       	call   13bd <memcpy>
    290f:	8b 0c 24             	mov    (%rsp),%ecx
    2912:	48 8d 7d 18          	lea    0x18(%rbp),%rdi
    2916:	48 89 de             	mov    %rbx,%rsi
    2919:	ba 04 00 00 00       	mov    $0x4,%edx
    291e:	89 4c 24 3c          	mov    %ecx,0x3c(%rsp)
    2922:	e8 96 ea ff ff       	call   13bd <memcpy>
    2927:	8b 54 24 04          	mov    0x4(%rsp),%edx
    292b:	48 8d 7d 1c          	lea    0x1c(%rbp),%rdi
    292f:	48 89 de             	mov    %rbx,%rsi
    2932:	89 54 24 3c          	mov    %edx,0x3c(%rsp)
    2936:	ba 04 00 00 00       	mov    $0x4,%edx
    293b:	e8 7d ea ff ff       	call   13bd <memcpy>
    2940:	8b 74 24 08          	mov    0x8(%rsp),%esi
    2944:	48 8d 7d 20          	lea    0x20(%rbp),%rdi
    2948:	ba 04 00 00 00       	mov    $0x4,%edx
    294d:	89 74 24 3c          	mov    %esi,0x3c(%rsp)
    2951:	48 89 de             	mov    %rbx,%rsi
    2954:	e8 64 ea ff ff       	call   13bd <memcpy>
    2959:	8b 7c 24 0c          	mov    0xc(%rsp),%edi
    295d:	48 89 de             	mov    %rbx,%rsi
    2960:	ba 04 00 00 00       	mov    $0x4,%edx
    2965:	89 7c 24 3c          	mov    %edi,0x3c(%rsp)
    2969:	48 8d 7d 24          	lea    0x24(%rbp),%rdi
    296d:	e8 4b ea ff ff       	call   13bd <memcpy>
    2972:	44 8b 44 24 10       	mov    0x10(%rsp),%r8d
    2977:	48 8d 7d 28          	lea    0x28(%rbp),%rdi
    297b:	48 89 de             	mov    %rbx,%rsi
    297e:	ba 04 00 00 00       	mov    $0x4,%edx
    2983:	44 89 44 24 3c       	mov    %r8d,0x3c(%rsp)
    2988:	e8 30 ea ff ff       	call   13bd <memcpy>
    298d:	44 8b 4c 24 14       	mov    0x14(%rsp),%r9d
    2992:	48 8d 7d 2c          	lea    0x2c(%rbp),%rdi
    2996:	48 89 de             	mov    %rbx,%rsi
    2999:	ba 04 00 00 00       	mov    $0x4,%edx
    299e:	44 89 4c 24 3c       	mov    %r9d,0x3c(%rsp)
    29a3:	e8 15 ea ff ff       	call   13bd <memcpy>
    29a8:	48 8d 7d 30          	lea    0x30(%rbp),%rdi
    29ac:	48 89 de             	mov    %rbx,%rsi
    29af:	ba 04 00 00 00       	mov    $0x4,%edx
    29b4:	44 89 7c 24 3c       	mov    %r15d,0x3c(%rsp)
    29b9:	e8 ff e9 ff ff       	call   13bd <memcpy>
    29be:	48 8d 7d 34          	lea    0x34(%rbp),%rdi
    29c2:	48 89 de             	mov    %rbx,%rsi
    29c5:	ba 04 00 00 00       	mov    $0x4,%edx
    29ca:	44 89 74 24 3c       	mov    %r14d,0x3c(%rsp)
    29cf:	e8 e9 e9 ff ff       	call   13bd <memcpy>
    29d4:	48 8d 7d 38          	lea    0x38(%rbp),%rdi
    29d8:	48 89 de             	mov    %rbx,%rsi
    29db:	ba 04 00 00 00       	mov    $0x4,%edx
    29e0:	44 89 6c 24 3c       	mov    %r13d,0x3c(%rsp)
    29e5:	e8 d3 e9 ff ff       	call   13bd <memcpy>
    29ea:	48 8d 7d 3c          	lea    0x3c(%rbp),%rdi
    29ee:	48 89 de             	mov    %rbx,%rsi
    29f1:	ba 04 00 00 00       	mov    $0x4,%edx
    29f6:	44 89 64 24 3c       	mov    %r12d,0x3c(%rsp)
    29fb:	e8 bd e9 ff ff       	call   13bd <memcpy>
    2a00:	48 81 c4 88 00 00 00 	add    $0x88,%rsp
    2a07:	5b                   	pop    %rbx
    2a08:	5d                   	pop    %rbp
    2a09:	41 5c                	pop    %r12
    2a0b:	41 5d                	pop    %r13
    2a0d:	41 5e                	pop    %r14
    2a0f:	41 5f                	pop    %r15
    2a11:	c3                   	ret    
    2a12:	66 66 2e 0f 1f 84 00 	data16 cs nopw 0x0(%rax,%rax,1)
    2a19:	00 00 00 00 
    2a1d:	0f 1f 00             	nopl   (%rax)

0000000000002a20 <Hacl_Impl_Chacha20_chacha20_init>:
    2a20:	f3 0f 1e fa          	endbr64 
    2a24:	41 56                	push   %r14
    2a26:	41 89 ce             	mov    %ecx,%r14d
    2a29:	41 55                	push   %r13
    2a2b:	49 89 d5             	mov    %rdx,%r13
    2a2e:	ba 04 00 00 00       	mov    $0x4,%edx
    2a33:	41 54                	push   %r12
    2a35:	55                   	push   %rbp
    2a36:	48 89 f5             	mov    %rsi,%rbp
    2a39:	53                   	push   %rbx
    2a3a:	48 89 fb             	mov    %rdi,%rbx
    2a3d:	48 83 ec 10          	sub    $0x10,%rsp
    2a41:	66 0f 6f 05 17 e3 01 	movdqa 0x1e317(%rip),%xmm0        # 20d60 <Hacl_Impl_Chacha20_Vec_chacha20_constants+0x10>
    2a48:	00 
    2a49:	4c 8d 64 24 0c       	lea    0xc(%rsp),%r12
    2a4e:	0f 11 07             	movups %xmm0,(%rdi)
    2a51:	4c 89 e7             	mov    %r12,%rdi
    2a54:	e8 64 e9 ff ff       	call   13bd <memcpy>
    2a59:	8b 44 24 0c          	mov    0xc(%rsp),%eax
    2a5d:	48 8d 75 04          	lea    0x4(%rbp),%rsi
    2a61:	4c 89 e7             	mov    %r12,%rdi
    2a64:	ba 04 00 00 00       	mov    $0x4,%edx
    2a69:	89 43 10             	mov    %eax,0x10(%rbx)
    2a6c:	e8 4c e9 ff ff       	call   13bd <memcpy>
    2a71:	8b 44 24 0c          	mov    0xc(%rsp),%eax
    2a75:	48 8d 75 08          	lea    0x8(%rbp),%rsi
    2a79:	4c 89 e7             	mov    %r12,%rdi
    2a7c:	ba 04 00 00 00       	mov    $0x4,%edx
    2a81:	89 43 14             	mov    %eax,0x14(%rbx)
    2a84:	e8 34 e9 ff ff       	call   13bd <memcpy>
    2a89:	8b 44 24 0c          	mov    0xc(%rsp),%eax
    2a8d:	48 8d 75 0c          	lea    0xc(%rbp),%rsi
    2a91:	4c 89 e7             	mov    %r12,%rdi
    2a94:	ba 04 00 00 00       	mov    $0x4,%edx
    2a99:	89 43 18             	mov    %eax,0x18(%rbx)
    2a9c:	e8 1c e9 ff ff       	call   13bd <memcpy>
    2aa1:	8b 44 24 0c          	mov    0xc(%rsp),%eax
    2aa5:	48 8d 75 10          	lea    0x10(%rbp),%rsi
    2aa9:	4c 89 e7             	mov    %r12,%rdi
    2aac:	ba 04 00 00 00       	mov    $0x4,%edx
    2ab1:	89 43 1c             	mov    %eax,0x1c(%rbx)
    2ab4:	e8 04 e9 ff ff       	call   13bd <memcpy>
    2ab9:	8b 44 24 0c          	mov    0xc(%rsp),%eax
    2abd:	48 8d 75 14          	lea    0x14(%rbp),%rsi
    2ac1:	4c 89 e7             	mov    %r12,%rdi
    2ac4:	ba 04 00 00 00       	mov    $0x4,%edx
    2ac9:	89 43 20             	mov    %eax,0x20(%rbx)
    2acc:	e8 ec e8 ff ff       	call   13bd <memcpy>
    2ad1:	8b 44 24 0c          	mov    0xc(%rsp),%eax
    2ad5:	48 8d 75 18          	lea    0x18(%rbp),%rsi
    2ad9:	4c 89 e7             	mov    %r12,%rdi
    2adc:	ba 04 00 00 00       	mov    $0x4,%edx
    2ae1:	89 43 24             	mov    %eax,0x24(%rbx)
    2ae4:	e8 d4 e8 ff ff       	call   13bd <memcpy>
    2ae9:	8b 44 24 0c          	mov    0xc(%rsp),%eax
    2aed:	48 8d 75 1c          	lea    0x1c(%rbp),%rsi
    2af1:	4c 89 e7             	mov    %r12,%rdi
    2af4:	ba 04 00 00 00       	mov    $0x4,%edx
    2af9:	89 43 28             	mov    %eax,0x28(%rbx)
    2afc:	e8 bc e8 ff ff       	call   13bd <memcpy>
    2b01:	66 41 0f 6e ce       	movd   %r14d,%xmm1
    2b06:	4c 89 ee             	mov    %r13,%rsi
    2b09:	4c 89 e7             	mov    %r12,%rdi
    2b0c:	66 0f 6e 44 24 0c    	movd   0xc(%rsp),%xmm0
    2b12:	ba 04 00 00 00       	mov    $0x4,%edx
    2b17:	66 0f 62 c1          	punpckldq %xmm1,%xmm0
    2b1b:	66 0f d6 43 2c       	movq   %xmm0,0x2c(%rbx)
    2b20:	e8 98 e8 ff ff       	call   13bd <memcpy>
    2b25:	8b 44 24 0c          	mov    0xc(%rsp),%eax
    2b29:	49 8d 75 04          	lea    0x4(%r13),%rsi
    2b2d:	4c 89 e7             	mov    %r12,%rdi
    2b30:	ba 04 00 00 00       	mov    $0x4,%edx
    2b35:	89 43 34             	mov    %eax,0x34(%rbx)
    2b38:	e8 80 e8 ff ff       	call   13bd <memcpy>
    2b3d:	8b 44 24 0c          	mov    0xc(%rsp),%eax
    2b41:	49 8d 75 08          	lea    0x8(%r13),%rsi
    2b45:	4c 89 e7             	mov    %r12,%rdi
    2b48:	ba 04 00 00 00       	mov    $0x4,%edx
    2b4d:	89 43 38             	mov    %eax,0x38(%rbx)
    2b50:	e8 68 e8 ff ff       	call   13bd <memcpy>
    2b55:	8b 44 24 0c          	mov    0xc(%rsp),%eax
    2b59:	89 43 3c             	mov    %eax,0x3c(%rbx)
    2b5c:	48 83 c4 10          	add    $0x10,%rsp
    2b60:	5b                   	pop    %rbx
    2b61:	5d                   	pop    %rbp
    2b62:	41 5c                	pop    %r12
    2b64:	41 5d                	pop    %r13
    2b66:	41 5e                	pop    %r14
    2b68:	c3                   	ret    
    2b69:	0f 1f 80 00 00 00 00 	nopl   0x0(%rax)

0000000000002b70 <Hacl_Impl_Chacha20_chacha20_update>:
    2b70:	f3 0f 1e fa          	endbr64 
    2b74:	41 57                	push   %r15
    2b76:	89 f0                	mov    %esi,%eax
    2b78:	41 56                	push   %r14
    2b7a:	83 e0 3f             	and    $0x3f,%eax
    2b7d:	41 55                	push   %r13
    2b7f:	41 54                	push   %r12
    2b81:	41 89 f4             	mov    %esi,%r12d
    2b84:	55                   	push   %rbp
    2b85:	89 f5                	mov    %esi,%ebp
    2b87:	53                   	push   %rbx
    2b88:	48 89 fb             	mov    %rdi,%rbx
    2b8b:	48 83 ec 68          	sub    $0x68,%rsp
    2b8f:	c1 ed 06             	shr    $0x6,%ebp
    2b92:	48 89 54 24 10       	mov    %rdx,0x10(%rsp)
    2b97:	48 89 4c 24 18       	mov    %rcx,0x18(%rsp)
    2b9c:	89 44 24 0c          	mov    %eax,0xc(%rsp)
    2ba0:	74 30                	je     2bd2 <Hacl_Impl_Chacha20_chacha20_update+0x62>
    2ba2:	49 89 d7             	mov    %rdx,%r15
    2ba5:	49 89 cd             	mov    %rcx,%r13
    2ba8:	45 31 f6             	xor    %r14d,%r14d
    2bab:	0f 1f 44 00 00       	nopl   0x0(%rax,%rax,1)
    2bb0:	4c 89 e9             	mov    %r13,%rcx
    2bb3:	44 89 f2             	mov    %r14d,%edx
    2bb6:	4c 89 fe             	mov    %r15,%rsi
    2bb9:	48 89 df             	mov    %rbx,%rdi
    2bbc:	41 83 c6 01          	add    $0x1,%r14d
    2bc0:	49 83 c7 40          	add    $0x40,%r15
    2bc4:	49 83 c5 40          	add    $0x40,%r13
    2bc8:	e8 53 f9 ff ff       	call   2520 <chacha20_encrypt_block>
    2bcd:	44 39 f5             	cmp    %r14d,%ebp
    2bd0:	75 de                	jne    2bb0 <Hacl_Impl_Chacha20_chacha20_update+0x40>
    2bd2:	8b 44 24 0c          	mov    0xc(%rsp),%eax
    2bd6:	85 c0                	test   %eax,%eax
    2bd8:	75 16                	jne    2bf0 <Hacl_Impl_Chacha20_chacha20_update+0x80>
    2bda:	48 83 c4 68          	add    $0x68,%rsp
    2bde:	5b                   	pop    %rbx
    2bdf:	5d                   	pop    %rbp
    2be0:	41 5c                	pop    %r12
    2be2:	41 5d                	pop    %r13
    2be4:	41 5e                	pop    %r14
    2be6:	41 5f                	pop    %r15
    2be8:	c3                   	ret    
    2be9:	0f 1f 80 00 00 00 00 	nopl   0x0(%rax)
    2bf0:	4c 8b 6c 24 10       	mov    0x10(%rsp),%r13
    2bf5:	48 8b 74 24 18       	mov    0x18(%rsp),%rsi
    2bfa:	41 83 e4 c0          	and    $0xffffffc0,%r12d
    2bfe:	66 0f ef c0          	pxor   %xmm0,%xmm0
    2c02:	44 8b 7c 24 0c       	mov    0xc(%rsp),%r15d
    2c07:	0f 29 44 24 20       	movaps %xmm0,0x20(%rsp)
    2c0c:	4d 01 e5             	add    %r12,%r13
    2c0f:	4c 01 e6             	add    %r12,%rsi
    2c12:	4c 8d 64 24 20       	lea    0x20(%rsp),%r12
    2c17:	0f 29 44 24 30       	movaps %xmm0,0x30(%rsp)
    2c1c:	4c 89 fa             	mov    %r15,%rdx
    2c1f:	4c 89 e7             	mov    %r12,%rdi
    2c22:	0f 29 44 24 40       	movaps %xmm0,0x40(%rsp)
    2c27:	0f 29 44 24 50       	movaps %xmm0,0x50(%rsp)
    2c2c:	e8 8c e7 ff ff       	call   13bd <memcpy>
    2c31:	4c 89 e1             	mov    %r12,%rcx
    2c34:	89 ea                	mov    %ebp,%edx
    2c36:	4c 89 e6             	mov    %r12,%rsi
    2c39:	48 89 df             	mov    %rbx,%rdi
    2c3c:	e8 df f8 ff ff       	call   2520 <chacha20_encrypt_block>
    2c41:	4c 89 fa             	mov    %r15,%rdx
    2c44:	4c 89 e6             	mov    %r12,%rsi
    2c47:	4c 89 ef             	mov    %r13,%rdi
    2c4a:	e8 6e e7 ff ff       	call   13bd <memcpy>
    2c4f:	48 83 c4 68          	add    $0x68,%rsp
    2c53:	5b                   	pop    %rbx
    2c54:	5d                   	pop    %rbp
    2c55:	41 5c                	pop    %r12
    2c57:	41 5d                	pop    %r13
    2c59:	41 5e                	pop    %r14
    2c5b:	41 5f                	pop    %r15
    2c5d:	c3                   	ret    
    2c5e:	66 90                	xchg   %ax,%ax

0000000000002c60 <Hacl_Chacha20_chacha20_encrypt>:
    2c60:	f3 0f 1e fa          	endbr64 
    2c64:	41 55                	push   %r13
    2c66:	66 0f ef c0          	pxor   %xmm0,%xmm0
    2c6a:	41 54                	push   %r12
    2c6c:	49 89 d4             	mov    %rdx,%r12
    2c6f:	4c 89 c2             	mov    %r8,%rdx
    2c72:	55                   	push   %rbp
    2c73:	48 89 f5             	mov    %rsi,%rbp
    2c76:	48 89 ce             	mov    %rcx,%rsi
    2c79:	44 89 c9             	mov    %r9d,%ecx
    2c7c:	53                   	push   %rbx
    2c7d:	89 fb                	mov    %edi,%ebx
    2c7f:	48 83 ec 48          	sub    $0x48,%rsp
    2c83:	49 89 e5             	mov    %rsp,%r13
    2c86:	0f 29 04 24          	movaps %xmm0,(%rsp)
    2c8a:	4c 89 ef             	mov    %r13,%rdi
    2c8d:	0f 29 44 24 10       	movaps %xmm0,0x10(%rsp)
    2c92:	0f 29 44 24 20       	movaps %xmm0,0x20(%rsp)
    2c97:	0f 29 44 24 30       	movaps %xmm0,0x30(%rsp)
    2c9c:	e8 7f fd ff ff       	call   2a20 <Hacl_Impl_Chacha20_chacha20_init>
    2ca1:	4c 89 e1             	mov    %r12,%rcx
    2ca4:	48 89 ea             	mov    %rbp,%rdx
    2ca7:	89 de                	mov    %ebx,%esi
    2ca9:	4c 89 ef             	mov    %r13,%rdi
    2cac:	e8 bf fe ff ff       	call   2b70 <Hacl_Impl_Chacha20_chacha20_update>
    2cb1:	48 83 c4 48          	add    $0x48,%rsp
    2cb5:	5b                   	pop    %rbx
    2cb6:	5d                   	pop    %rbp
    2cb7:	41 5c                	pop    %r12
    2cb9:	41 5d                	pop    %r13
    2cbb:	c3                   	ret    
    2cbc:	0f 1f 40 00          	nopl   0x0(%rax)

0000000000002cc0 <Hacl_Chacha20_chacha20_decrypt>:
    2cc0:	f3 0f 1e fa          	endbr64 
    2cc4:	41 55                	push   %r13
    2cc6:	66 0f ef c0          	pxor   %xmm0,%xmm0
    2cca:	41 54                	push   %r12
    2ccc:	49 89 d4             	mov    %rdx,%r12
    2ccf:	4c 89 c2             	mov    %r8,%rdx
    2cd2:	55                   	push   %rbp
    2cd3:	48 89 f5             	mov    %rsi,%rbp
    2cd6:	48 89 ce             	mov    %rcx,%rsi
    2cd9:	44 89 c9             	mov    %r9d,%ecx
    2cdc:	53                   	push   %rbx
    2cdd:	89 fb                	mov    %edi,%ebx
    2cdf:	48 83 ec 48          	sub    $0x48,%rsp
    2ce3:	49 89 e5             	mov    %rsp,%r13
    2ce6:	0f 29 04 24          	movaps %xmm0,(%rsp)
    2cea:	4c 89 ef             	mov    %r13,%rdi
    2ced:	0f 29 44 24 10       	movaps %xmm0,0x10(%rsp)
    2cf2:	0f 29 44 24 20       	movaps %xmm0,0x20(%rsp)
    2cf7:	0f 29 44 24 30       	movaps %xmm0,0x30(%rsp)
    2cfc:	e8 1f fd ff ff       	call   2a20 <Hacl_Impl_Chacha20_chacha20_init>
    2d01:	4c 89 e1             	mov    %r12,%rcx
    2d04:	48 89 ea             	mov    %rbp,%rdx
    2d07:	89 de                	mov    %ebx,%esi
    2d09:	4c 89 ef             	mov    %r13,%rdi
    2d0c:	e8 5f fe ff ff       	call   2b70 <Hacl_Impl_Chacha20_chacha20_update>
    2d11:	48 83 c4 48          	add    $0x48,%rsp
    2d15:	5b                   	pop    %rbx
    2d16:	5d                   	pop    %rbp
    2d17:	41 5c                	pop    %r12
    2d19:	41 5d                	pop    %r13
    2d1b:	c3                   	ret    
    2d1c:	0f 1f 40 00          	nopl   0x0(%rax)

0000000000002d20 <Hacl_HMAC_compute_md5>:
    2d20:	f3 0f 1e fa          	endbr64 
    2d24:	41 57                	push   %r15
    2d26:	41 56                	push   %r14
    2d28:	49 89 f6             	mov    %rsi,%r14
    2d2b:	31 f6                	xor    %esi,%esi
    2d2d:	41 55                	push   %r13
    2d2f:	49 89 cd             	mov    %rcx,%r13
    2d32:	41 54                	push   %r12
    2d34:	49 89 fc             	mov    %rdi,%r12
    2d37:	55                   	push   %rbp
    2d38:	89 d5                	mov    %edx,%ebp
    2d3a:	ba 40 00 00 00       	mov    $0x40,%edx
    2d3f:	53                   	push   %rbx
    2d40:	44 89 c3             	mov    %r8d,%ebx
    2d43:	48 81 ec f8 00 00 00 	sub    $0xf8,%rsp
    2d4a:	4c 8d 7c 24 30       	lea    0x30(%rsp),%r15
    2d4f:	4c 89 ff             	mov    %r15,%rdi
    2d52:	e8 82 e6 ff ff       	call   13d9 <memset>
    2d57:	83 fd 40             	cmp    $0x40,%ebp
    2d5a:	0f 87 e2 01 00 00    	ja     2f42 <Hacl_HMAC_compute_md5+0x222>
    2d60:	89 ea                	mov    %ebp,%edx
    2d62:	4c 89 f6             	mov    %r14,%rsi
    2d65:	4c 89 ff             	mov    %r15,%rdi
    2d68:	e8 50 e6 ff ff       	call   13bd <memcpy>
    2d6d:	48 8d 6c 24 70       	lea    0x70(%rsp),%rbp
    2d72:	ba 40 00 00 00       	mov    $0x40,%edx
    2d77:	be 36 00 00 00       	mov    $0x36,%esi
    2d7c:	48 89 ef             	mov    %rbp,%rdi
    2d7f:	4c 8d b4 24 b0 00 00 	lea    0xb0(%rsp),%r14
    2d86:	00 
    2d87:	e8 4d e6 ff ff       	call   13d9 <memset>
    2d8c:	66 0f 6f 44 24 70    	movdqa 0x70(%rsp),%xmm0
    2d92:	ba 40 00 00 00       	mov    $0x40,%edx
    2d97:	4c 89 f7             	mov    %r14,%rdi
    2d9a:	66 0f ef 44 24 30    	pxor   0x30(%rsp),%xmm0
    2da0:	be 5c 00 00 00       	mov    $0x5c,%esi
    2da5:	0f 29 44 24 70       	movaps %xmm0,0x70(%rsp)
    2daa:	66 0f 6f 84 24 80 00 	movdqa 0x80(%rsp),%xmm0
    2db1:	00 00 
    2db3:	66 0f ef 44 24 40    	pxor   0x40(%rsp),%xmm0
    2db9:	0f 29 84 24 80 00 00 	movaps %xmm0,0x80(%rsp)
    2dc0:	00 
    2dc1:	66 0f 6f 84 24 90 00 	movdqa 0x90(%rsp),%xmm0
    2dc8:	00 00 
    2dca:	66 0f ef 44 24 50    	pxor   0x50(%rsp),%xmm0
    2dd0:	0f 29 84 24 90 00 00 	movaps %xmm0,0x90(%rsp)
    2dd7:	00 
    2dd8:	66 0f 6f 84 24 a0 00 	movdqa 0xa0(%rsp),%xmm0
    2ddf:	00 00 
    2de1:	66 0f ef 44 24 60    	pxor   0x60(%rsp),%xmm0
    2de7:	0f 29 84 24 a0 00 00 	movaps %xmm0,0xa0(%rsp)
    2dee:	00 
    2def:	e8 e5 e5 ff ff       	call   13d9 <memset>
    2df4:	66 0f 6f 84 24 b0 00 	movdqa 0xb0(%rsp),%xmm0
    2dfb:	00 00 
    2dfd:	66 0f ef 44 24 30    	pxor   0x30(%rsp),%xmm0
    2e03:	0f 29 84 24 b0 00 00 	movaps %xmm0,0xb0(%rsp)
    2e0a:	00 
    2e0b:	66 0f 6f 84 24 c0 00 	movdqa 0xc0(%rsp),%xmm0
    2e12:	00 00 
    2e14:	66 0f ef 44 24 40    	pxor   0x40(%rsp),%xmm0
    2e1a:	0f 29 84 24 c0 00 00 	movaps %xmm0,0xc0(%rsp)
    2e21:	00 
    2e22:	66 0f 6f 84 24 d0 00 	movdqa 0xd0(%rsp),%xmm0
    2e29:	00 00 
    2e2b:	66 0f ef 44 24 50    	pxor   0x50(%rsp),%xmm0
    2e31:	0f 29 84 24 d0 00 00 	movaps %xmm0,0xd0(%rsp)
    2e38:	00 
    2e39:	66 0f 6f 84 24 e0 00 	movdqa 0xe0(%rsp),%xmm0
    2e40:	00 00 
    2e42:	66 0f ef 44 24 60    	pxor   0x60(%rsp),%xmm0
    2e48:	0f 29 84 24 e0 00 00 	movaps %xmm0,0xe0(%rsp)
    2e4f:	00 
    2e50:	66 0f 6f 05 18 df 01 	movdqa 0x1df18(%rip),%xmm0        # 20d70 <Hacl_Impl_Chacha20_Vec_chacha20_constants+0x20>
    2e57:	00 
    2e58:	0f 29 44 24 20       	movaps %xmm0,0x20(%rsp)
    2e5d:	85 db                	test   %ebx,%ebx
    2e5f:	0f 84 f9 00 00 00    	je     2f5e <Hacl_HMAC_compute_md5+0x23e>
    2e65:	89 d9                	mov    %ebx,%ecx
    2e67:	41 89 df             	mov    %ebx,%r15d
    2e6a:	c1 e9 06             	shr    $0x6,%ecx
    2e6d:	41 83 e7 3f          	and    $0x3f,%r15d
    2e71:	83 fb 3f             	cmp    $0x3f,%ebx
    2e74:	0f 86 da 00 00 00    	jbe    2f54 <Hacl_HMAC_compute_md5+0x234>
    2e7a:	45 85 ff             	test   %r15d,%r15d
    2e7d:	0f 85 d1 00 00 00    	jne    2f54 <Hacl_HMAC_compute_md5+0x234>
    2e83:	83 e9 01             	sub    $0x1,%ecx
    2e86:	89 c8                	mov    %ecx,%eax
    2e88:	c1 e0 06             	shl    $0x6,%eax
    2e8b:	29 c3                	sub    %eax,%ebx
    2e8d:	41 89 df             	mov    %ebx,%r15d
    2e90:	48 8d 5c 24 20       	lea    0x20(%rsp),%rbx
    2e95:	89 4c 24 1c          	mov    %ecx,0x1c(%rsp)
    2e99:	ba 01 00 00 00       	mov    $0x1,%edx
    2e9e:	48 89 ee             	mov    %rbp,%rsi
    2ea1:	49 8d 4c 05 00       	lea    0x0(%r13,%rax,1),%rcx
    2ea6:	48 89 df             	mov    %rbx,%rdi
    2ea9:	48 89 44 24 10       	mov    %rax,0x10(%rsp)
    2eae:	48 89 4c 24 08       	mov    %rcx,0x8(%rsp)
    2eb3:	e8 08 93 00 00       	call   c1c0 <Hacl_Hash_MD5_update_multi>
    2eb8:	8b 54 24 1c          	mov    0x1c(%rsp),%edx
    2ebc:	4c 89 ee             	mov    %r13,%rsi
    2ebf:	48 89 df             	mov    %rbx,%rdi
    2ec2:	e8 f9 92 00 00       	call   c1c0 <Hacl_Hash_MD5_update_multi>
    2ec7:	48 8b 44 24 10       	mov    0x10(%rsp),%rax
    2ecc:	44 89 f9             	mov    %r15d,%ecx
    2ecf:	48 89 df             	mov    %rbx,%rdi
    2ed2:	48 8b 54 24 08       	mov    0x8(%rsp),%rdx
    2ed7:	48 8d 70 40          	lea    0x40(%rax),%rsi
    2edb:	e8 d0 a9 00 00       	call   d8b0 <Hacl_Hash_MD5_update_last>
    2ee0:	48 89 ee             	mov    %rbp,%rsi
    2ee3:	48 89 df             	mov    %rbx,%rdi
    2ee6:	e8 55 92 00 00       	call   c140 <Hacl_Hash_MD5_finish>
    2eeb:	48 89 df             	mov    %rbx,%rdi
    2eee:	e8 3d 92 00 00       	call   c130 <Hacl_Hash_MD5_init>
    2ef3:	4c 89 f6             	mov    %r14,%rsi
    2ef6:	48 89 df             	mov    %rbx,%rdi
    2ef9:	ba 01 00 00 00       	mov    $0x1,%edx
    2efe:	e8 bd 92 00 00       	call   c1c0 <Hacl_Hash_MD5_update_multi>
    2f03:	48 89 ee             	mov    %rbp,%rsi
    2f06:	48 89 df             	mov    %rbx,%rdi
    2f09:	31 d2                	xor    %edx,%edx
    2f0b:	e8 b0 92 00 00       	call   c1c0 <Hacl_Hash_MD5_update_multi>
    2f10:	48 89 ea             	mov    %rbp,%rdx
    2f13:	48 89 df             	mov    %rbx,%rdi
    2f16:	b9 10 00 00 00       	mov    $0x10,%ecx
    2f1b:	be 40 00 00 00       	mov    $0x40,%esi
    2f20:	e8 8b a9 00 00       	call   d8b0 <Hacl_Hash_MD5_update_last>
    2f25:	4c 89 e6             	mov    %r12,%rsi
    2f28:	48 89 df             	mov    %rbx,%rdi
    2f2b:	e8 10 92 00 00       	call   c140 <Hacl_Hash_MD5_finish>
    2f30:	48 81 c4 f8 00 00 00 	add    $0xf8,%rsp
    2f37:	5b                   	pop    %rbx
    2f38:	5d                   	pop    %rbp
    2f39:	41 5c                	pop    %r12
    2f3b:	41 5d                	pop    %r13
    2f3d:	41 5e                	pop    %r14
    2f3f:	41 5f                	pop    %r15
    2f41:	c3                   	ret    
    2f42:	89 ea                	mov    %ebp,%edx
    2f44:	4c 89 f6             	mov    %r14,%rsi
    2f47:	4c 89 ff             	mov    %r15,%rdi
    2f4a:	e8 41 ab 00 00       	call   da90 <Hacl_Hash_MD5_hash_oneshot>
    2f4f:	e9 19 fe ff ff       	jmp    2d6d <Hacl_HMAC_compute_md5+0x4d>
    2f54:	89 c8                	mov    %ecx,%eax
    2f56:	c1 e0 06             	shl    $0x6,%eax
    2f59:	e9 32 ff ff ff       	jmp    2e90 <Hacl_HMAC_compute_md5+0x170>
    2f5e:	48 8d 5c 24 20       	lea    0x20(%rsp),%rbx
    2f63:	b9 40 00 00 00       	mov    $0x40,%ecx
    2f68:	48 89 ea             	mov    %rbp,%rdx
    2f6b:	31 f6                	xor    %esi,%esi
    2f6d:	48 89 df             	mov    %rbx,%rdi
    2f70:	e8 3b a9 00 00       	call   d8b0 <Hacl_Hash_MD5_update_last>
    2f75:	e9 66 ff ff ff       	jmp    2ee0 <Hacl_HMAC_compute_md5+0x1c0>
    2f7a:	66 0f 1f 44 00 00    	nopw   0x0(%rax,%rax,1)

0000000000002f80 <Hacl_HMAC_compute_sha1>:
    2f80:	f3 0f 1e fa          	endbr64 
    2f84:	41 57                	push   %r15
    2f86:	41 56                	push   %r14
    2f88:	49 89 f6             	mov    %rsi,%r14
    2f8b:	31 f6                	xor    %esi,%esi
    2f8d:	41 55                	push   %r13
    2f8f:	49 89 cd             	mov    %rcx,%r13
    2f92:	41 54                	push   %r12
    2f94:	49 89 fc             	mov    %rdi,%r12
    2f97:	55                   	push   %rbp
    2f98:	89 d5                	mov    %edx,%ebp
    2f9a:	ba 40 00 00 00       	mov    $0x40,%edx
    2f9f:	53                   	push   %rbx
    2fa0:	44 89 c3             	mov    %r8d,%ebx
    2fa3:	48 81 ec 08 01 00 00 	sub    $0x108,%rsp
    2faa:	4c 8d 7c 24 40       	lea    0x40(%rsp),%r15
    2faf:	4c 89 ff             	mov    %r15,%rdi
    2fb2:	e8 22 e4 ff ff       	call   13d9 <memset>
    2fb7:	83 fd 40             	cmp    $0x40,%ebp
    2fba:	0f 87 f3 01 00 00    	ja     31b3 <Hacl_HMAC_compute_sha1+0x233>
    2fc0:	89 ea                	mov    %ebp,%edx
    2fc2:	4c 89 f6             	mov    %r14,%rsi
    2fc5:	4c 89 ff             	mov    %r15,%rdi
    2fc8:	e8 f0 e3 ff ff       	call   13bd <memcpy>
    2fcd:	48 8d ac 24 80 00 00 	lea    0x80(%rsp),%rbp
    2fd4:	00 
    2fd5:	ba 40 00 00 00       	mov    $0x40,%edx
    2fda:	be 36 00 00 00       	mov    $0x36,%esi
    2fdf:	48 89 ef             	mov    %rbp,%rdi
    2fe2:	4c 8d b4 24 c0 00 00 	lea    0xc0(%rsp),%r14
    2fe9:	00 
    2fea:	e8 ea e3 ff ff       	call   13d9 <memset>
    2fef:	ba 40 00 00 00       	mov    $0x40,%edx
    2ff4:	be 5c 00 00 00       	mov    $0x5c,%esi
    2ff9:	4c 89 f7             	mov    %r14,%rdi
    2ffc:	66 0f 6f 84 24 80 00 	movdqa 0x80(%rsp),%xmm0
    3003:	00 00 
    3005:	66 0f ef 44 24 40    	pxor   0x40(%rsp),%xmm0
    300b:	0f 29 84 24 80 00 00 	movaps %xmm0,0x80(%rsp)
    3012:	00 
    3013:	66 0f 6f 84 24 90 00 	movdqa 0x90(%rsp),%xmm0
    301a:	00 00 
    301c:	66 0f ef 44 24 50    	pxor   0x50(%rsp),%xmm0
    3022:	0f 29 84 24 90 00 00 	movaps %xmm0,0x90(%rsp)
    3029:	00 
    302a:	66 0f 6f 84 24 a0 00 	movdqa 0xa0(%rsp),%xmm0
    3031:	00 00 
    3033:	66 0f ef 44 24 60    	pxor   0x60(%rsp),%xmm0
    3039:	0f 29 84 24 a0 00 00 	movaps %xmm0,0xa0(%rsp)
    3040:	00 
    3041:	66 0f 6f 84 24 b0 00 	movdqa 0xb0(%rsp),%xmm0
    3048:	00 00 
    304a:	66 0f ef 44 24 70    	pxor   0x70(%rsp),%xmm0
    3050:	0f 29 84 24 b0 00 00 	movaps %xmm0,0xb0(%rsp)
    3057:	00 
    3058:	e8 7c e3 ff ff       	call   13d9 <memset>
    305d:	c7 44 24 30 f0 e1 d2 	movl   $0xc3d2e1f0,0x30(%rsp)
    3064:	c3 
    3065:	66 0f 6f 84 24 c0 00 	movdqa 0xc0(%rsp),%xmm0
    306c:	00 00 
    306e:	66 0f ef 44 24 40    	pxor   0x40(%rsp),%xmm0
    3074:	0f 29 84 24 c0 00 00 	movaps %xmm0,0xc0(%rsp)
    307b:	00 
    307c:	66 0f 6f 84 24 d0 00 	movdqa 0xd0(%rsp),%xmm0
    3083:	00 00 
    3085:	66 0f ef 44 24 50    	pxor   0x50(%rsp),%xmm0
    308b:	0f 29 84 24 d0 00 00 	movaps %xmm0,0xd0(%rsp)
    3092:	00 
    3093:	66 0f 6f 84 24 e0 00 	movdqa 0xe0(%rsp),%xmm0
    309a:	00 00 
    309c:	66 0f ef 44 24 60    	pxor   0x60(%rsp),%xmm0
    30a2:	0f 29 84 24 e0 00 00 	movaps %xmm0,0xe0(%rsp)
    30a9:	00 
    30aa:	66 0f 6f 84 24 f0 00 	movdqa 0xf0(%rsp),%xmm0
    30b1:	00 00 
    30b3:	66 0f ef 44 24 70    	pxor   0x70(%rsp),%xmm0
    30b9:	0f 29 84 24 f0 00 00 	movaps %xmm0,0xf0(%rsp)
    30c0:	00 
    30c1:	66 0f 6f 05 a7 dc 01 	movdqa 0x1dca7(%rip),%xmm0        # 20d70 <Hacl_Impl_Chacha20_Vec_chacha20_constants+0x20>
    30c8:	00 
    30c9:	0f 29 44 24 20       	movaps %xmm0,0x20(%rsp)
    30ce:	85 db                	test   %ebx,%ebx
    30d0:	0f 84 f9 00 00 00    	je     31cf <Hacl_HMAC_compute_sha1+0x24f>
    30d6:	89 d9                	mov    %ebx,%ecx
    30d8:	41 89 df             	mov    %ebx,%r15d
    30db:	c1 e9 06             	shr    $0x6,%ecx
    30de:	41 83 e7 3f          	and    $0x3f,%r15d
    30e2:	83 fb 3f             	cmp    $0x3f,%ebx
    30e5:	0f 86 da 00 00 00    	jbe    31c5 <Hacl_HMAC_compute_sha1+0x245>
    30eb:	45 85 ff             	test   %r15d,%r15d
    30ee:	0f 85 d1 00 00 00    	jne    31c5 <Hacl_HMAC_compute_sha1+0x245>
    30f4:	83 e9 01             	sub    $0x1,%ecx
    30f7:	89 c8                	mov    %ecx,%eax
    30f9:	c1 e0 06             	shl    $0x6,%eax
    30fc:	29 c3                	sub    %eax,%ebx
    30fe:	41 89 df             	mov    %ebx,%r15d
    3101:	48 8d 5c 24 20       	lea    0x20(%rsp),%rbx
    3106:	89 4c 24 1c          	mov    %ecx,0x1c(%rsp)
    310a:	ba 01 00 00 00       	mov    $0x1,%edx
    310f:	48 89 ee             	mov    %rbp,%rsi
    3112:	49 8d 4c 05 00       	lea    0x0(%r13,%rax,1),%rcx
    3117:	48 89 df             	mov    %rbx,%rdi
    311a:	48 89 44 24 10       	mov    %rax,0x10(%rsp)
    311f:	48 89 4c 24 08       	mov    %rcx,0x8(%rsp)
    3124:	e8 27 b1 00 00       	call   e250 <Hacl_Hash_SHA1_update_multi>
    3129:	8b 54 24 1c          	mov    0x1c(%rsp),%edx
    312d:	4c 89 ee             	mov    %r13,%rsi
    3130:	48 89 df             	mov    %rbx,%rdi
    3133:	e8 18 b1 00 00       	call   e250 <Hacl_Hash_SHA1_update_multi>
    3138:	48 8b 44 24 10       	mov    0x10(%rsp),%rax
    313d:	44 89 f9             	mov    %r15d,%ecx
    3140:	48 89 df             	mov    %rbx,%rdi
    3143:	48 8b 54 24 08       	mov    0x8(%rsp),%rdx
    3148:	48 8d 70 40          	lea    0x40(%rax),%rsi
    314c:	e8 4f b1 00 00       	call   e2a0 <Hacl_Hash_SHA1_update_last>
    3151:	48 89 ee             	mov    %rbp,%rsi
    3154:	48 89 df             	mov    %rbx,%rdi
    3157:	e8 54 b0 00 00       	call   e1b0 <Hacl_Hash_SHA1_finish>
    315c:	48 89 df             	mov    %rbx,%rdi
    315f:	e8 2c b0 00 00       	call   e190 <Hacl_Hash_SHA1_init>
    3164:	4c 89 f6             	mov    %r14,%rsi
    3167:	48 89 df             	mov    %rbx,%rdi
    316a:	ba 01 00 00 00       	mov    $0x1,%edx
    316f:	e8 dc b0 00 00       	call   e250 <Hacl_Hash_SHA1_update_multi>
    3174:	48 89 ee             	mov    %rbp,%rsi
    3177:	48 89 df             	mov    %rbx,%rdi
    317a:	31 d2                	xor    %edx,%edx
    317c:	e8 cf b0 00 00       	call   e250 <Hacl_Hash_SHA1_update_multi>
    3181:	48 89 ea             	mov    %rbp,%rdx
    3184:	48 89 df             	mov    %rbx,%rdi
    3187:	b9 14 00 00 00       	mov    $0x14,%ecx
    318c:	be 40 00 00 00       	mov    $0x40,%esi
    3191:	e8 0a b1 00 00       	call   e2a0 <Hacl_Hash_SHA1_update_last>
    3196:	4c 89 e6             	mov    %r12,%rsi
    3199:	48 89 df             	mov    %rbx,%rdi
    319c:	e8 0f b0 00 00       	call   e1b0 <Hacl_Hash_SHA1_finish>
    31a1:	48 81 c4 08 01 00 00 	add    $0x108,%rsp
    31a8:	5b                   	pop    %rbx
    31a9:	5d                   	pop    %rbp
    31aa:	41 5c                	pop    %r12
    31ac:	41 5d                	pop    %r13
    31ae:	41 5e                	pop    %r14
    31b0:	41 5f                	pop    %r15
    31b2:	c3                   	ret    
    31b3:	89 ea                	mov    %ebp,%edx
    31b5:	4c 89 f6             	mov    %r14,%rsi
    31b8:	4c 89 ff             	mov    %r15,%rdi
    31bb:	e8 c0 b2 00 00       	call   e480 <Hacl_Hash_SHA1_hash_oneshot>
    31c0:	e9 08 fe ff ff       	jmp    2fcd <Hacl_HMAC_compute_sha1+0x4d>
    31c5:	89 c8                	mov    %ecx,%eax
    31c7:	c1 e0 06             	shl    $0x6,%eax
    31ca:	e9 32 ff ff ff       	jmp    3101 <Hacl_HMAC_compute_sha1+0x181>
    31cf:	48 8d 5c 24 20       	lea    0x20(%rsp),%rbx
    31d4:	b9 40 00 00 00       	mov    $0x40,%ecx
    31d9:	48 89 ea             	mov    %rbp,%rdx
    31dc:	31 f6                	xor    %esi,%esi
    31de:	48 89 df             	mov    %rbx,%rdi
    31e1:	e8 ba b0 00 00       	call   e2a0 <Hacl_Hash_SHA1_update_last>
    31e6:	e9 66 ff ff ff       	jmp    3151 <Hacl_HMAC_compute_sha1+0x1d1>
    31eb:	0f 1f 44 00 00       	nopl   0x0(%rax,%rax,1)

00000000000031f0 <Hacl_HMAC_compute_sha2_224>:
    31f0:	f3 0f 1e fa          	endbr64 
    31f4:	41 57                	push   %r15
    31f6:	41 56                	push   %r14
    31f8:	49 89 f6             	mov    %rsi,%r14
    31fb:	31 f6                	xor    %esi,%esi
    31fd:	41 55                	push   %r13
    31ff:	49 89 cd             	mov    %rcx,%r13
    3202:	41 54                	push   %r12
    3204:	49 89 fc             	mov    %rdi,%r12
    3207:	55                   	push   %rbp
    3208:	89 d5                	mov    %edx,%ebp
    320a:	ba 40 00 00 00       	mov    $0x40,%edx
    320f:	53                   	push   %rbx
    3210:	44 89 c3             	mov    %r8d,%ebx
    3213:	48 81 ec 08 01 00 00 	sub    $0x108,%rsp
    321a:	4c 8d 7c 24 40       	lea    0x40(%rsp),%r15
    321f:	4c 89 ff             	mov    %r15,%rdi
    3222:	e8 b2 e1 ff ff       	call   13d9 <memset>
    3227:	83 fd 40             	cmp    $0x40,%ebp
    322a:	0f 87 fc 01 00 00    	ja     342c <Hacl_HMAC_compute_sha2_224+0x23c>
    3230:	89 ea                	mov    %ebp,%edx
    3232:	4c 89 f6             	mov    %r14,%rsi
    3235:	4c 89 ff             	mov    %r15,%rdi
    3238:	e8 80 e1 ff ff       	call   13bd <memcpy>
    323d:	48 8d ac 24 80 00 00 	lea    0x80(%rsp),%rbp
    3244:	00 
    3245:	ba 40 00 00 00       	mov    $0x40,%edx
    324a:	be 36 00 00 00       	mov    $0x36,%esi
    324f:	48 89 ef             	mov    %rbp,%rdi
    3252:	4c 8d b4 24 c0 00 00 	lea    0xc0(%rsp),%r14
    3259:	00 
    325a:	e8 7a e1 ff ff       	call   13d9 <memset>
    325f:	ba 40 00 00 00       	mov    $0x40,%edx
    3264:	be 5c 00 00 00       	mov    $0x5c,%esi
    3269:	4c 89 f7             	mov    %r14,%rdi
    326c:	66 0f 6f 84 24 80 00 	movdqa 0x80(%rsp),%xmm0
    3273:	00 00 
    3275:	66 0f ef 44 24 40    	pxor   0x40(%rsp),%xmm0
    327b:	0f 29 84 24 80 00 00 	movaps %xmm0,0x80(%rsp)
    3282:	00 
    3283:	66 0f 6f 84 24 90 00 	movdqa 0x90(%rsp),%xmm0
    328a:	00 00 
    328c:	66 0f ef 44 24 50    	pxor   0x50(%rsp),%xmm0
    3292:	0f 29 84 24 90 00 00 	movaps %xmm0,0x90(%rsp)
    3299:	00 
    329a:	66 0f 6f 84 24 a0 00 	movdqa 0xa0(%rsp),%xmm0
    32a1:	00 00 
    32a3:	66 0f ef 44 24 60    	pxor   0x60(%rsp),%xmm0
    32a9:	0f 29 84 24 a0 00 00 	movaps %xmm0,0xa0(%rsp)
    32b0:	00 
    32b1:	66 0f 6f 84 24 b0 00 	movdqa 0xb0(%rsp),%xmm0
    32b8:	00 00 
    32ba:	66 0f ef 44 24 70    	pxor   0x70(%rsp),%xmm0
    32c0:	0f 29 84 24 b0 00 00 	movaps %xmm0,0xb0(%rsp)
    32c7:	00 
    32c8:	e8 0c e1 ff ff       	call   13d9 <memset>
    32cd:	66 0f 6f 84 24 c0 00 	movdqa 0xc0(%rsp),%xmm0
    32d4:	00 00 
    32d6:	66 0f ef 44 24 40    	pxor   0x40(%rsp),%xmm0
    32dc:	0f 29 84 24 c0 00 00 	movaps %xmm0,0xc0(%rsp)
    32e3:	00 
    32e4:	66 0f 6f 84 24 d0 00 	movdqa 0xd0(%rsp),%xmm0
    32eb:	00 00 
    32ed:	66 0f ef 44 24 50    	pxor   0x50(%rsp),%xmm0
    32f3:	0f 29 84 24 d0 00 00 	movaps %xmm0,0xd0(%rsp)
    32fa:	00 
    32fb:	66 0f 6f 84 24 e0 00 	movdqa 0xe0(%rsp),%xmm0
    3302:	00 00 
    3304:	66 0f ef 44 24 60    	pxor   0x60(%rsp),%xmm0
    330a:	0f 29 84 24 e0 00 00 	movaps %xmm0,0xe0(%rsp)
    3311:	00 
    3312:	66 0f 6f 84 24 f0 00 	movdqa 0xf0(%rsp),%xmm0
    3319:	00 00 
    331b:	66 0f ef 44 24 70    	pxor   0x70(%rsp),%xmm0
    3321:	0f 29 84 24 f0 00 00 	movaps %xmm0,0xf0(%rsp)
    3328:	00 
    3329:	66 0f 6f 05 4f da 01 	movdqa 0x1da4f(%rip),%xmm0        # 20d80 <Hacl_Impl_Chacha20_Vec_chacha20_constants+0x30>
    3330:	00 
    3331:	0f 29 44 24 20       	movaps %xmm0,0x20(%rsp)
    3336:	66 0f 6f 05 52 da 01 	movdqa 0x1da52(%rip),%xmm0        # 20d90 <Hacl_Impl_Chacha20_Vec_chacha20_constants+0x40>
    333d:	00 
    333e:	0f 29 44 24 30       	movaps %xmm0,0x30(%rsp)
    3343:	85 db                	test   %ebx,%ebx
    3345:	0f 84 fb 00 00 00    	je     3446 <Hacl_HMAC_compute_sha2_224+0x256>
    334b:	89 d8                	mov    %ebx,%eax
    334d:	41 89 df             	mov    %ebx,%r15d
    3350:	c1 e8 06             	shr    $0x6,%eax
    3353:	41 83 e7 3f          	and    $0x3f,%r15d
    3357:	83 fb 3f             	cmp    $0x3f,%ebx
    335a:	0f 86 de 00 00 00    	jbe    343e <Hacl_HMAC_compute_sha2_224+0x24e>
    3360:	45 85 ff             	test   %r15d,%r15d
    3363:	0f 85 d5 00 00 00    	jne    343e <Hacl_HMAC_compute_sha2_224+0x24e>
    3369:	83 e8 01             	sub    $0x1,%eax
    336c:	c1 e0 06             	shl    $0x6,%eax
    336f:	29 c3                	sub    %eax,%ebx
    3371:	41 89 df             	mov    %ebx,%r15d
    3374:	89 c1                	mov    %eax,%ecx
    3376:	48 8d 5c 24 20       	lea    0x20(%rsp),%rbx
    337b:	89 44 24 1c          	mov    %eax,0x1c(%rsp)
    337f:	48 89 ee             	mov    %rbp,%rsi
    3382:	49 8d 44 0d 00       	lea    0x0(%r13,%rcx,1),%rax
    3387:	48 89 da             	mov    %rbx,%rdx
    338a:	bf 40 00 00 00       	mov    $0x40,%edi
    338f:	48 89 4c 24 10       	mov    %rcx,0x10(%rsp)
    3394:	48 89 44 24 08       	mov    %rax,0x8(%rsp)
    3399:	e8 12 23 01 00       	call   156b0 <Hacl_Hash_SHA2_sha224_update_nblocks>
    339e:	8b 7c 24 1c          	mov    0x1c(%rsp),%edi
    33a2:	48 89 da             	mov    %rbx,%rdx
    33a5:	4c 89 ee             	mov    %r13,%rsi
    33a8:	e8 03 23 01 00       	call   156b0 <Hacl_Hash_SHA2_sha224_update_nblocks>
    33ad:	48 8b 4c 24 10       	mov    0x10(%rsp),%rcx
    33b2:	44 89 f8             	mov    %r15d,%eax
    33b5:	44 89 fe             	mov    %r15d,%esi
    33b8:	48 8b 54 24 08       	mov    0x8(%rsp),%rdx
    33bd:	48 8d 7c 01 40       	lea    0x40(%rcx,%rax,1),%rdi
    33c2:	48 89 d9             	mov    %rbx,%rcx
    33c5:	e8 f6 22 01 00       	call   156c0 <Hacl_Hash_SHA2_sha224_update_last>
    33ca:	48 89 ee             	mov    %rbp,%rsi
    33cd:	48 89 df             	mov    %rbx,%rdi
    33d0:	e8 fb 22 01 00       	call   156d0 <Hacl_Hash_SHA2_sha224_finish>
    33d5:	48 89 df             	mov    %rbx,%rdi
    33d8:	e8 b3 22 01 00       	call   15690 <Hacl_Hash_SHA2_sha224_init>
    33dd:	48 89 da             	mov    %rbx,%rdx
    33e0:	4c 89 f6             	mov    %r14,%rsi
    33e3:	bf 40 00 00 00       	mov    $0x40,%edi
    33e8:	e8 c3 22 01 00       	call   156b0 <Hacl_Hash_SHA2_sha224_update_nblocks>
    33ed:	48 89 da             	mov    %rbx,%rdx
    33f0:	48 89 ee             	mov    %rbp,%rsi
    33f3:	31 ff                	xor    %edi,%edi
    33f5:	e8 b6 22 01 00       	call   156b0 <Hacl_Hash_SHA2_sha224_update_nblocks>
    33fa:	48 89 d9             	mov    %rbx,%rcx
    33fd:	48 89 ea             	mov    %rbp,%rdx
    3400:	be 1c 00 00 00       	mov    $0x1c,%esi
    3405:	bf 5c 00 00 00       	mov    $0x5c,%edi
    340a:	e8 b1 22 01 00       	call   156c0 <Hacl_Hash_SHA2_sha224_update_last>
    340f:	4c 89 e6             	mov    %r12,%rsi
    3412:	48 89 df             	mov    %rbx,%rdi
    3415:	e8 b6 22 01 00       	call   156d0 <Hacl_Hash_SHA2_sha224_finish>
    341a:	48 81 c4 08 01 00 00 	add    $0x108,%rsp
    3421:	5b                   	pop    %rbx
    3422:	5d                   	pop    %rbp
    3423:	41 5c                	pop    %r12
    3425:	41 5d                	pop    %r13
    3427:	41 5e                	pop    %r14
    3429:	41 5f                	pop    %r15
    342b:	c3                   	ret    
    342c:	89 ea                	mov    %ebp,%edx
    342e:	4c 89 f6             	mov    %r14,%rsi
    3431:	4c 89 ff             	mov    %r15,%rdi
    3434:	e8 37 31 01 00       	call   16570 <Hacl_Hash_SHA2_hash_224>
    3439:	e9 ff fd ff ff       	jmp    323d <Hacl_HMAC_compute_sha2_224+0x4d>
    343e:	c1 e0 06             	shl    $0x6,%eax
    3441:	e9 2e ff ff ff       	jmp    3374 <Hacl_HMAC_compute_sha2_224+0x184>
    3446:	48 8d 5c 24 20       	lea    0x20(%rsp),%rbx
    344b:	48 89 ea             	mov    %rbp,%rdx
    344e:	be 40 00 00 00       	mov    $0x40,%esi
    3453:	bf 40 00 00 00       	mov    $0x40,%edi
    3458:	48 89 d9             	mov    %rbx,%rcx
    345b:	e8 60 22 01 00       	call   156c0 <Hacl_Hash_SHA2_sha224_update_last>
    3460:	e9 65 ff ff ff       	jmp    33ca <Hacl_HMAC_compute_sha2_224+0x1da>
    3465:	66 66 2e 0f 1f 84 00 	data16 cs nopw 0x0(%rax,%rax,1)
    346c:	00 00 00 00 

0000000000003470 <Hacl_HMAC_compute_sha2_256>:
    3470:	f3 0f 1e fa          	endbr64 
    3474:	41 57                	push   %r15
    3476:	41 56                	push   %r14
    3478:	49 89 f6             	mov    %rsi,%r14
    347b:	31 f6                	xor    %esi,%esi
    347d:	41 55                	push   %r13
    347f:	49 89 cd             	mov    %rcx,%r13
    3482:	41 54                	push   %r12
    3484:	49 89 fc             	mov    %rdi,%r12
    3487:	55                   	push   %rbp
    3488:	89 d5                	mov    %edx,%ebp
    348a:	ba 40 00 00 00       	mov    $0x40,%edx
    348f:	53                   	push   %rbx
    3490:	44 89 c3             	mov    %r8d,%ebx
    3493:	48 81 ec 08 01 00 00 	sub    $0x108,%rsp
    349a:	4c 8d 7c 24 40       	lea    0x40(%rsp),%r15
    349f:	4c 89 ff             	mov    %r15,%rdi
    34a2:	e8 32 df ff ff       	call   13d9 <memset>
    34a7:	83 fd 40             	cmp    $0x40,%ebp
    34aa:	0f 87 fc 01 00 00    	ja     36ac <Hacl_HMAC_compute_sha2_256+0x23c>
    34b0:	89 ea                	mov    %ebp,%edx
    34b2:	4c 89 f6             	mov    %r14,%rsi
    34b5:	4c 89 ff             	mov    %r15,%rdi
    34b8:	e8 00 df ff ff       	call   13bd <memcpy>
    34bd:	48 8d ac 24 80 00 00 	lea    0x80(%rsp),%rbp
    34c4:	00 
    34c5:	ba 40 00 00 00       	mov    $0x40,%edx
    34ca:	be 36 00 00 00       	mov    $0x36,%esi
    34cf:	48 89 ef             	mov    %rbp,%rdi
    34d2:	4c 8d b4 24 c0 00 00 	lea    0xc0(%rsp),%r14
    34d9:	00 
    34da:	e8 fa de ff ff       	call   13d9 <memset>
    34df:	ba 40 00 00 00       	mov    $0x40,%edx
    34e4:	be 5c 00 00 00       	mov    $0x5c,%esi
    34e9:	4c 89 f7             	mov    %r14,%rdi
    34ec:	66 0f 6f 84 24 80 00 	movdqa 0x80(%rsp),%xmm0
    34f3:	00 00 
    34f5:	66 0f ef 44 24 40    	pxor   0x40(%rsp),%xmm0
    34fb:	0f 29 84 24 80 00 00 	movaps %xmm0,0x80(%rsp)
    3502:	00 
    3503:	66 0f 6f 84 24 90 00 	movdqa 0x90(%rsp),%xmm0
    350a:	00 00 
    350c:	66 0f ef 44 24 50    	pxor   0x50(%rsp),%xmm0
    3512:	0f 29 84 24 90 00 00 	movaps %xmm0,0x90(%rsp)
    3519:	00 
    351a:	66 0f 6f 84 24 a0 00 	movdqa 0xa0(%rsp),%xmm0
    3521:	00 00 
    3523:	66 0f ef 44 24 60    	pxor   0x60(%rsp),%xmm0
    3529:	0f 29 84 24 a0 00 00 	movaps %xmm0,0xa0(%rsp)
    3530:	00 
    3531:	66 0f 6f 84 24 b0 00 	movdqa 0xb0(%rsp),%xmm0
    3538:	00 00 
    353a:	66 0f ef 44 24 70    	pxor   0x70(%rsp),%xmm0
    3540:	0f 29 84 24 b0 00 00 	movaps %xmm0,0xb0(%rsp)
    3547:	00 
    3548:	e8 8c de ff ff       	call   13d9 <memset>
    354d:	66 0f 6f 84 24 c0 00 	movdqa 0xc0(%rsp),%xmm0
    3554:	00 00 
    3556:	66 0f ef 44 24 40    	pxor   0x40(%rsp),%xmm0
    355c:	0f 29 84 24 c0 00 00 	movaps %xmm0,0xc0(%rsp)
    3563:	00 
    3564:	66 0f 6f 84 24 d0 00 	movdqa 0xd0(%rsp),%xmm0
    356b:	00 00 
    356d:	66 0f ef 44 24 50    	pxor   0x50(%rsp),%xmm0
    3573:	0f 29 84 24 d0 00 00 	movaps %xmm0,0xd0(%rsp)
    357a:	00 
    357b:	66 0f 6f 84 24 e0 00 	movdqa 0xe0(%rsp),%xmm0
    3582:	00 00 
    3584:	66 0f ef 44 24 60    	pxor   0x60(%rsp),%xmm0
    358a:	0f 29 84 24 e0 00 00 	movaps %xmm0,0xe0(%rsp)
    3591:	00 
    3592:	66 0f 6f 84 24 f0 00 	movdqa 0xf0(%rsp),%xmm0
    3599:	00 00 
    359b:	66 0f ef 44 24 70    	pxor   0x70(%rsp),%xmm0
    35a1:	0f 29 84 24 f0 00 00 	movaps %xmm0,0xf0(%rsp)
    35a8:	00 
    35a9:	66 0f 6f 05 ef d7 01 	movdqa 0x1d7ef(%rip),%xmm0        # 20da0 <Hacl_Impl_Chacha20_Vec_chacha20_constants+0x50>
    35b0:	00 
    35b1:	0f 29 44 24 20       	movaps %xmm0,0x20(%rsp)
    35b6:	66 0f 6f 05 f2 d7 01 	movdqa 0x1d7f2(%rip),%xmm0        # 20db0 <Hacl_Impl_Chacha20_Vec_chacha20_constants+0x60>
    35bd:	00 
    35be:	0f 29 44 24 30       	movaps %xmm0,0x30(%rsp)
    35c3:	85 db                	test   %ebx,%ebx
    35c5:	0f 84 fb 00 00 00    	je     36c6 <Hacl_HMAC_compute_sha2_256+0x256>
    35cb:	89 d8                	mov    %ebx,%eax
    35cd:	41 89 df             	mov    %ebx,%r15d
    35d0:	c1 e8 06             	shr    $0x6,%eax
    35d3:	41 83 e7 3f          	and    $0x3f,%r15d
    35d7:	83 fb 3f             	cmp    $0x3f,%ebx
    35da:	0f 86 de 00 00 00    	jbe    36be <Hacl_HMAC_compute_sha2_256+0x24e>
    35e0:	45 85 ff             	test   %r15d,%r15d
    35e3:	0f 85 d5 00 00 00    	jne    36be <Hacl_HMAC_compute_sha2_256+0x24e>
    35e9:	83 e8 01             	sub    $0x1,%eax
    35ec:	c1 e0 06             	shl    $0x6,%eax
    35ef:	29 c3                	sub    %eax,%ebx
    35f1:	41 89 df             	mov    %ebx,%r15d
    35f4:	89 c1                	mov    %eax,%ecx
    35f6:	48 8d 5c 24 20       	lea    0x20(%rsp),%rbx
    35fb:	89 44 24 1c          	mov    %eax,0x1c(%rsp)
    35ff:	48 89 ee             	mov    %rbp,%rsi
    3602:	49 8d 44 0d 00       	lea    0x0(%r13,%rcx,1),%rax
    3607:	48 89 da             	mov    %rbx,%rdx
    360a:	bf 40 00 00 00       	mov    $0x40,%edi
    360f:	48 89 4c 24 10       	mov    %rcx,0x10(%rsp)
    3614:	48 89 44 24 08       	mov    %rax,0x8(%rsp)
    3619:	e8 e2 1d 01 00       	call   15400 <Hacl_Hash_SHA2_sha256_update_nblocks>
    361e:	8b 7c 24 1c          	mov    0x1c(%rsp),%edi
    3622:	48 89 da             	mov    %rbx,%rdx
    3625:	4c 89 ee             	mov    %r13,%rsi
    3628:	e8 d3 1d 01 00       	call   15400 <Hacl_Hash_SHA2_sha256_update_nblocks>
    362d:	48 8b 4c 24 10       	mov    0x10(%rsp),%rcx
    3632:	44 89 f8             	mov    %r15d,%eax
    3635:	44 89 fe             	mov    %r15d,%esi
    3638:	48 8b 54 24 08       	mov    0x8(%rsp),%rdx
    363d:	48 8d 7c 01 40       	lea    0x40(%rcx,%rax,1),%rdi
    3642:	48 89 d9             	mov    %rbx,%rcx
    3645:	e8 06 1e 01 00       	call   15450 <Hacl_Hash_SHA2_sha256_update_last>
    364a:	48 89 ee             	mov    %rbp,%rsi
    364d:	48 89 df             	mov    %rbx,%rdi
    3650:	e8 1b 1f 01 00       	call   15570 <Hacl_Hash_SHA2_sha256_finish>
    3655:	48 89 df             	mov    %rbx,%rdi
    3658:	e8 83 1d 01 00       	call   153e0 <Hacl_Hash_SHA2_sha256_init>
    365d:	48 89 da             	mov    %rbx,%rdx
    3660:	4c 89 f6             	mov    %r14,%rsi
    3663:	bf 40 00 00 00       	mov    $0x40,%edi
    3668:	e8 93 1d 01 00       	call   15400 <Hacl_Hash_SHA2_sha256_update_nblocks>
    366d:	48 89 da             	mov    %rbx,%rdx
    3670:	48 89 ee             	mov    %rbp,%rsi
    3673:	31 ff                	xor    %edi,%edi
    3675:	e8 86 1d 01 00       	call   15400 <Hacl_Hash_SHA2_sha256_update_nblocks>
    367a:	48 89 d9             	mov    %rbx,%rcx
    367d:	48 89 ea             	mov    %rbp,%rdx
    3680:	be 20 00 00 00       	mov    $0x20,%esi
    3685:	bf 60 00 00 00       	mov    $0x60,%edi
    368a:	e8 c1 1d 01 00       	call   15450 <Hacl_Hash_SHA2_sha256_update_last>
    368f:	4c 89 e6             	mov    %r12,%rsi
    3692:	48 89 df             	mov    %rbx,%rdi
    3695:	e8 d6 1e 01 00       	call   15570 <Hacl_Hash_SHA2_sha256_finish>
    369a:	48 81 c4 08 01 00 00 	add    $0x108,%rsp
    36a1:	5b                   	pop    %rbx
    36a2:	5d                   	pop    %rbp
    36a3:	41 5c                	pop    %r12
    36a5:	41 5d                	pop    %r13
    36a7:	41 5e                	pop    %r14
    36a9:	41 5f                	pop    %r15
    36ab:	c3                   	ret    
    36ac:	89 ea                	mov    %ebp,%edx
    36ae:	4c 89 f6             	mov    %r14,%rsi
    36b1:	4c 89 ff             	mov    %r15,%rdi
    36b4:	e8 a7 2a 01 00       	call   16160 <Hacl_Hash_SHA2_hash_256>
    36b9:	e9 ff fd ff ff       	jmp    34bd <Hacl_HMAC_compute_sha2_256+0x4d>
    36be:	c1 e0 06             	shl    $0x6,%eax
    36c1:	e9 2e ff ff ff       	jmp    35f4 <Hacl_HMAC_compute_sha2_256+0x184>
    36c6:	48 8d 5c 24 20       	lea    0x20(%rsp),%rbx
    36cb:	48 89 ea             	mov    %rbp,%rdx
    36ce:	be 40 00 00 00       	mov    $0x40,%esi
    36d3:	bf 40 00 00 00       	mov    $0x40,%edi
    36d8:	48 89 d9             	mov    %rbx,%rcx
    36db:	e8 70 1d 01 00       	call   15450 <Hacl_Hash_SHA2_sha256_update_last>
    36e0:	e9 65 ff ff ff       	jmp    364a <Hacl_HMAC_compute_sha2_256+0x1da>
    36e5:	66 66 2e 0f 1f 84 00 	data16 cs nopw 0x0(%rax,%rax,1)
    36ec:	00 00 00 00 

00000000000036f0 <Hacl_HMAC_compute_sha2_384>:
    36f0:	f3 0f 1e fa          	endbr64 
    36f4:	41 57                	push   %r15
    36f6:	41 56                	push   %r14
    36f8:	49 89 f6             	mov    %rsi,%r14
    36fb:	31 f6                	xor    %esi,%esi
    36fd:	41 55                	push   %r13
    36ff:	49 89 fd             	mov    %rdi,%r13
    3702:	41 54                	push   %r12
    3704:	49 89 cc             	mov    %rcx,%r12
    3707:	55                   	push   %rbp
    3708:	89 d5                	mov    %edx,%ebp
    370a:	ba 80 00 00 00       	mov    $0x80,%edx
    370f:	53                   	push   %rbx
    3710:	44 89 c3             	mov    %r8d,%ebx
    3713:	48 81 ec e8 01 00 00 	sub    $0x1e8,%rsp
    371a:	4c 8d 7c 24 60       	lea    0x60(%rsp),%r15
    371f:	4c 89 ff             	mov    %r15,%rdi
    3722:	e8 b2 dc ff ff       	call   13d9 <memset>
    3727:	81 fd 80 00 00 00    	cmp    $0x80,%ebp
    372d:	0f 87 07 03 00 00    	ja     3a3a <Hacl_HMAC_compute_sha2_384+0x34a>
    3733:	89 ea                	mov    %ebp,%edx
    3735:	4c 89 f6             	mov    %r14,%rsi
    3738:	4c 89 ff             	mov    %r15,%rdi
    373b:	e8 7d dc ff ff       	call   13bd <memcpy>
    3740:	48 8d ac 24 e0 00 00 	lea    0xe0(%rsp),%rbp
    3747:	00 
    3748:	ba 80 00 00 00       	mov    $0x80,%edx
    374d:	be 36 00 00 00       	mov    $0x36,%esi
    3752:	48 89 ef             	mov    %rbp,%rdi
    3755:	4c 8d b4 24 60 01 00 	lea    0x160(%rsp),%r14
    375c:	00 
    375d:	e8 77 dc ff ff       	call   13d9 <memset>
    3762:	ba 80 00 00 00       	mov    $0x80,%edx
    3767:	be 5c 00 00 00       	mov    $0x5c,%esi
    376c:	4c 89 f7             	mov    %r14,%rdi
    376f:	66 0f 6f 84 24 e0 00 	movdqa 0xe0(%rsp),%xmm0
    3776:	00 00 
    3778:	66 0f ef 44 24 60    	pxor   0x60(%rsp),%xmm0
    377e:	0f 29 84 24 e0 00 00 	movaps %xmm0,0xe0(%rsp)
    3785:	00 
    3786:	66 0f 6f 84 24 f0 00 	movdqa 0xf0(%rsp),%xmm0
    378d:	00 00 
    378f:	66 0f ef 44 24 70    	pxor   0x70(%rsp),%xmm0
    3795:	0f 29 84 24 f0 00 00 	movaps %xmm0,0xf0(%rsp)
    379c:	00 
    379d:	66 0f 6f 84 24 00 01 	movdqa 0x100(%rsp),%xmm0
    37a4:	00 00 
    37a6:	66 0f ef 84 24 80 00 	pxor   0x80(%rsp),%xmm0
    37ad:	00 00 
    37af:	0f 29 84 24 00 01 00 	movaps %xmm0,0x100(%rsp)
    37b6:	00 
    37b7:	66 0f 6f 84 24 10 01 	movdqa 0x110(%rsp),%xmm0
    37be:	00 00 
    37c0:	66 0f ef 84 24 90 00 	pxor   0x90(%rsp),%xmm0
    37c7:	00 00 
    37c9:	0f 29 84 24 10 01 00 	movaps %xmm0,0x110(%rsp)
    37d0:	00 
    37d1:	66 0f 6f 84 24 20 01 	movdqa 0x120(%rsp),%xmm0
    37d8:	00 00 
    37da:	66 0f ef 84 24 a0 00 	pxor   0xa0(%rsp),%xmm0
    37e1:	00 00 
    37e3:	0f 29 84 24 20 01 00 	movaps %xmm0,0x120(%rsp)
    37ea:	00 
    37eb:	66 0f 6f 84 24 30 01 	movdqa 0x130(%rsp),%xmm0
    37f2:	00 00 
    37f4:	66 0f ef 84 24 b0 00 	pxor   0xb0(%rsp),%xmm0
    37fb:	00 00 
    37fd:	0f 29 84 24 30 01 00 	movaps %xmm0,0x130(%rsp)
    3804:	00 
    3805:	66 0f 6f 84 24 40 01 	movdqa 0x140(%rsp),%xmm0
    380c:	00 00 
    380e:	66 0f ef 84 24 c0 00 	pxor   0xc0(%rsp),%xmm0
    3815:	00 00 
    3817:	0f 29 84 24 40 01 00 	movaps %xmm0,0x140(%rsp)
    381e:	00 
    381f:	66 0f 6f 84 24 50 01 	movdqa 0x150(%rsp),%xmm0
    3826:	00 00 
    3828:	66 0f ef 84 24 d0 00 	pxor   0xd0(%rsp),%xmm0
    382f:	00 00 
    3831:	0f 29 84 24 50 01 00 	movaps %xmm0,0x150(%rsp)
    3838:	00 
    3839:	e8 9b db ff ff       	call   13d9 <memset>
    383e:	66 0f 6f 84 24 60 01 	movdqa 0x160(%rsp),%xmm0
    3845:	00 00 
    3847:	66 0f ef 44 24 60    	pxor   0x60(%rsp),%xmm0
    384d:	0f 29 84 24 60 01 00 	movaps %xmm0,0x160(%rsp)
    3854:	00 
    3855:	66 0f 6f 84 24 70 01 	movdqa 0x170(%rsp),%xmm0
    385c:	00 00 
    385e:	66 0f ef 44 24 70    	pxor   0x70(%rsp),%xmm0
    3864:	0f 29 84 24 70 01 00 	movaps %xmm0,0x170(%rsp)
    386b:	00 
    386c:	66 0f 6f 84 24 80 01 	movdqa 0x180(%rsp),%xmm0
    3873:	00 00 
    3875:	66 0f ef 84 24 80 00 	pxor   0x80(%rsp),%xmm0
    387c:	00 00 
    387e:	0f 29 84 24 80 01 00 	movaps %xmm0,0x180(%rsp)
    3885:	00 
    3886:	66 0f 6f 84 24 90 01 	movdqa 0x190(%rsp),%xmm0
    388d:	00 00 
    388f:	66 0f ef 84 24 90 00 	pxor   0x90(%rsp),%xmm0
    3896:	00 00 
    3898:	0f 29 84 24 90 01 00 	movaps %xmm0,0x190(%rsp)
    389f:	00 
    38a0:	66 0f 6f 84 24 a0 01 	movdqa 0x1a0(%rsp),%xmm0
    38a7:	00 00 
    38a9:	66 0f ef 84 24 a0 00 	pxor   0xa0(%rsp),%xmm0
    38b0:	00 00 
    38b2:	0f 29 84 24 a0 01 00 	movaps %xmm0,0x1a0(%rsp)
    38b9:	00 
    38ba:	66 0f 6f 84 24 b0 01 	movdqa 0x1b0(%rsp),%xmm0
    38c1:	00 00 
    38c3:	66 0f ef 84 24 b0 00 	pxor   0xb0(%rsp),%xmm0
    38ca:	00 00 
    38cc:	0f 29 84 24 b0 01 00 	movaps %xmm0,0x1b0(%rsp)
    38d3:	00 
    38d4:	66 0f 6f 84 24 c0 01 	movdqa 0x1c0(%rsp),%xmm0
    38db:	00 00 
    38dd:	66 0f ef 84 24 c0 00 	pxor   0xc0(%rsp),%xmm0
    38e4:	00 00 
    38e6:	0f 29 84 24 c0 01 00 	movaps %xmm0,0x1c0(%rsp)
    38ed:	00 
    38ee:	66 0f 6f 84 24 d0 01 	movdqa 0x1d0(%rsp),%xmm0
    38f5:	00 00 
    38f7:	66 0f ef 84 24 d0 00 	pxor   0xd0(%rsp),%xmm0
    38fe:	00 00 
    3900:	0f 29 84 24 d0 01 00 	movaps %xmm0,0x1d0(%rsp)
    3907:	00 
    3908:	66 0f 6f 05 b0 d4 01 	movdqa 0x1d4b0(%rip),%xmm0        # 20dc0 <Hacl_Impl_Chacha20_Vec_chacha20_constants+0x70>
    390f:	00 
    3910:	0f 29 44 24 20       	movaps %xmm0,0x20(%rsp)
    3915:	66 0f 6f 05 b3 d4 01 	movdqa 0x1d4b3(%rip),%xmm0        # 20dd0 <Hacl_Impl_Chacha20_Vec_chacha20_constants+0x80>
    391c:	00 
    391d:	0f 29 44 24 30       	movaps %xmm0,0x30(%rsp)
    3922:	66 0f 6f 05 b6 d4 01 	movdqa 0x1d4b6(%rip),%xmm0        # 20de0 <Hacl_Impl_Chacha20_Vec_chacha20_constants+0x90>
    3929:	00 
    392a:	0f 29 44 24 40       	movaps %xmm0,0x40(%rsp)
    392f:	66 0f 6f 05 b9 d4 01 	movdqa 0x1d4b9(%rip),%xmm0        # 20df0 <Hacl_Impl_Chacha20_Vec_chacha20_constants+0xa0>
    3936:	00 
    3937:	0f 29 44 24 50       	movaps %xmm0,0x50(%rsp)
    393c:	85 db                	test   %ebx,%ebx
    393e:	0f 84 10 01 00 00    	je     3a54 <Hacl_HMAC_compute_sha2_384+0x364>
    3944:	89 d9                	mov    %ebx,%ecx
    3946:	41 89 df             	mov    %ebx,%r15d
    3949:	c1 e9 07             	shr    $0x7,%ecx
    394c:	41 83 e7 7f          	and    $0x7f,%r15d
    3950:	83 fb 7f             	cmp    $0x7f,%ebx
    3953:	0f 86 f3 00 00 00    	jbe    3a4c <Hacl_HMAC_compute_sha2_384+0x35c>
    3959:	45 85 ff             	test   %r15d,%r15d
    395c:	0f 85 ea 00 00 00    	jne    3a4c <Hacl_HMAC_compute_sha2_384+0x35c>
    3962:	83 e9 01             	sub    $0x1,%ecx
    3965:	c1 e1 07             	shl    $0x7,%ecx
    3968:	29 cb                	sub    %ecx,%ebx
    396a:	41 89 df             	mov    %ebx,%r15d
    396d:	89 c8                	mov    %ecx,%eax
    396f:	48 8d 5c 24 20       	lea    0x20(%rsp),%rbx
    3974:	89 4c 24 1c          	mov    %ecx,0x1c(%rsp)
    3978:	48 89 ee             	mov    %rbp,%rsi
    397b:	49 8d 0c 04          	lea    (%r12,%rax,1),%rcx
    397f:	48 89 da             	mov    %rbx,%rdx
    3982:	bf 80 00 00 00       	mov    $0x80,%edi
    3987:	48 89 44 24 10       	mov    %rax,0x10(%rsp)
    398c:	48 89 4c 24 08       	mov    %rcx,0x8(%rsp)
    3991:	e8 fa 21 01 00       	call   15b90 <Hacl_Hash_SHA2_sha384_update_nblocks>
    3996:	8b 7c 24 1c          	mov    0x1c(%rsp),%edi
    399a:	48 89 da             	mov    %rbx,%rdx
    399d:	4c 89 e6             	mov    %r12,%rsi
    39a0:	e8 eb 21 01 00       	call   15b90 <Hacl_Hash_SHA2_sha384_update_nblocks>
    39a5:	48 8b 44 24 10       	mov    0x10(%rsp),%rax
    39aa:	44 89 f9             	mov    %r15d,%ecx
    39ad:	31 d2                	xor    %edx,%edx
    39af:	49 89 d8             	mov    %rbx,%r8
    39b2:	48 01 c8             	add    %rcx,%rax
    39b5:	48 8b 4c 24 08       	mov    0x8(%rsp),%rcx
    39ba:	48 83 d2 00          	adc    $0x0,%rdx
    39be:	48 05 80 00 00 00    	add    $0x80,%rax
    39c4:	48 83 d2 00          	adc    $0x0,%rdx
    39c8:	48 89 c7             	mov    %rax,%rdi
    39cb:	48 89 d6             	mov    %rdx,%rsi
    39ce:	44 89 fa             	mov    %r15d,%edx
    39d1:	e8 ca 21 01 00       	call   15ba0 <Hacl_Hash_SHA2_sha384_update_last>
    39d6:	48 89 ee             	mov    %rbp,%rsi
    39d9:	48 89 df             	mov    %rbx,%rdi
    39dc:	e8 cf 21 01 00       	call   15bb0 <Hacl_Hash_SHA2_sha384_finish>
    39e1:	48 89 df             	mov    %rbx,%rdi
    39e4:	e8 67 21 01 00       	call   15b50 <Hacl_Hash_SHA2_sha384_init>
    39e9:	48 89 da             	mov    %rbx,%rdx
    39ec:	4c 89 f6             	mov    %r14,%rsi
    39ef:	bf 80 00 00 00       	mov    $0x80,%edi
    39f4:	e8 97 21 01 00       	call   15b90 <Hacl_Hash_SHA2_sha384_update_nblocks>
    39f9:	48 89 da             	mov    %rbx,%rdx
    39fc:	48 89 ee             	mov    %rbp,%rsi
    39ff:	31 ff                	xor    %edi,%edi
    3a01:	e8 8a 21 01 00       	call   15b90 <Hacl_Hash_SHA2_sha384_update_nblocks>
    3a06:	49 89 d8             	mov    %rbx,%r8
    3a09:	48 89 e9             	mov    %rbp,%rcx
    3a0c:	ba 30 00 00 00       	mov    $0x30,%edx
    3a11:	bf b0 00 00 00       	mov    $0xb0,%edi
    3a16:	31 f6                	xor    %esi,%esi
    3a18:	e8 83 21 01 00       	call   15ba0 <Hacl_Hash_SHA2_sha384_update_last>
    3a1d:	4c 89 ee             	mov    %r13,%rsi
    3a20:	48 89 df             	mov    %rbx,%rdi
    3a23:	e8 88 21 01 00       	call   15bb0 <Hacl_Hash_SHA2_sha384_finish>
    3a28:	48 81 c4 e8 01 00 00 	add    $0x1e8,%rsp
    3a2f:	5b                   	pop    %rbx
    3a30:	5d                   	pop    %rbp
    3a31:	41 5c                	pop    %r12
    3a33:	41 5d                	pop    %r13
    3a35:	41 5e                	pop    %r14
    3a37:	41 5f                	pop    %r15
    3a39:	c3                   	ret    
    3a3a:	89 ea                	mov    %ebp,%edx
    3a3c:	4c 89 f6             	mov    %r14,%rsi
    3a3f:	4c 89 ff             	mov    %r15,%rdi
    3a42:	e8 19 35 01 00       	call   16f60 <Hacl_Hash_SHA2_hash_384>
    3a47:	e9 f4 fc ff ff       	jmp    3740 <Hacl_HMAC_compute_sha2_384+0x50>
    3a4c:	c1 e1 07             	shl    $0x7,%ecx
    3a4f:	e9 19 ff ff ff       	jmp    396d <Hacl_HMAC_compute_sha2_384+0x27d>
    3a54:	48 8d 5c 24 20       	lea    0x20(%rsp),%rbx
    3a59:	48 89 e9             	mov    %rbp,%rcx
    3a5c:	ba 80 00 00 00       	mov    $0x80,%edx
    3a61:	31 f6                	xor    %esi,%esi
    3a63:	49 89 d8             	mov    %rbx,%r8
    3a66:	bf 80 00 00 00       	mov    $0x80,%edi
    3a6b:	e8 30 21 01 00       	call   15ba0 <Hacl_Hash_SHA2_sha384_update_last>
    3a70:	e9 61 ff ff ff       	jmp    39d6 <Hacl_HMAC_compute_sha2_384+0x2e6>
    3a75:	66 66 2e 0f 1f 84 00 	data16 cs nopw 0x0(%rax,%rax,1)
    3a7c:	00 00 00 00 

0000000000003a80 <Hacl_HMAC_compute_sha2_512>:
    3a80:	f3 0f 1e fa          	endbr64 
    3a84:	41 57                	push   %r15
    3a86:	41 56                	push   %r14
    3a88:	49 89 f6             	mov    %rsi,%r14
    3a8b:	31 f6                	xor    %esi,%esi
    3a8d:	41 55                	push   %r13
    3a8f:	49 89 fd             	mov    %rdi,%r13
    3a92:	41 54                	push   %r12
    3a94:	49 89 cc             	mov    %rcx,%r12
    3a97:	55                   	push   %rbp
    3a98:	89 d5                	mov    %edx,%ebp
    3a9a:	ba 80 00 00 00       	mov    $0x80,%edx
    3a9f:	53                   	push   %rbx
    3aa0:	44 89 c3             	mov    %r8d,%ebx
    3aa3:	48 81 ec e8 01 00 00 	sub    $0x1e8,%rsp
    3aaa:	4c 8d 7c 24 60       	lea    0x60(%rsp),%r15
    3aaf:	4c 89 ff             	mov    %r15,%rdi
    3ab2:	e8 22 d9 ff ff       	call   13d9 <memset>
    3ab7:	81 fd 80 00 00 00    	cmp    $0x80,%ebp
    3abd:	0f 87 07 03 00 00    	ja     3dca <Hacl_HMAC_compute_sha2_512+0x34a>
    3ac3:	89 ea                	mov    %ebp,%edx
    3ac5:	4c 89 f6             	mov    %r14,%rsi
    3ac8:	4c 89 ff             	mov    %r15,%rdi
    3acb:	e8 ed d8 ff ff       	call   13bd <memcpy>
    3ad0:	48 8d ac 24 e0 00 00 	lea    0xe0(%rsp),%rbp
    3ad7:	00 
    3ad8:	ba 80 00 00 00       	mov    $0x80,%edx
    3add:	be 36 00 00 00       	mov    $0x36,%esi
    3ae2:	48 89 ef             	mov    %rbp,%rdi
    3ae5:	4c 8d b4 24 60 01 00 	lea    0x160(%rsp),%r14
    3aec:	00 
    3aed:	e8 e7 d8 ff ff       	call   13d9 <memset>
    3af2:	ba 80 00 00 00       	mov    $0x80,%edx
    3af7:	be 5c 00 00 00       	mov    $0x5c,%esi
    3afc:	4c 89 f7             	mov    %r14,%rdi
    3aff:	66 0f 6f 84 24 e0 00 	movdqa 0xe0(%rsp),%xmm0
    3b06:	00 00 
    3b08:	66 0f ef 44 24 60    	pxor   0x60(%rsp),%xmm0
    3b0e:	0f 29 84 24 e0 00 00 	movaps %xmm0,0xe0(%rsp)
    3b15:	00 
    3b16:	66 0f 6f 84 24 f0 00 	movdqa 0xf0(%rsp),%xmm0
    3b1d:	00 00 
    3b1f:	66 0f ef 44 24 70    	pxor   0x70(%rsp),%xmm0
    3b25:	0f 29 84 24 f0 00 00 	movaps %xmm0,0xf0(%rsp)
    3b2c:	00 
    3b2d:	66 0f 6f 84 24 00 01 	movdqa 0x100(%rsp),%xmm0
    3b34:	00 00 
    3b36:	66 0f ef 84 24 80 00 	pxor   0x80(%rsp),%xmm0
    3b3d:	00 00 
    3b3f:	0f 29 84 24 00 01 00 	movaps %xmm0,0x100(%rsp)
    3b46:	00 
    3b47:	66 0f 6f 84 24 10 01 	movdqa 0x110(%rsp),%xmm0
    3b4e:	00 00 
    3b50:	66 0f ef 84 24 90 00 	pxor   0x90(%rsp),%xmm0
    3b57:	00 00 
    3b59:	0f 29 84 24 10 01 00 	movaps %xmm0,0x110(%rsp)
    3b60:	00 
    3b61:	66 0f 6f 84 24 20 01 	movdqa 0x120(%rsp),%xmm0
    3b68:	00 00 
    3b6a:	66 0f ef 84 24 a0 00 	pxor   0xa0(%rsp),%xmm0
    3b71:	00 00 
    3b73:	0f 29 84 24 20 01 00 	movaps %xmm0,0x120(%rsp)
    3b7a:	00 
    3b7b:	66 0f 6f 84 24 30 01 	movdqa 0x130(%rsp),%xmm0
    3b82:	00 00 
    3b84:	66 0f ef 84 24 b0 00 	pxor   0xb0(%rsp),%xmm0
    3b8b:	00 00 
    3b8d:	0f 29 84 24 30 01 00 	movaps %xmm0,0x130(%rsp)
    3b94:	00 
    3b95:	66 0f 6f 84 24 40 01 	movdqa 0x140(%rsp),%xmm0
    3b9c:	00 00 
    3b9e:	66 0f ef 84 24 c0 00 	pxor   0xc0(%rsp),%xmm0
    3ba5:	00 00 
    3ba7:	0f 29 84 24 40 01 00 	movaps %xmm0,0x140(%rsp)
    3bae:	00 
    3baf:	66 0f 6f 84 24 50 01 	movdqa 0x150(%rsp),%xmm0
    3bb6:	00 00 
    3bb8:	66 0f ef 84 24 d0 00 	pxor   0xd0(%rsp),%xmm0
    3bbf:	00 00 
    3bc1:	0f 29 84 24 50 01 00 	movaps %xmm0,0x150(%rsp)
    3bc8:	00 
    3bc9:	e8 0b d8 ff ff       	call   13d9 <memset>
    3bce:	66 0f 6f 84 24 60 01 	movdqa 0x160(%rsp),%xmm0
    3bd5:	00 00 
    3bd7:	66 0f ef 44 24 60    	pxor   0x60(%rsp),%xmm0
    3bdd:	0f 29 84 24 60 01 00 	movaps %xmm0,0x160(%rsp)
    3be4:	00 
    3be5:	66 0f 6f 84 24 70 01 	movdqa 0x170(%rsp),%xmm0
    3bec:	00 00 
    3bee:	66 0f ef 44 24 70    	pxor   0x70(%rsp),%xmm0
    3bf4:	0f 29 84 24 70 01 00 	movaps %xmm0,0x170(%rsp)
    3bfb:	00 
    3bfc:	66 0f 6f 84 24 80 01 	movdqa 0x180(%rsp),%xmm0
    3c03:	00 00 
    3c05:	66 0f ef 84 24 80 00 	pxor   0x80(%rsp),%xmm0
    3c0c:	00 00 
    3c0e:	0f 29 84 24 80 01 00 	movaps %xmm0,0x180(%rsp)
    3c15:	00 
    3c16:	66 0f 6f 84 24 90 01 	movdqa 0x190(%rsp),%xmm0
    3c1d:	00 00 
    3c1f:	66 0f ef 84 24 90 00 	pxor   0x90(%rsp),%xmm0
    3c26:	00 00 
    3c28:	0f 29 84 24 90 01 00 	movaps %xmm0,0x190(%rsp)
    3c2f:	00 
    3c30:	66 0f 6f 84 24 a0 01 	movdqa 0x1a0(%rsp),%xmm0
    3c37:	00 00 
    3c39:	66 0f ef 84 24 a0 00 	pxor   0xa0(%rsp),%xmm0
    3c40:	00 00 
    3c42:	0f 29 84 24 a0 01 00 	movaps %xmm0,0x1a0(%rsp)
    3c49:	00 
    3c4a:	66 0f 6f 84 24 b0 01 	movdqa 0x1b0(%rsp),%xmm0
    3c51:	00 00 
    3c53:	66 0f ef 84 24 b0 00 	pxor   0xb0(%rsp),%xmm0
    3c5a:	00 00 
    3c5c:	0f 29 84 24 b0 01 00 	movaps %xmm0,0x1b0(%rsp)
    3c63:	00 
    3c64:	66 0f 6f 84 24 c0 01 	movdqa 0x1c0(%rsp),%xmm0
    3c6b:	00 00 
    3c6d:	66 0f ef 84 24 c0 00 	pxor   0xc0(%rsp),%xmm0
    3c74:	00 00 
    3c76:	0f 29 84 24 c0 01 00 	movaps %xmm0,0x1c0(%rsp)
    3c7d:	00 
    3c7e:	66 0f 6f 84 24 d0 01 	movdqa 0x1d0(%rsp),%xmm0
    3c85:	00 00 
    3c87:	66 0f ef 84 24 d0 00 	pxor   0xd0(%rsp),%xmm0
    3c8e:	00 00 
    3c90:	0f 29 84 24 d0 01 00 	movaps %xmm0,0x1d0(%rsp)
    3c97:	00 
    3c98:	66 0f 6f 05 60 d1 01 	movdqa 0x1d160(%rip),%xmm0        # 20e00 <Hacl_Impl_Chacha20_Vec_chacha20_constants+0xb0>
    3c9f:	00 
    3ca0:	0f 29 44 24 20       	movaps %xmm0,0x20(%rsp)
    3ca5:	66 0f 6f 05 63 d1 01 	movdqa 0x1d163(%rip),%xmm0        # 20e10 <Hacl_Impl_Chacha20_Vec_chacha20_constants+0xc0>
    3cac:	00 
    3cad:	0f 29 44 24 30       	movaps %xmm0,0x30(%rsp)
    3cb2:	66 0f 6f 05 66 d1 01 	movdqa 0x1d166(%rip),%xmm0        # 20e20 <Hacl_Impl_Chacha20_Vec_chacha20_constants+0xd0>
    3cb9:	00 
    3cba:	0f 29 44 24 40       	movaps %xmm0,0x40(%rsp)
    3cbf:	66 0f 6f 05 69 d1 01 	movdqa 0x1d169(%rip),%xmm0        # 20e30 <Hacl_Impl_Chacha20_Vec_chacha20_constants+0xe0>
    3cc6:	00 
    3cc7:	0f 29 44 24 50       	movaps %xmm0,0x50(%rsp)
    3ccc:	85 db                	test   %ebx,%ebx
    3cce:	0f 84 10 01 00 00    	je     3de4 <Hacl_HMAC_compute_sha2_512+0x364>
    3cd4:	89 d9                	mov    %ebx,%ecx
    3cd6:	41 89 df             	mov    %ebx,%r15d
    3cd9:	c1 e9 07             	shr    $0x7,%ecx
    3cdc:	41 83 e7 7f          	and    $0x7f,%r15d
    3ce0:	83 fb 7f             	cmp    $0x7f,%ebx
    3ce3:	0f 86 f3 00 00 00    	jbe    3ddc <Hacl_HMAC_compute_sha2_512+0x35c>
    3ce9:	45 85 ff             	test   %r15d,%r15d
    3cec:	0f 85 ea 00 00 00    	jne    3ddc <Hacl_HMAC_compute_sha2_512+0x35c>
    3cf2:	83 e9 01             	sub    $0x1,%ecx
    3cf5:	c1 e1 07             	shl    $0x7,%ecx
    3cf8:	29 cb                	sub    %ecx,%ebx
    3cfa:	41 89 df             	mov    %ebx,%r15d
    3cfd:	89 c8                	mov    %ecx,%eax
    3cff:	48 8d 5c 24 20       	lea    0x20(%rsp),%rbx
    3d04:	89 4c 24 1c          	mov    %ecx,0x1c(%rsp)
    3d08:	48 89 ee             	mov    %rbp,%rsi
    3d0b:	49 8d 0c 04          	lea    (%r12,%rax,1),%rcx
    3d0f:	48 89 da             	mov    %rbx,%rdx
    3d12:	bf 80 00 00 00       	mov    $0x80,%edi
    3d17:	48 89 44 24 10       	mov    %rax,0x10(%rsp)
    3d1c:	48 89 4c 24 08       	mov    %rcx,0x8(%rsp)
    3d21:	e8 0a 1b 01 00       	call   15830 <Hacl_Hash_SHA2_sha512_update_nblocks>
    3d26:	8b 7c 24 1c          	mov    0x1c(%rsp),%edi
    3d2a:	48 89 da             	mov    %rbx,%rdx
    3d2d:	4c 89 e6             	mov    %r12,%rsi
    3d30:	e8 fb 1a 01 00       	call   15830 <Hacl_Hash_SHA2_sha512_update_nblocks>
    3d35:	48 8b 44 24 10       	mov    0x10(%rsp),%rax
    3d3a:	44 89 f9             	mov    %r15d,%ecx
    3d3d:	31 d2                	xor    %edx,%edx
    3d3f:	49 89 d8             	mov    %rbx,%r8
    3d42:	48 01 c8             	add    %rcx,%rax
    3d45:	48 8b 4c 24 08       	mov    0x8(%rsp),%rcx
    3d4a:	48 83 d2 00          	adc    $0x0,%rdx
    3d4e:	48 05 80 00 00 00    	add    $0x80,%rax
    3d54:	48 83 d2 00          	adc    $0x0,%rdx
    3d58:	48 89 c7             	mov    %rax,%rdi
    3d5b:	48 89 d6             	mov    %rdx,%rsi
    3d5e:	44 89 fa             	mov    %r15d,%edx
    3d61:	e8 1a 1b 01 00       	call   15880 <Hacl_Hash_SHA2_sha512_update_last>
    3d66:	48 89 ee             	mov    %rbp,%rsi
    3d69:	48 89 df             	mov    %rbx,%rdi
    3d6c:	e8 9f 1c 01 00       	call   15a10 <Hacl_Hash_SHA2_sha512_finish>
    3d71:	48 89 df             	mov    %rbx,%rdi
    3d74:	e8 77 1a 01 00       	call   157f0 <Hacl_Hash_SHA2_sha512_init>
    3d79:	48 89 da             	mov    %rbx,%rdx
    3d7c:	4c 89 f6             	mov    %r14,%rsi
    3d7f:	bf 80 00 00 00       	mov    $0x80,%edi
    3d84:	e8 a7 1a 01 00       	call   15830 <Hacl_Hash_SHA2_sha512_update_nblocks>
    3d89:	48 89 da             	mov    %rbx,%rdx
    3d8c:	48 89 ee             	mov    %rbp,%rsi
    3d8f:	31 ff                	xor    %edi,%edi
    3d91:	e8 9a 1a 01 00       	call   15830 <Hacl_Hash_SHA2_sha512_update_nblocks>
    3d96:	49 89 d8             	mov    %rbx,%r8
    3d99:	48 89 e9             	mov    %rbp,%rcx
    3d9c:	ba 40 00 00 00       	mov    $0x40,%edx
    3da1:	bf c0 00 00 00       	mov    $0xc0,%edi
    3da6:	31 f6                	xor    %esi,%esi
    3da8:	e8 d3 1a 01 00       	call   15880 <Hacl_Hash_SHA2_sha512_update_last>
    3dad:	4c 89 ee             	mov    %r13,%rsi
    3db0:	48 89 df             	mov    %rbx,%rdi
    3db3:	e8 58 1c 01 00       	call   15a10 <Hacl_Hash_SHA2_sha512_finish>
    3db8:	48 81 c4 e8 01 00 00 	add    $0x1e8,%rsp
    3dbf:	5b                   	pop    %rbx
    3dc0:	5d                   	pop    %rbp
    3dc1:	41 5c                	pop    %r12
    3dc3:	41 5d                	pop    %r13
    3dc5:	41 5e                	pop    %r14
    3dc7:	41 5f                	pop    %r15
    3dc9:	c3                   	ret    
    3dca:	89 ea                	mov    %ebp,%edx
    3dcc:	4c 89 f6             	mov    %r14,%rsi
    3dcf:	4c 89 ff             	mov    %r15,%rdi
    3dd2:	e8 f9 2c 01 00       	call   16ad0 <Hacl_Hash_SHA2_hash_512>
    3dd7:	e9 f4 fc ff ff       	jmp    3ad0 <Hacl_HMAC_compute_sha2_512+0x50>
    3ddc:	c1 e1 07             	shl    $0x7,%ecx
    3ddf:	e9 19 ff ff ff       	jmp    3cfd <Hacl_HMAC_compute_sha2_512+0x27d>
    3de4:	48 8d 5c 24 20       	lea    0x20(%rsp),%rbx
    3de9:	48 89 e9             	mov    %rbp,%rcx
    3dec:	ba 80 00 00 00       	mov    $0x80,%edx
    3df1:	31 f6                	xor    %esi,%esi
    3df3:	49 89 d8             	mov    %rbx,%r8
    3df6:	bf 80 00 00 00       	mov    $0x80,%edi
    3dfb:	e8 80 1a 01 00       	call   15880 <Hacl_Hash_SHA2_sha512_update_last>
    3e00:	e9 61 ff ff ff       	jmp    3d66 <Hacl_HMAC_compute_sha2_512+0x2e6>
    3e05:	66 66 2e 0f 1f 84 00 	data16 cs nopw 0x0(%rax,%rax,1)
    3e0c:	00 00 00 00 

0000000000003e10 <Hacl_HMAC_compute_sha3_224>:
    3e10:	f3 0f 1e fa          	endbr64 
    3e14:	41 57                	push   %r15
    3e16:	41 56                	push   %r14
    3e18:	41 55                	push   %r13
    3e1a:	49 89 f5             	mov    %rsi,%r13
    3e1d:	31 f6                	xor    %esi,%esi
    3e1f:	41 54                	push   %r12
    3e21:	41 89 d4             	mov    %edx,%r12d
    3e24:	ba 90 00 00 00       	mov    $0x90,%edx
    3e29:	55                   	push   %rbp
    3e2a:	48 89 cd             	mov    %rcx,%rbp
    3e2d:	53                   	push   %rbx
    3e2e:	44 89 c3             	mov    %r8d,%ebx
    3e31:	48 81 ec b8 06 00 00 	sub    $0x6b8,%rsp
    3e38:	4c 8d 74 24 30       	lea    0x30(%rsp),%r14
    3e3d:	48 89 7c 24 08       	mov    %rdi,0x8(%rsp)
    3e42:	4c 89 f7             	mov    %r14,%rdi
    3e45:	e8 8f d5 ff ff       	call   13d9 <memset>
    3e4a:	41 81 fc 90 00 00 00 	cmp    $0x90,%r12d
    3e51:	0f 87 02 05 00 00    	ja     4359 <Hacl_HMAC_compute_sha3_224+0x549>
    3e57:	44 89 e2             	mov    %r12d,%edx
    3e5a:	4c 89 ee             	mov    %r13,%rsi
    3e5d:	4c 89 f7             	mov    %r14,%rdi
    3e60:	e8 58 d5 ff ff       	call   13bd <memcpy>
    3e65:	4c 8d ac 24 c0 00 00 	lea    0xc0(%rsp),%r13
    3e6c:	00 
    3e6d:	ba 90 00 00 00       	mov    $0x90,%edx
    3e72:	be 36 00 00 00       	mov    $0x36,%esi
    3e77:	4c 89 ef             	mov    %r13,%rdi
    3e7a:	4c 8d a4 24 e0 01 00 	lea    0x1e0(%rsp),%r12
    3e81:	00 
    3e82:	e8 52 d5 ff ff       	call   13d9 <memset>
    3e87:	ba 90 00 00 00       	mov    $0x90,%edx
    3e8c:	be 5c 00 00 00       	mov    $0x5c,%esi
    3e91:	66 0f 6f 84 24 c0 00 	movdqa 0xc0(%rsp),%xmm0
    3e98:	00 00 
    3e9a:	66 0f ef 44 24 30    	pxor   0x30(%rsp),%xmm0
    3ea0:	48 8d 84 24 50 01 00 	lea    0x150(%rsp),%rax
    3ea7:	00 
    3ea8:	48 89 c7             	mov    %rax,%rdi
    3eab:	48 89 44 24 10       	mov    %rax,0x10(%rsp)
    3eb0:	0f 29 84 24 c0 00 00 	movaps %xmm0,0xc0(%rsp)
    3eb7:	00 
    3eb8:	66 0f 6f 84 24 d0 00 	movdqa 0xd0(%rsp),%xmm0
    3ebf:	00 00 
    3ec1:	66 0f ef 44 24 40    	pxor   0x40(%rsp),%xmm0
    3ec7:	0f 29 84 24 d0 00 00 	movaps %xmm0,0xd0(%rsp)
    3ece:	00 
    3ecf:	66 0f 6f 84 24 e0 00 	movdqa 0xe0(%rsp),%xmm0
    3ed6:	00 00 
    3ed8:	66 0f ef 44 24 50    	pxor   0x50(%rsp),%xmm0
    3ede:	0f 29 84 24 e0 00 00 	movaps %xmm0,0xe0(%rsp)
    3ee5:	00 
    3ee6:	66 0f 6f 84 24 f0 00 	movdqa 0xf0(%rsp),%xmm0
    3eed:	00 00 
    3eef:	66 0f ef 44 24 60    	pxor   0x60(%rsp),%xmm0
    3ef5:	0f 29 84 24 f0 00 00 	movaps %xmm0,0xf0(%rsp)
    3efc:	00 
    3efd:	66 0f 6f 84 24 00 01 	movdqa 0x100(%rsp),%xmm0
    3f04:	00 00 
    3f06:	66 0f ef 44 24 70    	pxor   0x70(%rsp),%xmm0
    3f0c:	0f 29 84 24 00 01 00 	movaps %xmm0,0x100(%rsp)
    3f13:	00 
    3f14:	66 0f 6f 84 24 10 01 	movdqa 0x110(%rsp),%xmm0
    3f1b:	00 00 
    3f1d:	66 0f ef 84 24 80 00 	pxor   0x80(%rsp),%xmm0
    3f24:	00 00 
    3f26:	0f 29 84 24 10 01 00 	movaps %xmm0,0x110(%rsp)
    3f2d:	00 
    3f2e:	66 0f 6f 84 24 20 01 	movdqa 0x120(%rsp),%xmm0
    3f35:	00 00 
    3f37:	66 0f ef 84 24 90 00 	pxor   0x90(%rsp),%xmm0
    3f3e:	00 00 
    3f40:	0f 29 84 24 20 01 00 	movaps %xmm0,0x120(%rsp)
    3f47:	00 
    3f48:	66 0f 6f 84 24 30 01 	movdqa 0x130(%rsp),%xmm0
    3f4f:	00 00 
    3f51:	66 0f ef 84 24 a0 00 	pxor   0xa0(%rsp),%xmm0
    3f58:	00 00 
    3f5a:	0f 29 84 24 30 01 00 	movaps %xmm0,0x130(%rsp)
    3f61:	00 
    3f62:	66 0f 6f 84 24 40 01 	movdqa 0x140(%rsp),%xmm0
    3f69:	00 00 
    3f6b:	66 0f ef 84 24 b0 00 	pxor   0xb0(%rsp),%xmm0
    3f72:	00 00 
    3f74:	0f 29 84 24 40 01 00 	movaps %xmm0,0x140(%rsp)
    3f7b:	00 
    3f7c:	e8 58 d4 ff ff       	call   13d9 <memset>
    3f81:	b9 19 00 00 00       	mov    $0x19,%ecx
    3f86:	31 c0                	xor    %eax,%eax
    3f88:	4c 89 e7             	mov    %r12,%rdi
    3f8b:	66 0f 6f 84 24 50 01 	movdqa 0x150(%rsp),%xmm0
    3f92:	00 00 
    3f94:	66 0f ef 44 24 30    	pxor   0x30(%rsp),%xmm0
    3f9a:	f3 48 ab             	rep stos %rax,%es:(%rdi)
    3f9d:	0f 29 84 24 50 01 00 	movaps %xmm0,0x150(%rsp)
    3fa4:	00 
    3fa5:	66 0f 6f 84 24 60 01 	movdqa 0x160(%rsp),%xmm0
    3fac:	00 00 
    3fae:	66 0f ef 44 24 40    	pxor   0x40(%rsp),%xmm0
    3fb4:	0f 29 84 24 60 01 00 	movaps %xmm0,0x160(%rsp)
    3fbb:	00 
    3fbc:	66 0f 6f 84 24 70 01 	movdqa 0x170(%rsp),%xmm0
    3fc3:	00 00 
    3fc5:	66 0f ef 44 24 50    	pxor   0x50(%rsp),%xmm0
    3fcb:	0f 29 84 24 70 01 00 	movaps %xmm0,0x170(%rsp)
    3fd2:	00 
    3fd3:	66 0f 6f 84 24 80 01 	movdqa 0x180(%rsp),%xmm0
    3fda:	00 00 
    3fdc:	66 0f ef 44 24 60    	pxor   0x60(%rsp),%xmm0
    3fe2:	0f 29 84 24 80 01 00 	movaps %xmm0,0x180(%rsp)
    3fe9:	00 
    3fea:	66 0f 6f 84 24 90 01 	movdqa 0x190(%rsp),%xmm0
    3ff1:	00 00 
    3ff3:	66 0f ef 44 24 70    	pxor   0x70(%rsp),%xmm0
    3ff9:	0f 29 84 24 90 01 00 	movaps %xmm0,0x190(%rsp)
    4000:	00 
    4001:	66 0f 6f 84 24 a0 01 	movdqa 0x1a0(%rsp),%xmm0
    4008:	00 00 
    400a:	66 0f ef 84 24 80 00 	pxor   0x80(%rsp),%xmm0
    4011:	00 00 
    4013:	0f 29 84 24 a0 01 00 	movaps %xmm0,0x1a0(%rsp)
    401a:	00 
    401b:	66 0f 6f 84 24 b0 01 	movdqa 0x1b0(%rsp),%xmm0
    4022:	00 00 
    4024:	66 0f ef 84 24 90 00 	pxor   0x90(%rsp),%xmm0
    402b:	00 00 
    402d:	0f 29 84 24 b0 01 00 	movaps %xmm0,0x1b0(%rsp)
    4034:	00 
    4035:	66 0f 6f 84 24 c0 01 	movdqa 0x1c0(%rsp),%xmm0
    403c:	00 00 
    403e:	66 0f ef 84 24 a0 00 	pxor   0xa0(%rsp),%xmm0
    4045:	00 00 
    4047:	0f 29 84 24 c0 01 00 	movaps %xmm0,0x1c0(%rsp)
    404e:	00 
    404f:	66 0f 6f 84 24 d0 01 	movdqa 0x1d0(%rsp),%xmm0
    4056:	00 00 
    4058:	66 0f ef 84 24 b0 00 	pxor   0xb0(%rsp),%xmm0
    405f:	00 00 
    4061:	0f 29 84 24 d0 01 00 	movaps %xmm0,0x1d0(%rsp)
    4068:	00 
    4069:	85 db                	test   %ebx,%ebx
    406b:	0f 84 06 03 00 00    	je     4377 <Hacl_HMAC_compute_sha3_224+0x567>
    4071:	41 89 df             	mov    %ebx,%r15d
    4074:	41 89 de             	mov    %ebx,%r14d
    4077:	4d 69 ff 39 8e e3 38 	imul   $0x38e38e39,%r15,%r15
    407e:	49 c1 ef 25          	shr    $0x25,%r15
    4082:	42 8d 04 fd 00 00 00 	lea    0x0(,%r15,8),%eax
    4089:	00 
    408a:	42 8d 14 38          	lea    (%rax,%r15,1),%edx
    408e:	c1 e2 04             	shl    $0x4,%edx
    4091:	41 29 d6             	sub    %edx,%r14d
    4094:	81 fb 8f 00 00 00    	cmp    $0x8f,%ebx
    409a:	0f 86 cc 02 00 00    	jbe    436c <Hacl_HMAC_compute_sha3_224+0x55c>
    40a0:	45 85 f6             	test   %r14d,%r14d
    40a3:	0f 85 c3 02 00 00    	jne    436c <Hacl_HMAC_compute_sha3_224+0x55c>
    40a9:	41 83 ef 01          	sub    $0x1,%r15d
    40ad:	43 8d 04 ff          	lea    (%r15,%r15,8),%eax
    40b1:	c1 e0 04             	shl    $0x4,%eax
    40b4:	29 c3                	sub    %eax,%ebx
    40b6:	41 89 de             	mov    %ebx,%r14d
    40b9:	b9 01 00 00 00       	mov    $0x1,%ecx
    40be:	4c 89 ea             	mov    %r13,%rdx
    40c1:	4c 89 e6             	mov    %r12,%rsi
    40c4:	bf 09 00 00 00       	mov    $0x9,%edi
    40c9:	48 8d 5c 05 00       	lea    0x0(%rbp,%rax,1),%rbx
    40ce:	e8 cd 43 01 00       	call   184a0 <Hacl_Hash_SHA3_update_multi_sha3>
    40d3:	44 89 f9             	mov    %r15d,%ecx
    40d6:	48 89 ea             	mov    %rbp,%rdx
    40d9:	4c 89 e6             	mov    %r12,%rsi
    40dc:	bf 09 00 00 00       	mov    $0x9,%edi
    40e1:	e8 ba 43 01 00       	call   184a0 <Hacl_Hash_SHA3_update_multi_sha3>
    40e6:	44 89 f1             	mov    %r14d,%ecx
    40e9:	48 89 da             	mov    %rbx,%rdx
    40ec:	4c 89 e6             	mov    %r12,%rsi
    40ef:	bf 09 00 00 00       	mov    $0x9,%edi
    40f4:	e8 c7 44 01 00       	call   185c0 <Hacl_Hash_SHA3_update_last_sha3>
    40f9:	31 c0                	xor    %eax,%eax
    40fb:	b9 20 00 00 00       	mov    $0x20,%ecx
    4100:	66 0f ef c0          	pxor   %xmm0,%xmm0
    4104:	ba c8 00 00 00       	mov    $0xc8,%edx
    4109:	48 8d bc 24 b0 03 00 	lea    0x3b0(%rsp),%rdi
    4110:	00 
    4111:	4c 8d bc 24 b0 03 00 	lea    0x3b0(%rsp),%r15
    4118:	00 
    4119:	4c 89 e6             	mov    %r12,%rsi
    411c:	0f 29 84 24 b0 02 00 	movaps %xmm0,0x2b0(%rsp)
    4123:	00 
    4124:	f3 48 ab             	rep stos %rax,%es:(%rdi)
    4127:	4c 89 ff             	mov    %r15,%rdi
    412a:	0f 29 84 24 c0 02 00 	movaps %xmm0,0x2c0(%rsp)
    4131:	00 
    4132:	48 8d ac 24 b0 04 00 	lea    0x4b0(%rsp),%rbp
    4139:	00 
    413a:	0f 29 84 24 d0 02 00 	movaps %xmm0,0x2d0(%rsp)
    4141:	00 
    4142:	48 8d 9c 24 b0 05 00 	lea    0x5b0(%rsp),%rbx
    4149:	00 
    414a:	0f 29 84 24 e0 02 00 	movaps %xmm0,0x2e0(%rsp)
    4151:	00 
    4152:	0f 29 84 24 f0 02 00 	movaps %xmm0,0x2f0(%rsp)
    4159:	00 
    415a:	0f 29 84 24 00 03 00 	movaps %xmm0,0x300(%rsp)
    4161:	00 
    4162:	0f 29 84 24 10 03 00 	movaps %xmm0,0x310(%rsp)
    4169:	00 
    416a:	0f 29 84 24 20 03 00 	movaps %xmm0,0x320(%rsp)
    4171:	00 
    4172:	0f 29 84 24 30 03 00 	movaps %xmm0,0x330(%rsp)
    4179:	00 
    417a:	0f 29 84 24 40 03 00 	movaps %xmm0,0x340(%rsp)
    4181:	00 
    4182:	0f 29 84 24 50 03 00 	movaps %xmm0,0x350(%rsp)
    4189:	00 
    418a:	0f 29 84 24 60 03 00 	movaps %xmm0,0x360(%rsp)
    4191:	00 
    4192:	0f 29 84 24 70 03 00 	movaps %xmm0,0x370(%rsp)
    4199:	00 
    419a:	0f 29 84 24 80 03 00 	movaps %xmm0,0x380(%rsp)
    41a1:	00 
    41a2:	0f 29 84 24 90 03 00 	movaps %xmm0,0x390(%rsp)
    41a9:	00 
    41aa:	0f 29 84 24 a0 03 00 	movaps %xmm0,0x3a0(%rsp)
    41b1:	00 
    41b2:	e8 06 d2 ff ff       	call   13bd <memcpy>
    41b7:	48 8d 84 24 b0 02 00 	lea    0x2b0(%rsp),%rax
    41be:	00 
    41bf:	48 89 44 24 18       	mov    %rax,0x18(%rsp)
    41c4:	49 89 c6             	mov    %rax,%r14
    41c7:	66 0f 1f 84 00 00 00 	nopw   0x0(%rax,%rax,1)
    41ce:	00 00 
    41d0:	49 8b 07             	mov    (%r15),%rax
    41d3:	4c 89 f7             	mov    %r14,%rdi
    41d6:	ba 08 00 00 00       	mov    $0x8,%edx
    41db:	48 89 de             	mov    %rbx,%rsi
    41de:	49 83 c7 08          	add    $0x8,%r15
    41e2:	49 83 c6 08          	add    $0x8,%r14
    41e6:	48 89 84 24 b0 05 00 	mov    %rax,0x5b0(%rsp)
    41ed:	00 
    41ee:	e8 ca d1 ff ff       	call   13bd <memcpy>
    41f3:	49 39 ef             	cmp    %rbp,%r15
    41f6:	75 d8                	jne    41d0 <Hacl_HMAC_compute_sha3_224+0x3c0>
    41f8:	48 8b 74 24 18       	mov    0x18(%rsp),%rsi
    41fd:	ba 1c 00 00 00       	mov    $0x1c,%edx
    4202:	4c 89 ef             	mov    %r13,%rdi
    4205:	4c 8d b4 24 b0 06 00 	lea    0x6b0(%rsp),%r14
    420c:	00 
    420d:	e8 ab d1 ff ff       	call   13bd <memcpy>
    4212:	4c 89 e6             	mov    %r12,%rsi
    4215:	bf 09 00 00 00       	mov    $0x9,%edi
    421a:	e8 61 42 01 00       	call   18480 <Hacl_Hash_SHA3_init_>
    421f:	48 8b 54 24 10       	mov    0x10(%rsp),%rdx
    4224:	4c 89 e6             	mov    %r12,%rsi
    4227:	b9 01 00 00 00       	mov    $0x1,%ecx
    422c:	bf 09 00 00 00       	mov    $0x9,%edi
    4231:	e8 6a 42 01 00       	call   184a0 <Hacl_Hash_SHA3_update_multi_sha3>
    4236:	4c 89 ea             	mov    %r13,%rdx
    4239:	4c 89 e6             	mov    %r12,%rsi
    423c:	31 c9                	xor    %ecx,%ecx
    423e:	bf 09 00 00 00       	mov    $0x9,%edi
    4243:	e8 58 42 01 00       	call   184a0 <Hacl_Hash_SHA3_update_multi_sha3>
    4248:	4c 89 ea             	mov    %r13,%rdx
    424b:	4c 89 e6             	mov    %r12,%rsi
    424e:	b9 1c 00 00 00       	mov    $0x1c,%ecx
    4253:	bf 09 00 00 00       	mov    $0x9,%edi
    4258:	4c 8d 6c 24 28       	lea    0x28(%rsp),%r13
    425d:	e8 5e 43 01 00       	call   185c0 <Hacl_Hash_SHA3_update_last_sha3>
    4262:	31 c0                	xor    %eax,%eax
    4264:	b9 20 00 00 00       	mov    $0x20,%ecx
    4269:	48 89 df             	mov    %rbx,%rdi
    426c:	f3 48 ab             	rep stos %rax,%es:(%rdi)
    426f:	66 0f ef c0          	pxor   %xmm0,%xmm0
    4273:	4c 89 e6             	mov    %r12,%rsi
    4276:	ba c8 00 00 00       	mov    $0xc8,%edx
    427b:	48 89 df             	mov    %rbx,%rdi
    427e:	0f 29 84 24 b0 04 00 	movaps %xmm0,0x4b0(%rsp)
    4285:	00 
    4286:	49 89 ec             	mov    %rbp,%r12
    4289:	0f 29 84 24 c0 04 00 	movaps %xmm0,0x4c0(%rsp)
    4290:	00 
    4291:	0f 29 84 24 d0 04 00 	movaps %xmm0,0x4d0(%rsp)
    4298:	00 
    4299:	0f 29 84 24 e0 04 00 	movaps %xmm0,0x4e0(%rsp)
    42a0:	00 
    42a1:	0f 29 84 24 f0 04 00 	movaps %xmm0,0x4f0(%rsp)
    42a8:	00 
    42a9:	0f 29 84 24 00 05 00 	movaps %xmm0,0x500(%rsp)
    42b0:	00 
    42b1:	0f 29 84 24 10 05 00 	movaps %xmm0,0x510(%rsp)
    42b8:	00 
    42b9:	0f 29 84 24 20 05 00 	movaps %xmm0,0x520(%rsp)
    42c0:	00 
    42c1:	0f 29 84 24 30 05 00 	movaps %xmm0,0x530(%rsp)
    42c8:	00 
    42c9:	0f 29 84 24 40 05 00 	movaps %xmm0,0x540(%rsp)
    42d0:	00 
    42d1:	0f 29 84 24 50 05 00 	movaps %xmm0,0x550(%rsp)
    42d8:	00 
    42d9:	0f 29 84 24 60 05 00 	movaps %xmm0,0x560(%rsp)
    42e0:	00 
    42e1:	0f 29 84 24 70 05 00 	movaps %xmm0,0x570(%rsp)
    42e8:	00 
    42e9:	0f 29 84 24 80 05 00 	movaps %xmm0,0x580(%rsp)
    42f0:	00 
    42f1:	0f 29 84 24 90 05 00 	movaps %xmm0,0x590(%rsp)
    42f8:	00 
    42f9:	0f 29 84 24 a0 05 00 	movaps %xmm0,0x5a0(%rsp)
    4300:	00 
    4301:	e8 b7 d0 ff ff       	call   13bd <memcpy>
    4306:	66 2e 0f 1f 84 00 00 	cs nopw 0x0(%rax,%rax,1)
    430d:	00 00 00 
    4310:	48 8b 03             	mov    (%rbx),%rax
    4313:	4c 89 e7             	mov    %r12,%rdi
    4316:	ba 08 00 00 00       	mov    $0x8,%edx
    431b:	4c 89 ee             	mov    %r13,%rsi
    431e:	48 83 c3 08          	add    $0x8,%rbx
    4322:	49 83 c4 08          	add    $0x8,%r12
    4326:	48 89 44 24 28       	mov    %rax,0x28(%rsp)
    432b:	e8 8d d0 ff ff       	call   13bd <memcpy>
    4330:	49 39 de             	cmp    %rbx,%r14
    4333:	75 db                	jne    4310 <Hacl_HMAC_compute_sha3_224+0x500>
    4335:	48 8b 7c 24 08       	mov    0x8(%rsp),%rdi
    433a:	48 89 ee             	mov    %rbp,%rsi
    433d:	ba 1c 00 00 00       	mov    $0x1c,%edx
    4342:	e8 76 d0 ff ff       	call   13bd <memcpy>
    4347:	48 81 c4 b8 06 00 00 	add    $0x6b8,%rsp
    434e:	5b                   	pop    %rbx
    434f:	5d                   	pop    %rbp
    4350:	41 5c                	pop    %r12
    4352:	41 5d                	pop    %r13
    4354:	41 5e                	pop    %r14
    4356:	41 5f                	pop    %r15
    4358:	c3                   	ret    
    4359:	44 89 e2             	mov    %r12d,%edx
    435c:	4c 89 ee             	mov    %r13,%rsi
    435f:	4c 89 f7             	mov    %r14,%rdi
    4362:	e8 29 87 01 00       	call   1ca90 <Hacl_Hash_SHA3_sha3_224>
    4367:	e9 f9 fa ff ff       	jmp    3e65 <Hacl_HMAC_compute_sha3_224+0x55>
    436c:	44 01 f8             	add    %r15d,%eax
    436f:	c1 e0 04             	shl    $0x4,%eax
    4372:	e9 42 fd ff ff       	jmp    40b9 <Hacl_HMAC_compute_sha3_224+0x2a9>
    4377:	b9 90 00 00 00       	mov    $0x90,%ecx
    437c:	4c 89 ea             	mov    %r13,%rdx
    437f:	4c 89 e6             	mov    %r12,%rsi
    4382:	bf 09 00 00 00       	mov    $0x9,%edi
    4387:	e8 34 42 01 00       	call   185c0 <Hacl_Hash_SHA3_update_last_sha3>
    438c:	e9 68 fd ff ff       	jmp    40f9 <Hacl_HMAC_compute_sha3_224+0x2e9>
    4391:	66 66 2e 0f 1f 84 00 	data16 cs nopw 0x0(%rax,%rax,1)
    4398:	00 00 00 00 
    439c:	0f 1f 40 00          	nopl   0x0(%rax)

00000000000043a0 <Hacl_HMAC_compute_sha3_256>:
    43a0:	f3 0f 1e fa          	endbr64 
    43a4:	41 57                	push   %r15
    43a6:	41 56                	push   %r14
    43a8:	41 55                	push   %r13
    43aa:	49 89 f5             	mov    %rsi,%r13
    43ad:	31 f6                	xor    %esi,%esi
    43af:	41 54                	push   %r12
    43b1:	41 89 d4             	mov    %edx,%r12d
    43b4:	ba 88 00 00 00       	mov    $0x88,%edx
    43b9:	55                   	push   %rbp
    43ba:	48 89 cd             	mov    %rcx,%rbp
    43bd:	53                   	push   %rbx
    43be:	44 89 c3             	mov    %r8d,%ebx
    43c1:	48 81 ec b8 06 00 00 	sub    $0x6b8,%rsp
    43c8:	4c 8d 74 24 30       	lea    0x30(%rsp),%r14
    43cd:	48 89 7c 24 10       	mov    %rdi,0x10(%rsp)
    43d2:	4c 89 f7             	mov    %r14,%rdi
    43d5:	e8 ff cf ff ff       	call   13d9 <memset>
    43da:	41 81 fc 88 00 00 00 	cmp    $0x88,%r12d
    43e1:	0f 87 02 05 00 00    	ja     48e9 <Hacl_HMAC_compute_sha3_256+0x549>
    43e7:	44 89 e2             	mov    %r12d,%edx
    43ea:	4c 89 ee             	mov    %r13,%rsi
    43ed:	4c 89 f7             	mov    %r14,%rdi
    43f0:	e8 c8 cf ff ff       	call   13bd <memcpy>
    43f5:	4c 8d ac 24 c0 00 00 	lea    0xc0(%rsp),%r13
    43fc:	00 
    43fd:	ba 88 00 00 00       	mov    $0x88,%edx
    4402:	be 36 00 00 00       	mov    $0x36,%esi
    4407:	4c 89 ef             	mov    %r13,%rdi
    440a:	4c 8d a4 24 e0 01 00 	lea    0x1e0(%rsp),%r12
    4411:	00 
    4412:	e8 c2 cf ff ff       	call   13d9 <memset>
    4417:	ba 88 00 00 00       	mov    $0x88,%edx
    441c:	be 5c 00 00 00       	mov    $0x5c,%esi
    4421:	66 0f 6f 84 24 c0 00 	movdqa 0xc0(%rsp),%xmm0
    4428:	00 00 
    442a:	66 0f ef 44 24 30    	pxor   0x30(%rsp),%xmm0
    4430:	48 8d 84 24 50 01 00 	lea    0x150(%rsp),%rax
    4437:	00 
    4438:	f3 0f 7e 8c 24 b0 00 	movq   0xb0(%rsp),%xmm1
    443f:	00 00 
    4441:	48 89 c7             	mov    %rax,%rdi
    4444:	48 89 44 24 08       	mov    %rax,0x8(%rsp)
    4449:	0f 29 84 24 c0 00 00 	movaps %xmm0,0xc0(%rsp)
    4450:	00 
    4451:	66 0f 6f 84 24 d0 00 	movdqa 0xd0(%rsp),%xmm0
    4458:	00 00 
    445a:	66 0f ef 44 24 40    	pxor   0x40(%rsp),%xmm0
    4460:	0f 29 84 24 d0 00 00 	movaps %xmm0,0xd0(%rsp)
    4467:	00 
    4468:	66 0f 6f 84 24 e0 00 	movdqa 0xe0(%rsp),%xmm0
    446f:	00 00 
    4471:	66 0f ef 44 24 50    	pxor   0x50(%rsp),%xmm0
    4477:	0f 29 84 24 e0 00 00 	movaps %xmm0,0xe0(%rsp)
    447e:	00 
    447f:	66 0f 6f 84 24 f0 00 	movdqa 0xf0(%rsp),%xmm0
    4486:	00 00 
    4488:	66 0f ef 44 24 60    	pxor   0x60(%rsp),%xmm0
    448e:	0f 29 84 24 f0 00 00 	movaps %xmm0,0xf0(%rsp)
    4495:	00 
    4496:	66 0f 6f 84 24 00 01 	movdqa 0x100(%rsp),%xmm0
    449d:	00 00 
    449f:	66 0f ef 44 24 70    	pxor   0x70(%rsp),%xmm0
    44a5:	0f 29 84 24 00 01 00 	movaps %xmm0,0x100(%rsp)
    44ac:	00 
    44ad:	66 0f 6f 84 24 10 01 	movdqa 0x110(%rsp),%xmm0
    44b4:	00 00 
    44b6:	66 0f ef 84 24 80 00 	pxor   0x80(%rsp),%xmm0
    44bd:	00 00 
    44bf:	0f 29 84 24 10 01 00 	movaps %xmm0,0x110(%rsp)
    44c6:	00 
    44c7:	66 0f 6f 84 24 20 01 	movdqa 0x120(%rsp),%xmm0
    44ce:	00 00 
    44d0:	66 0f ef 84 24 90 00 	pxor   0x90(%rsp),%xmm0
    44d7:	00 00 
    44d9:	0f 29 84 24 20 01 00 	movaps %xmm0,0x120(%rsp)
    44e0:	00 
    44e1:	66 0f 6f 84 24 30 01 	movdqa 0x130(%rsp),%xmm0
    44e8:	00 00 
    44ea:	66 0f ef 84 24 a0 00 	pxor   0xa0(%rsp),%xmm0
    44f1:	00 00 
    44f3:	0f 29 84 24 30 01 00 	movaps %xmm0,0x130(%rsp)
    44fa:	00 
    44fb:	f3 0f 7e 84 24 40 01 	movq   0x140(%rsp),%xmm0
    4502:	00 00 
    4504:	66 0f ef c1          	pxor   %xmm1,%xmm0
    4508:	66 0f d6 84 24 40 01 	movq   %xmm0,0x140(%rsp)
    450f:	00 00 
    4511:	e8 c3 ce ff ff       	call   13d9 <memset>
    4516:	b9 19 00 00 00       	mov    $0x19,%ecx
    451b:	31 c0                	xor    %eax,%eax
    451d:	4c 89 e7             	mov    %r12,%rdi
    4520:	66 0f 6f 84 24 50 01 	movdqa 0x150(%rsp),%xmm0
    4527:	00 00 
    4529:	66 0f ef 44 24 30    	pxor   0x30(%rsp),%xmm0
    452f:	f3 0f 7e 8c 24 b0 00 	movq   0xb0(%rsp),%xmm1
    4536:	00 00 
    4538:	f3 48 ab             	rep stos %rax,%es:(%rdi)
    453b:	0f 29 84 24 50 01 00 	movaps %xmm0,0x150(%rsp)
    4542:	00 
    4543:	66 0f 6f 84 24 60 01 	movdqa 0x160(%rsp),%xmm0
    454a:	00 00 
    454c:	66 0f ef 44 24 40    	pxor   0x40(%rsp),%xmm0
    4552:	0f 29 84 24 60 01 00 	movaps %xmm0,0x160(%rsp)
    4559:	00 
    455a:	66 0f 6f 84 24 70 01 	movdqa 0x170(%rsp),%xmm0
    4561:	00 00 
    4563:	66 0f ef 44 24 50    	pxor   0x50(%rsp),%xmm0
    4569:	0f 29 84 24 70 01 00 	movaps %xmm0,0x170(%rsp)
    4570:	00 
    4571:	66 0f 6f 84 24 80 01 	movdqa 0x180(%rsp),%xmm0
    4578:	00 00 
    457a:	66 0f ef 44 24 60    	pxor   0x60(%rsp),%xmm0
    4580:	0f 29 84 24 80 01 00 	movaps %xmm0,0x180(%rsp)
    4587:	00 
    4588:	66 0f 6f 84 24 90 01 	movdqa 0x190(%rsp),%xmm0
    458f:	00 00 
    4591:	66 0f ef 44 24 70    	pxor   0x70(%rsp),%xmm0
    4597:	0f 29 84 24 90 01 00 	movaps %xmm0,0x190(%rsp)
    459e:	00 
    459f:	66 0f 6f 84 24 a0 01 	movdqa 0x1a0(%rsp),%xmm0
    45a6:	00 00 
    45a8:	66 0f ef 84 24 80 00 	pxor   0x80(%rsp),%xmm0
    45af:	00 00 
    45b1:	0f 29 84 24 a0 01 00 	movaps %xmm0,0x1a0(%rsp)
    45b8:	00 
    45b9:	66 0f 6f 84 24 b0 01 	movdqa 0x1b0(%rsp),%xmm0
    45c0:	00 00 
    45c2:	66 0f ef 84 24 90 00 	pxor   0x90(%rsp),%xmm0
    45c9:	00 00 
    45cb:	0f 29 84 24 b0 01 00 	movaps %xmm0,0x1b0(%rsp)
    45d2:	00 
    45d3:	66 0f 6f 84 24 c0 01 	movdqa 0x1c0(%rsp),%xmm0
    45da:	00 00 
    45dc:	66 0f ef 84 24 a0 00 	pxor   0xa0(%rsp),%xmm0
    45e3:	00 00 
    45e5:	0f 29 84 24 c0 01 00 	movaps %xmm0,0x1c0(%rsp)
    45ec:	00 
    45ed:	f3 0f 7e 84 24 d0 01 	movq   0x1d0(%rsp),%xmm0
    45f4:	00 00 
    45f6:	66 0f ef c1          	pxor   %xmm1,%xmm0
    45fa:	66 0f d6 84 24 d0 01 	movq   %xmm0,0x1d0(%rsp)
    4601:	00 00 
    4603:	85 db                	test   %ebx,%ebx
    4605:	0f 84 fd 02 00 00    	je     4908 <Hacl_HMAC_compute_sha3_256+0x568>
    460b:	b8 f1 f0 f0 f0       	mov    $0xf0f0f0f1,%eax
    4610:	41 89 df             	mov    %ebx,%r15d
    4613:	41 89 de             	mov    %ebx,%r14d
    4616:	4c 0f af f8          	imul   %rax,%r15
    461a:	49 c1 ef 27          	shr    $0x27,%r15
    461e:	41 69 c7 88 00 00 00 	imul   $0x88,%r15d,%eax
    4625:	41 29 c6             	sub    %eax,%r14d
    4628:	81 fb 87 00 00 00    	cmp    $0x87,%ebx
    462e:	0f 86 c8 02 00 00    	jbe    48fc <Hacl_HMAC_compute_sha3_256+0x55c>
    4634:	45 85 f6             	test   %r14d,%r14d
    4637:	0f 85 bf 02 00 00    	jne    48fc <Hacl_HMAC_compute_sha3_256+0x55c>
    463d:	41 83 ef 01          	sub    $0x1,%r15d
    4641:	41 69 c7 88 00 00 00 	imul   $0x88,%r15d,%eax
    4648:	29 c3                	sub    %eax,%ebx
    464a:	41 89 de             	mov    %ebx,%r14d
    464d:	b9 01 00 00 00       	mov    $0x1,%ecx
    4652:	4c 89 ea             	mov    %r13,%rdx
    4655:	4c 89 e6             	mov    %r12,%rsi
    4658:	bf 08 00 00 00       	mov    $0x8,%edi
    465d:	48 8d 5c 05 00       	lea    0x0(%rbp,%rax,1),%rbx
    4662:	e8 39 3e 01 00       	call   184a0 <Hacl_Hash_SHA3_update_multi_sha3>
    4667:	44 89 f9             	mov    %r15d,%ecx
    466a:	48 89 ea             	mov    %rbp,%rdx
    466d:	4c 89 e6             	mov    %r12,%rsi
    4670:	bf 08 00 00 00       	mov    $0x8,%edi
    4675:	e8 26 3e 01 00       	call   184a0 <Hacl_Hash_SHA3_update_multi_sha3>
    467a:	44 89 f1             	mov    %r14d,%ecx
    467d:	48 89 da             	mov    %rbx,%rdx
    4680:	4c 89 e6             	mov    %r12,%rsi
    4683:	bf 08 00 00 00       	mov    $0x8,%edi
    4688:	e8 33 3f 01 00       	call   185c0 <Hacl_Hash_SHA3_update_last_sha3>
    468d:	31 c0                	xor    %eax,%eax
    468f:	b9 20 00 00 00       	mov    $0x20,%ecx
    4694:	66 0f ef c0          	pxor   %xmm0,%xmm0
    4698:	ba c8 00 00 00       	mov    $0xc8,%edx
    469d:	48 8d bc 24 b0 03 00 	lea    0x3b0(%rsp),%rdi
    46a4:	00 
    46a5:	4c 8d b4 24 b0 03 00 	lea    0x3b0(%rsp),%r14
    46ac:	00 
    46ad:	4c 89 e6             	mov    %r12,%rsi
    46b0:	0f 29 84 24 b0 02 00 	movaps %xmm0,0x2b0(%rsp)
    46b7:	00 
    46b8:	f3 48 ab             	rep stos %rax,%es:(%rdi)
    46bb:	4c 89 f7             	mov    %r14,%rdi
    46be:	0f 29 84 24 c0 02 00 	movaps %xmm0,0x2c0(%rsp)
    46c5:	00 
    46c6:	48 8d ac 24 b0 04 00 	lea    0x4b0(%rsp),%rbp
    46cd:	00 
    46ce:	0f 29 84 24 d0 02 00 	movaps %xmm0,0x2d0(%rsp)
    46d5:	00 
    46d6:	48 8d 9c 24 b0 05 00 	lea    0x5b0(%rsp),%rbx
    46dd:	00 
    46de:	0f 29 84 24 e0 02 00 	movaps %xmm0,0x2e0(%rsp)
    46e5:	00 
    46e6:	0f 29 84 24 f0 02 00 	movaps %xmm0,0x2f0(%rsp)
    46ed:	00 
    46ee:	0f 29 84 24 00 03 00 	movaps %xmm0,0x300(%rsp)
    46f5:	00 
    46f6:	0f 29 84 24 10 03 00 	movaps %xmm0,0x310(%rsp)
    46fd:	00 
    46fe:	0f 29 84 24 20 03 00 	movaps %xmm0,0x320(%rsp)
    4705:	00 
    4706:	0f 29 84 24 30 03 00 	movaps %xmm0,0x330(%rsp)
    470d:	00 
    470e:	0f 29 84 24 40 03 00 	movaps %xmm0,0x340(%rsp)
    4715:	00 
    4716:	0f 29 84 24 50 03 00 	movaps %xmm0,0x350(%rsp)
    471d:	00 
    471e:	0f 29 84 24 60 03 00 	movaps %xmm0,0x360(%rsp)
    4725:	00 
    4726:	0f 29 84 24 70 03 00 	movaps %xmm0,0x370(%rsp)
    472d:	00 
    472e:	0f 29 84 24 80 03 00 	movaps %xmm0,0x380(%rsp)
    4735:	00 
    4736:	0f 29 84 24 90 03 00 	movaps %xmm0,0x390(%rsp)
    473d:	00 
    473e:	0f 29 84 24 a0 03 00 	movaps %xmm0,0x3a0(%rsp)
    4745:	00 
    4746:	e8 72 cc ff ff       	call   13bd <memcpy>
    474b:	48 8d 84 24 b0 02 00 	lea    0x2b0(%rsp),%rax
    4752:	00 
    4753:	48 89 44 24 18       	mov    %rax,0x18(%rsp)
    4758:	49 89 c7             	mov    %rax,%r15
    475b:	0f 1f 44 00 00       	nopl   0x0(%rax,%rax,1)
    4760:	49 8b 06             	mov    (%r14),%rax
    4763:	4c 89 ff             	mov    %r15,%rdi
    4766:	ba 08 00 00 00       	mov    $0x8,%edx
    476b:	48 89 de             	mov    %rbx,%rsi
    476e:	49 83 c6 08          	add    $0x8,%r14
    4772:	49 83 c7 08          	add    $0x8,%r15
    4776:	48 89 84 24 b0 05 00 	mov    %rax,0x5b0(%rsp)
    477d:	00 
    477e:	e8 3a cc ff ff       	call   13bd <memcpy>
    4783:	49 39 ee             	cmp    %rbp,%r14
    4786:	75 d8                	jne    4760 <Hacl_HMAC_compute_sha3_256+0x3c0>
    4788:	48 8b 74 24 18       	mov    0x18(%rsp),%rsi
    478d:	ba 20 00 00 00       	mov    $0x20,%edx
    4792:	4c 89 ef             	mov    %r13,%rdi
    4795:	4c 8d b4 24 b0 06 00 	lea    0x6b0(%rsp),%r14
    479c:	00 
    479d:	e8 1b cc ff ff       	call   13bd <memcpy>
    47a2:	4c 89 e6             	mov    %r12,%rsi
    47a5:	bf 08 00 00 00       	mov    $0x8,%edi
    47aa:	e8 d1 3c 01 00       	call   18480 <Hacl_Hash_SHA3_init_>
    47af:	48 8b 54 24 08       	mov    0x8(%rsp),%rdx
    47b4:	4c 89 e6             	mov    %r12,%rsi
    47b7:	b9 01 00 00 00       	mov    $0x1,%ecx
    47bc:	bf 08 00 00 00       	mov    $0x8,%edi
    47c1:	e8 da 3c 01 00       	call   184a0 <Hacl_Hash_SHA3_update_multi_sha3>
    47c6:	4c 89 ea             	mov    %r13,%rdx
    47c9:	4c 89 e6             	mov    %r12,%rsi
    47cc:	31 c9                	xor    %ecx,%ecx
    47ce:	bf 08 00 00 00       	mov    $0x8,%edi
    47d3:	e8 c8 3c 01 00       	call   184a0 <Hacl_Hash_SHA3_update_multi_sha3>
    47d8:	4c 89 ea             	mov    %r13,%rdx
    47db:	4c 89 e6             	mov    %r12,%rsi
    47de:	b9 20 00 00 00       	mov    $0x20,%ecx
    47e3:	bf 08 00 00 00       	mov    $0x8,%edi
    47e8:	4c 8d 6c 24 28       	lea    0x28(%rsp),%r13
    47ed:	e8 ce 3d 01 00       	call   185c0 <Hacl_Hash_SHA3_update_last_sha3>
    47f2:	31 c0                	xor    %eax,%eax
    47f4:	b9 20 00 00 00       	mov    $0x20,%ecx
    47f9:	48 89 df             	mov    %rbx,%rdi
    47fc:	f3 48 ab             	rep stos %rax,%es:(%rdi)
    47ff:	66 0f ef c0          	pxor   %xmm0,%xmm0
    4803:	4c 89 e6             	mov    %r12,%rsi
    4806:	ba c8 00 00 00       	mov    $0xc8,%edx
    480b:	48 89 df             	mov    %rbx,%rdi
    480e:	0f 29 84 24 b0 04 00 	movaps %xmm0,0x4b0(%rsp)
    4815:	00 
    4816:	49 89 ec             	mov    %rbp,%r12
    4819:	0f 29 84 24 c0 04 00 	movaps %xmm0,0x4c0(%rsp)
    4820:	00 
    4821:	0f 29 84 24 d0 04 00 	movaps %xmm0,0x4d0(%rsp)
    4828:	00 
    4829:	0f 29 84 24 e0 04 00 	movaps %xmm0,0x4e0(%rsp)
    4830:	00 
    4831:	0f 29 84 24 f0 04 00 	movaps %xmm0,0x4f0(%rsp)
    4838:	00 
    4839:	0f 29 84 24 00 05 00 	movaps %xmm0,0x500(%rsp)
    4840:	00 
    4841:	0f 29 84 24 10 05 00 	movaps %xmm0,0x510(%rsp)
    4848:	00 
    4849:	0f 29 84 24 20 05 00 	movaps %xmm0,0x520(%rsp)
    4850:	00 
    4851:	0f 29 84 24 30 05 00 	movaps %xmm0,0x530(%rsp)
    4858:	00 
    4859:	0f 29 84 24 40 05 00 	movaps %xmm0,0x540(%rsp)
    4860:	00 
    4861:	0f 29 84 24 50 05 00 	movaps %xmm0,0x550(%rsp)
    4868:	00 
    4869:	0f 29 84 24 60 05 00 	movaps %xmm0,0x560(%rsp)
    4870:	00 
    4871:	0f 29 84 24 70 05 00 	movaps %xmm0,0x570(%rsp)
    4878:	00 
    4879:	0f 29 84 24 80 05 00 	movaps %xmm0,0x580(%rsp)
    4880:	00 
    4881:	0f 29 84 24 90 05 00 	movaps %xmm0,0x590(%rsp)
    4888:	00 
    4889:	0f 29 84 24 a0 05 00 	movaps %xmm0,0x5a0(%rsp)
    4890:	00 
    4891:	e8 27 cb ff ff       	call   13bd <memcpy>
    4896:	66 2e 0f 1f 84 00 00 	cs nopw 0x0(%rax,%rax,1)
    489d:	00 00 00 
    48a0:	48 8b 03             	mov    (%rbx),%rax
    48a3:	4c 89 e7             	mov    %r12,%rdi
    48a6:	ba 08 00 00 00       	mov    $0x8,%edx
    48ab:	4c 89 ee             	mov    %r13,%rsi
    48ae:	48 83 c3 08          	add    $0x8,%rbx
    48b2:	49 83 c4 08          	add    $0x8,%r12
    48b6:	48 89 44 24 28       	mov    %rax,0x28(%rsp)
    48bb:	e8 fd ca ff ff       	call   13bd <memcpy>
    48c0:	49 39 de             	cmp    %rbx,%r14
    48c3:	75 db                	jne    48a0 <Hacl_HMAC_compute_sha3_256+0x500>
    48c5:	48 8b 7c 24 10       	mov    0x10(%rsp),%rdi
    48ca:	48 89 ee             	mov    %rbp,%rsi
    48cd:	ba 20 00 00 00       	mov    $0x20,%edx
    48d2:	e8 e6 ca ff ff       	call   13bd <memcpy>
    48d7:	48 81 c4 b8 06 00 00 	add    $0x6b8,%rsp
    48de:	5b                   	pop    %rbx
    48df:	5d                   	pop    %rbp
    48e0:	41 5c                	pop    %r12
    48e2:	41 5d                	pop    %r13
    48e4:	41 5e                	pop    %r14
    48e6:	41 5f                	pop    %r15
    48e8:	c3                   	ret    
    48e9:	44 89 e2             	mov    %r12d,%edx
    48ec:	4c 89 ee             	mov    %r13,%rsi
    48ef:	4c 89 f7             	mov    %r14,%rdi
    48f2:	e8 79 8a 01 00       	call   1d370 <Hacl_Hash_SHA3_sha3_256>
    48f7:	e9 f9 fa ff ff       	jmp    43f5 <Hacl_HMAC_compute_sha3_256+0x55>
    48fc:	41 69 c7 88 00 00 00 	imul   $0x88,%r15d,%eax
    4903:	e9 45 fd ff ff       	jmp    464d <Hacl_HMAC_compute_sha3_256+0x2ad>
    4908:	b9 88 00 00 00       	mov    $0x88,%ecx
    490d:	4c 89 ea             	mov    %r13,%rdx
    4910:	4c 89 e6             	mov    %r12,%rsi
    4913:	bf 08 00 00 00       	mov    $0x8,%edi
    4918:	e8 a3 3c 01 00       	call   185c0 <Hacl_Hash_SHA3_update_last_sha3>
    491d:	e9 6b fd ff ff       	jmp    468d <Hacl_HMAC_compute_sha3_256+0x2ed>
    4922:	66 66 2e 0f 1f 84 00 	data16 cs nopw 0x0(%rax,%rax,1)
    4929:	00 00 00 00 
    492d:	0f 1f 00             	nopl   (%rax)

0000000000004930 <Hacl_HMAC_compute_sha3_384>:
    4930:	f3 0f 1e fa          	endbr64 
    4934:	41 57                	push   %r15
    4936:	41 56                	push   %r14
    4938:	41 55                	push   %r13
    493a:	49 89 f5             	mov    %rsi,%r13
    493d:	31 f6                	xor    %esi,%esi
    493f:	41 54                	push   %r12
    4941:	41 89 d4             	mov    %edx,%r12d
    4944:	ba 68 00 00 00       	mov    $0x68,%edx
    4949:	55                   	push   %rbp
    494a:	48 89 cd             	mov    %rcx,%rbp
    494d:	53                   	push   %rbx
    494e:	44 89 c3             	mov    %r8d,%ebx
    4951:	48 81 ec 58 06 00 00 	sub    $0x658,%rsp
    4958:	4c 8d 74 24 30       	lea    0x30(%rsp),%r14
    495d:	48 89 7c 24 10       	mov    %rdi,0x10(%rsp)
    4962:	4c 89 f7             	mov    %r14,%rdi
    4965:	e8 6f ca ff ff       	call   13d9 <memset>
    496a:	41 83 fc 68          	cmp    $0x68,%r12d
    496e:	0f 87 85 04 00 00    	ja     4df9 <Hacl_HMAC_compute_sha3_384+0x4c9>
    4974:	44 89 e2             	mov    %r12d,%edx
    4977:	4c 89 ee             	mov    %r13,%rsi
    497a:	4c 89 f7             	mov    %r14,%rdi
    497d:	e8 3b ca ff ff       	call   13bd <memcpy>
    4982:	4c 8d ac 24 a0 00 00 	lea    0xa0(%rsp),%r13
    4989:	00 
    498a:	ba 68 00 00 00       	mov    $0x68,%edx
    498f:	be 36 00 00 00       	mov    $0x36,%esi
    4994:	4c 89 ef             	mov    %r13,%rdi
    4997:	4c 8d a4 24 80 01 00 	lea    0x180(%rsp),%r12
    499e:	00 
    499f:	e8 35 ca ff ff       	call   13d9 <memset>
    49a4:	ba 68 00 00 00       	mov    $0x68,%edx
    49a9:	be 5c 00 00 00       	mov    $0x5c,%esi
    49ae:	66 0f 6f 84 24 a0 00 	movdqa 0xa0(%rsp),%xmm0
    49b5:	00 00 
    49b7:	66 0f ef 44 24 30    	pxor   0x30(%rsp),%xmm0
    49bd:	48 8d 84 24 10 01 00 	lea    0x110(%rsp),%rax
    49c4:	00 
    49c5:	f3 0f 7e 8c 24 90 00 	movq   0x90(%rsp),%xmm1
    49cc:	00 00 
    49ce:	48 89 c7             	mov    %rax,%rdi
    49d1:	48 89 44 24 08       	mov    %rax,0x8(%rsp)
    49d6:	0f 29 84 24 a0 00 00 	movaps %xmm0,0xa0(%rsp)
    49dd:	00 
    49de:	66 0f 6f 84 24 b0 00 	movdqa 0xb0(%rsp),%xmm0
    49e5:	00 00 
    49e7:	66 0f ef 44 24 40    	pxor   0x40(%rsp),%xmm0
    49ed:	0f 29 84 24 b0 00 00 	movaps %xmm0,0xb0(%rsp)
    49f4:	00 
    49f5:	66 0f 6f 84 24 c0 00 	movdqa 0xc0(%rsp),%xmm0
    49fc:	00 00 
    49fe:	66 0f ef 44 24 50    	pxor   0x50(%rsp),%xmm0
    4a04:	0f 29 84 24 c0 00 00 	movaps %xmm0,0xc0(%rsp)
    4a0b:	00 
    4a0c:	66 0f 6f 84 24 d0 00 	movdqa 0xd0(%rsp),%xmm0
    4a13:	00 00 
    4a15:	66 0f ef 44 24 60    	pxor   0x60(%rsp),%xmm0
    4a1b:	0f 29 84 24 d0 00 00 	movaps %xmm0,0xd0(%rsp)
    4a22:	00 
    4a23:	66 0f 6f 84 24 e0 00 	movdqa 0xe0(%rsp),%xmm0
    4a2a:	00 00 
    4a2c:	66 0f ef 44 24 70    	pxor   0x70(%rsp),%xmm0
    4a32:	0f 29 84 24 e0 00 00 	movaps %xmm0,0xe0(%rsp)
    4a39:	00 
    4a3a:	66 0f 6f 84 24 f0 00 	movdqa 0xf0(%rsp),%xmm0
    4a41:	00 00 
    4a43:	66 0f ef 84 24 80 00 	pxor   0x80(%rsp),%xmm0
    4a4a:	00 00 
    4a4c:	0f 29 84 24 f0 00 00 	movaps %xmm0,0xf0(%rsp)
    4a53:	00 
    4a54:	f3 0f 7e 84 24 00 01 	movq   0x100(%rsp),%xmm0
    4a5b:	00 00 
    4a5d:	66 0f ef c1          	pxor   %xmm1,%xmm0
    4a61:	66 0f d6 84 24 00 01 	movq   %xmm0,0x100(%rsp)
    4a68:	00 00 
    4a6a:	e8 6a c9 ff ff       	call   13d9 <memset>
    4a6f:	b9 19 00 00 00       	mov    $0x19,%ecx
    4a74:	31 c0                	xor    %eax,%eax
    4a76:	4c 89 e7             	mov    %r12,%rdi
    4a79:	66 0f 6f 84 24 10 01 	movdqa 0x110(%rsp),%xmm0
    4a80:	00 00 
    4a82:	66 0f ef 44 24 30    	pxor   0x30(%rsp),%xmm0
    4a88:	f3 0f 7e 8c 24 90 00 	movq   0x90(%rsp),%xmm1
    4a8f:	00 00 
    4a91:	f3 48 ab             	rep stos %rax,%es:(%rdi)
    4a94:	0f 29 84 24 10 01 00 	movaps %xmm0,0x110(%rsp)
    4a9b:	00 
    4a9c:	66 0f 6f 84 24 20 01 	movdqa 0x120(%rsp),%xmm0
    4aa3:	00 00 
    4aa5:	66 0f ef 44 24 40    	pxor   0x40(%rsp),%xmm0
    4aab:	0f 29 84 24 20 01 00 	movaps %xmm0,0x120(%rsp)
    4ab2:	00 
    4ab3:	66 0f 6f 84 24 30 01 	movdqa 0x130(%rsp),%xmm0
    4aba:	00 00 
    4abc:	66 0f ef 44 24 50    	pxor   0x50(%rsp),%xmm0
    4ac2:	0f 29 84 24 30 01 00 	movaps %xmm0,0x130(%rsp)
    4ac9:	00 
    4aca:	66 0f 6f 84 24 40 01 	movdqa 0x140(%rsp),%xmm0
    4ad1:	00 00 
    4ad3:	66 0f ef 44 24 60    	pxor   0x60(%rsp),%xmm0
    4ad9:	0f 29 84 24 40 01 00 	movaps %xmm0,0x140(%rsp)
    4ae0:	00 
    4ae1:	66 0f 6f 84 24 50 01 	movdqa 0x150(%rsp),%xmm0
    4ae8:	00 00 
    4aea:	66 0f ef 44 24 70    	pxor   0x70(%rsp),%xmm0
    4af0:	0f 29 84 24 50 01 00 	movaps %xmm0,0x150(%rsp)
    4af7:	00 
    4af8:	66 0f 6f 84 24 60 01 	movdqa 0x160(%rsp),%xmm0
    4aff:	00 00 
    4b01:	66 0f ef 84 24 80 00 	pxor   0x80(%rsp),%xmm0
    4b08:	00 00 
    4b0a:	0f 29 84 24 60 01 00 	movaps %xmm0,0x160(%rsp)
    4b11:	00 
    4b12:	f3 0f 7e 84 24 70 01 	movq   0x170(%rsp),%xmm0
    4b19:	00 00 
    4b1b:	66 0f ef c1          	pxor   %xmm1,%xmm0
    4b1f:	66 0f d6 84 24 70 01 	movq   %xmm0,0x170(%rsp)
    4b26:	00 00 
    4b28:	85 db                	test   %ebx,%ebx
    4b2a:	0f 84 e5 02 00 00    	je     4e15 <Hacl_HMAC_compute_sha3_384+0x4e5>
    4b30:	41 89 df             	mov    %ebx,%r15d
    4b33:	41 89 de             	mov    %ebx,%r14d
    4b36:	4d 69 ff 4f ec c4 4e 	imul   $0x4ec4ec4f,%r15,%r15
    4b3d:	49 c1 ef 25          	shr    $0x25,%r15
    4b41:	41 6b c7 68          	imul   $0x68,%r15d,%eax
    4b45:	41 29 c6             	sub    %eax,%r14d
    4b48:	83 fb 67             	cmp    $0x67,%ebx
    4b4b:	0f 86 bb 02 00 00    	jbe    4e0c <Hacl_HMAC_compute_sha3_384+0x4dc>
    4b51:	45 85 f6             	test   %r14d,%r14d
    4b54:	0f 85 b2 02 00 00    	jne    4e0c <Hacl_HMAC_compute_sha3_384+0x4dc>
    4b5a:	41 83 ef 01          	sub    $0x1,%r15d
    4b5e:	41 6b c7 68          	imul   $0x68,%r15d,%eax
    4b62:	29 c3                	sub    %eax,%ebx
    4b64:	41 89 de             	mov    %ebx,%r14d
    4b67:	b9 01 00 00 00       	mov    $0x1,%ecx
    4b6c:	4c 89 ea             	mov    %r13,%rdx
    4b6f:	4c 89 e6             	mov    %r12,%rsi
    4b72:	bf 0a 00 00 00       	mov    $0xa,%edi
    4b77:	48 8d 5c 05 00       	lea    0x0(%rbp,%rax,1),%rbx
    4b7c:	e8 1f 39 01 00       	call   184a0 <Hacl_Hash_SHA3_update_multi_sha3>
    4b81:	44 89 f9             	mov    %r15d,%ecx
    4b84:	48 89 ea             	mov    %rbp,%rdx
    4b87:	4c 89 e6             	mov    %r12,%rsi
    4b8a:	bf 0a 00 00 00       	mov    $0xa,%edi
    4b8f:	e8 0c 39 01 00       	call   184a0 <Hacl_Hash_SHA3_update_multi_sha3>
    4b94:	44 89 f1             	mov    %r14d,%ecx
    4b97:	48 89 da             	mov    %rbx,%rdx
    4b9a:	4c 89 e6             	mov    %r12,%rsi
    4b9d:	bf 0a 00 00 00       	mov    $0xa,%edi
    4ba2:	e8 19 3a 01 00       	call   185c0 <Hacl_Hash_SHA3_update_last_sha3>
    4ba7:	31 c0                	xor    %eax,%eax
    4ba9:	b9 20 00 00 00       	mov    $0x20,%ecx
    4bae:	66 0f ef c0          	pxor   %xmm0,%xmm0
    4bb2:	ba c8 00 00 00       	mov    $0xc8,%edx
    4bb7:	48 8d bc 24 50 03 00 	lea    0x350(%rsp),%rdi
    4bbe:	00 
    4bbf:	4c 8d b4 24 50 03 00 	lea    0x350(%rsp),%r14
    4bc6:	00 
    4bc7:	4c 89 e6             	mov    %r12,%rsi
    4bca:	0f 29 84 24 50 02 00 	movaps %xmm0,0x250(%rsp)
    4bd1:	00 
    4bd2:	f3 48 ab             	rep stos %rax,%es:(%rdi)
    4bd5:	4c 89 f7             	mov    %r14,%rdi
    4bd8:	0f 29 84 24 60 02 00 	movaps %xmm0,0x260(%rsp)
    4bdf:	00 
    4be0:	48 8d ac 24 50 04 00 	lea    0x450(%rsp),%rbp
    4be7:	00 
    4be8:	0f 29 84 24 70 02 00 	movaps %xmm0,0x270(%rsp)
    4bef:	00 
    4bf0:	48 8d 9c 24 50 05 00 	lea    0x550(%rsp),%rbx
    4bf7:	00 
    4bf8:	0f 29 84 24 80 02 00 	movaps %xmm0,0x280(%rsp)
    4bff:	00 
    4c00:	0f 29 84 24 90 02 00 	movaps %xmm0,0x290(%rsp)
    4c07:	00 
    4c08:	0f 29 84 24 a0 02 00 	movaps %xmm0,0x2a0(%rsp)
    4c0f:	00 
    4c10:	0f 29 84 24 b0 02 00 	movaps %xmm0,0x2b0(%rsp)
    4c17:	00 
    4c18:	0f 29 84 24 c0 02 00 	movaps %xmm0,0x2c0(%rsp)
    4c1f:	00 
    4c20:	0f 29 84 24 d0 02 00 	movaps %xmm0,0x2d0(%rsp)
    4c27:	00 
    4c28:	0f 29 84 24 e0 02 00 	movaps %xmm0,0x2e0(%rsp)
    4c2f:	00 
    4c30:	0f 29 84 24 f0 02 00 	movaps %xmm0,0x2f0(%rsp)
    4c37:	00 
    4c38:	0f 29 84 24 00 03 00 	movaps %xmm0,0x300(%rsp)
    4c3f:	00 
    4c40:	0f 29 84 24 10 03 00 	movaps %xmm0,0x310(%rsp)
    4c47:	00 
    4c48:	0f 29 84 24 20 03 00 	movaps %xmm0,0x320(%rsp)
    4c4f:	00 
    4c50:	0f 29 84 24 30 03 00 	movaps %xmm0,0x330(%rsp)
    4c57:	00 
    4c58:	0f 29 84 24 40 03 00 	movaps %xmm0,0x340(%rsp)
    4c5f:	00 
    4c60:	e8 58 c7 ff ff       	call   13bd <memcpy>
    4c65:	48 8d 84 24 50 02 00 	lea    0x250(%rsp),%rax
    4c6c:	00 
    4c6d:	48 89 44 24 18       	mov    %rax,0x18(%rsp)
    4c72:	49 89 c7             	mov    %rax,%r15
    4c75:	0f 1f 00             	nopl   (%rax)
    4c78:	49 8b 06             	mov    (%r14),%rax
    4c7b:	4c 89 ff             	mov    %r15,%rdi
    4c7e:	ba 08 00 00 00       	mov    $0x8,%edx
    4c83:	48 89 de             	mov    %rbx,%rsi
    4c86:	49 83 c6 08          	add    $0x8,%r14
    4c8a:	49 83 c7 08          	add    $0x8,%r15
    4c8e:	48 89 84 24 50 05 00 	mov    %rax,0x550(%rsp)
    4c95:	00 
    4c96:	e8 22 c7 ff ff       	call   13bd <memcpy>
    4c9b:	4c 39 f5             	cmp    %r14,%rbp
    4c9e:	75 d8                	jne    4c78 <Hacl_HMAC_compute_sha3_384+0x348>
    4ca0:	48 8b 74 24 18       	mov    0x18(%rsp),%rsi
    4ca5:	ba 30 00 00 00       	mov    $0x30,%edx
    4caa:	4c 89 ef             	mov    %r13,%rdi
    4cad:	4c 8d b4 24 50 06 00 	lea    0x650(%rsp),%r14
    4cb4:	00 
    4cb5:	e8 03 c7 ff ff       	call   13bd <memcpy>
    4cba:	4c 89 e6             	mov    %r12,%rsi
    4cbd:	bf 0a 00 00 00       	mov    $0xa,%edi
    4cc2:	e8 b9 37 01 00       	call   18480 <Hacl_Hash_SHA3_init_>
    4cc7:	48 8b 54 24 08       	mov    0x8(%rsp),%rdx
    4ccc:	4c 89 e6             	mov    %r12,%rsi
    4ccf:	b9 01 00 00 00       	mov    $0x1,%ecx
    4cd4:	bf 0a 00 00 00       	mov    $0xa,%edi
    4cd9:	e8 c2 37 01 00       	call   184a0 <Hacl_Hash_SHA3_update_multi_sha3>
    4cde:	4c 89 ea             	mov    %r13,%rdx
    4ce1:	4c 89 e6             	mov    %r12,%rsi
    4ce4:	31 c9                	xor    %ecx,%ecx
    4ce6:	bf 0a 00 00 00       	mov    $0xa,%edi
    4ceb:	e8 b0 37 01 00       	call   184a0 <Hacl_Hash_SHA3_update_multi_sha3>
    4cf0:	4c 89 ea             	mov    %r13,%rdx
    4cf3:	4c 89 e6             	mov    %r12,%rsi
    4cf6:	b9 30 00 00 00       	mov    $0x30,%ecx
    4cfb:	bf 0a 00 00 00       	mov    $0xa,%edi
    4d00:	4c 8d 6c 24 28       	lea    0x28(%rsp),%r13
    4d05:	e8 b6 38 01 00       	call   185c0 <Hacl_Hash_SHA3_update_last_sha3>
    4d0a:	31 c0                	xor    %eax,%eax
    4d0c:	b9 20 00 00 00       	mov    $0x20,%ecx
    4d11:	48 89 df             	mov    %rbx,%rdi
    4d14:	f3 48 ab             	rep stos %rax,%es:(%rdi)
    4d17:	66 0f ef c0          	pxor   %xmm0,%xmm0
    4d1b:	4c 89 e6             	mov    %r12,%rsi
    4d1e:	ba c8 00 00 00       	mov    $0xc8,%edx
    4d23:	48 89 df             	mov    %rbx,%rdi
    4d26:	0f 29 84 24 50 04 00 	movaps %xmm0,0x450(%rsp)
    4d2d:	00 
    4d2e:	49 89 ec             	mov    %rbp,%r12
    4d31:	0f 29 84 24 60 04 00 	movaps %xmm0,0x460(%rsp)
    4d38:	00 
    4d39:	0f 29 84 24 70 04 00 	movaps %xmm0,0x470(%rsp)
    4d40:	00 
    4d41:	0f 29 84 24 80 04 00 	movaps %xmm0,0x480(%rsp)
    4d48:	00 
    4d49:	0f 29 84 24 90 04 00 	movaps %xmm0,0x490(%rsp)
    4d50:	00 
    4d51:	0f 29 84 24 a0 04 00 	movaps %xmm0,0x4a0(%rsp)
    4d58:	00 
    4d59:	0f 29 84 24 b0 04 00 	movaps %xmm0,0x4b0(%rsp)
    4d60:	00 
    4d61:	0f 29 84 24 c0 04 00 	movaps %xmm0,0x4c0(%rsp)
    4d68:	00 
    4d69:	0f 29 84 24 d0 04 00 	movaps %xmm0,0x4d0(%rsp)
    4d70:	00 
    4d71:	0f 29 84 24 e0 04 00 	movaps %xmm0,0x4e0(%rsp)
    4d78:	00 
    4d79:	0f 29 84 24 f0 04 00 	movaps %xmm0,0x4f0(%rsp)
    4d80:	00 
    4d81:	0f 29 84 24 00 05 00 	movaps %xmm0,0x500(%rsp)
    4d88:	00 
    4d89:	0f 29 84 24 10 05 00 	movaps %xmm0,0x510(%rsp)
    4d90:	00 
    4d91:	0f 29 84 24 20 05 00 	movaps %xmm0,0x520(%rsp)
    4d98:	00 
    4d99:	0f 29 84 24 30 05 00 	movaps %xmm0,0x530(%rsp)
    4da0:	00 
    4da1:	0f 29 84 24 40 05 00 	movaps %xmm0,0x540(%rsp)
    4da8:	00 
    4da9:	e8 0f c6 ff ff       	call   13bd <memcpy>
    4dae:	66 90                	xchg   %ax,%ax
    4db0:	48 8b 03             	mov    (%rbx),%rax
    4db3:	4c 89 e7             	mov    %r12,%rdi
    4db6:	ba 08 00 00 00       	mov    $0x8,%edx
    4dbb:	4c 89 ee             	mov    %r13,%rsi
    4dbe:	48 83 c3 08          	add    $0x8,%rbx
    4dc2:	49 83 c4 08          	add    $0x8,%r12
    4dc6:	48 89 44 24 28       	mov    %rax,0x28(%rsp)
    4dcb:	e8 ed c5 ff ff       	call   13bd <memcpy>
    4dd0:	49 39 de             	cmp    %rbx,%r14
    4dd3:	75 db                	jne    4db0 <Hacl_HMAC_compute_sha3_384+0x480>
    4dd5:	48 8b 7c 24 10       	mov    0x10(%rsp),%rdi
    4dda:	48 89 ee             	mov    %rbp,%rsi
    4ddd:	ba 30 00 00 00       	mov    $0x30,%edx
    4de2:	e8 d6 c5 ff ff       	call   13bd <memcpy>
    4de7:	48 81 c4 58 06 00 00 	add    $0x658,%rsp
    4dee:	5b                   	pop    %rbx
    4def:	5d                   	pop    %rbp
    4df0:	41 5c                	pop    %r12
    4df2:	41 5d                	pop    %r13
    4df4:	41 5e                	pop    %r14
    4df6:	41 5f                	pop    %r15
    4df8:	c3                   	ret    
    4df9:	44 89 e2             	mov    %r12d,%edx
    4dfc:	4c 89 ee             	mov    %r13,%rsi
    4dff:	4c 89 f7             	mov    %r14,%rdi
    4e02:	e8 49 8e 01 00       	call   1dc50 <Hacl_Hash_SHA3_sha3_384>
    4e07:	e9 76 fb ff ff       	jmp    4982 <Hacl_HMAC_compute_sha3_384+0x52>
    4e0c:	41 6b c7 68          	imul   $0x68,%r15d,%eax
    4e10:	e9 52 fd ff ff       	jmp    4b67 <Hacl_HMAC_compute_sha3_384+0x237>
    4e15:	b9 68 00 00 00       	mov    $0x68,%ecx
    4e1a:	4c 89 ea             	mov    %r13,%rdx
    4e1d:	4c 89 e6             	mov    %r12,%rsi
    4e20:	bf 0a 00 00 00       	mov    $0xa,%edi
    4e25:	e8 96 37 01 00       	call   185c0 <Hacl_Hash_SHA3_update_last_sha3>
    4e2a:	e9 78 fd ff ff       	jmp    4ba7 <Hacl_HMAC_compute_sha3_384+0x277>
    4e2f:	90                   	nop

0000000000004e30 <Hacl_HMAC_compute_sha3_512>:
    4e30:	f3 0f 1e fa          	endbr64 
    4e34:	41 57                	push   %r15
    4e36:	41 56                	push   %r14
    4e38:	41 55                	push   %r13
    4e3a:	49 89 f5             	mov    %rsi,%r13
    4e3d:	31 f6                	xor    %esi,%esi
    4e3f:	41 54                	push   %r12
    4e41:	41 89 d4             	mov    %edx,%r12d
    4e44:	ba 48 00 00 00       	mov    $0x48,%edx
    4e49:	55                   	push   %rbp
    4e4a:	48 89 cd             	mov    %rcx,%rbp
    4e4d:	53                   	push   %rbx
    4e4e:	44 89 c3             	mov    %r8d,%ebx
    4e51:	48 81 ec f8 05 00 00 	sub    $0x5f8,%rsp
    4e58:	4c 8d 74 24 30       	lea    0x30(%rsp),%r14
    4e5d:	48 89 7c 24 10       	mov    %rdi,0x10(%rsp)
    4e62:	4c 89 f7             	mov    %r14,%rdi
    4e65:	e8 6f c5 ff ff       	call   13d9 <memset>
    4e6a:	41 83 fc 48          	cmp    $0x48,%r12d
    4e6e:	0f 87 35 04 00 00    	ja     52a9 <Hacl_HMAC_compute_sha3_512+0x479>
    4e74:	44 89 e2             	mov    %r12d,%edx
    4e77:	4c 89 ee             	mov    %r13,%rsi
    4e7a:	4c 89 f7             	mov    %r14,%rdi
    4e7d:	e8 3b c5 ff ff       	call   13bd <memcpy>
    4e82:	4c 8d ac 24 80 00 00 	lea    0x80(%rsp),%r13
    4e89:	00 
    4e8a:	ba 48 00 00 00       	mov    $0x48,%edx
    4e8f:	be 36 00 00 00       	mov    $0x36,%esi
    4e94:	4c 89 ef             	mov    %r13,%rdi
    4e97:	4c 8d a4 24 20 01 00 	lea    0x120(%rsp),%r12
    4e9e:	00 
    4e9f:	e8 35 c5 ff ff       	call   13d9 <memset>
    4ea4:	ba 48 00 00 00       	mov    $0x48,%edx
    4ea9:	be 5c 00 00 00       	mov    $0x5c,%esi
    4eae:	66 0f 6f 84 24 80 00 	movdqa 0x80(%rsp),%xmm0
    4eb5:	00 00 
    4eb7:	66 0f ef 44 24 30    	pxor   0x30(%rsp),%xmm0
    4ebd:	f3 0f 7e 4c 24 70    	movq   0x70(%rsp),%xmm1
    4ec3:	48 8d 84 24 d0 00 00 	lea    0xd0(%rsp),%rax
    4eca:	00 
    4ecb:	48 89 c7             	mov    %rax,%rdi
    4ece:	48 89 44 24 08       	mov    %rax,0x8(%rsp)
    4ed3:	0f 29 84 24 80 00 00 	movaps %xmm0,0x80(%rsp)
    4eda:	00 
    4edb:	66 0f 6f 84 24 90 00 	movdqa 0x90(%rsp),%xmm0
    4ee2:	00 00 
    4ee4:	66 0f ef 44 24 40    	pxor   0x40(%rsp),%xmm0
    4eea:	0f 29 84 24 90 00 00 	movaps %xmm0,0x90(%rsp)
    4ef1:	00 
    4ef2:	66 0f 6f 84 24 a0 00 	movdqa 0xa0(%rsp),%xmm0
    4ef9:	00 00 
    4efb:	66 0f ef 44 24 50    	pxor   0x50(%rsp),%xmm0
    4f01:	0f 29 84 24 a0 00 00 	movaps %xmm0,0xa0(%rsp)
    4f08:	00 
    4f09:	66 0f 6f 84 24 b0 00 	movdqa 0xb0(%rsp),%xmm0
    4f10:	00 00 
    4f12:	66 0f ef 44 24 60    	pxor   0x60(%rsp),%xmm0
    4f18:	0f 29 84 24 b0 00 00 	movaps %xmm0,0xb0(%rsp)
    4f1f:	00 
    4f20:	f3 0f 7e 84 24 c0 00 	movq   0xc0(%rsp),%xmm0
    4f27:	00 00 
    4f29:	66 0f ef c1          	pxor   %xmm1,%xmm0
    4f2d:	66 0f d6 84 24 c0 00 	movq   %xmm0,0xc0(%rsp)
    4f34:	00 00 
    4f36:	e8 9e c4 ff ff       	call   13d9 <memset>
    4f3b:	b9 19 00 00 00       	mov    $0x19,%ecx
    4f40:	31 c0                	xor    %eax,%eax
    4f42:	4c 89 e7             	mov    %r12,%rdi
    4f45:	66 0f 6f 84 24 d0 00 	movdqa 0xd0(%rsp),%xmm0
    4f4c:	00 00 
    4f4e:	66 0f ef 44 24 30    	pxor   0x30(%rsp),%xmm0
    4f54:	f3 48 ab             	rep stos %rax,%es:(%rdi)
    4f57:	f3 0f 7e 4c 24 70    	movq   0x70(%rsp),%xmm1
    4f5d:	0f 29 84 24 d0 00 00 	movaps %xmm0,0xd0(%rsp)
    4f64:	00 
    4f65:	66 0f 6f 84 24 e0 00 	movdqa 0xe0(%rsp),%xmm0
    4f6c:	00 00 
    4f6e:	66 0f ef 44 24 40    	pxor   0x40(%rsp),%xmm0
    4f74:	0f 29 84 24 e0 00 00 	movaps %xmm0,0xe0(%rsp)
    4f7b:	00 
    4f7c:	66 0f 6f 84 24 f0 00 	movdqa 0xf0(%rsp),%xmm0
    4f83:	00 00 
    4f85:	66 0f ef 44 24 50    	pxor   0x50(%rsp),%xmm0
    4f8b:	0f 29 84 24 f0 00 00 	movaps %xmm0,0xf0(%rsp)
    4f92:	00 
    4f93:	66 0f 6f 84 24 00 01 	movdqa 0x100(%rsp),%xmm0
    4f9a:	00 00 
    4f9c:	66 0f ef 44 24 60    	pxor   0x60(%rsp),%xmm0
    4fa2:	0f 29 84 24 00 01 00 	movaps %xmm0,0x100(%rsp)
    4fa9:	00 
    4faa:	f3 0f 7e 84 24 10 01 	movq   0x110(%rsp),%xmm0
    4fb1:	00 00 
    4fb3:	66 0f ef c1          	pxor   %xmm1,%xmm0
    4fb7:	66 0f d6 84 24 10 01 	movq   %xmm0,0x110(%rsp)
    4fbe:	00 00 
    4fc0:	85 db                	test   %ebx,%ebx
    4fc2:	0f 84 ff 02 00 00    	je     52c7 <Hacl_HMAC_compute_sha3_512+0x497>
    4fc8:	41 89 df             	mov    %ebx,%r15d
    4fcb:	41 89 de             	mov    %ebx,%r14d
    4fce:	4d 69 ff 39 8e e3 38 	imul   $0x38e38e39,%r15,%r15
    4fd5:	49 c1 ef 24          	shr    $0x24,%r15
    4fd9:	42 8d 04 fd 00 00 00 	lea    0x0(,%r15,8),%eax
    4fe0:	00 
    4fe1:	42 8d 14 38          	lea    (%rax,%r15,1),%edx
    4fe5:	c1 e2 03             	shl    $0x3,%edx
    4fe8:	41 29 d6             	sub    %edx,%r14d
    4feb:	83 fb 47             	cmp    $0x47,%ebx
    4fee:	0f 86 c8 02 00 00    	jbe    52bc <Hacl_HMAC_compute_sha3_512+0x48c>
    4ff4:	45 85 f6             	test   %r14d,%r14d
    4ff7:	0f 85 bf 02 00 00    	jne    52bc <Hacl_HMAC_compute_sha3_512+0x48c>
    4ffd:	41 83 ef 01          	sub    $0x1,%r15d
    5001:	43 8d 04 ff          	lea    (%r15,%r15,8),%eax
    5005:	c1 e0 03             	shl    $0x3,%eax
    5008:	29 c3                	sub    %eax,%ebx
    500a:	41 89 de             	mov    %ebx,%r14d
    500d:	b9 01 00 00 00       	mov    $0x1,%ecx
    5012:	4c 89 ea             	mov    %r13,%rdx
    5015:	4c 89 e6             	mov    %r12,%rsi
    5018:	bf 0b 00 00 00       	mov    $0xb,%edi
    501d:	48 8d 5c 05 00       	lea    0x0(%rbp,%rax,1),%rbx
    5022:	e8 79 34 01 00       	call   184a0 <Hacl_Hash_SHA3_update_multi_sha3>
    5027:	44 89 f9             	mov    %r15d,%ecx
    502a:	48 89 ea             	mov    %rbp,%rdx
    502d:	4c 89 e6             	mov    %r12,%rsi
    5030:	bf 0b 00 00 00       	mov    $0xb,%edi
    5035:	e8 66 34 01 00       	call   184a0 <Hacl_Hash_SHA3_update_multi_sha3>
    503a:	44 89 f1             	mov    %r14d,%ecx
    503d:	48 89 da             	mov    %rbx,%rdx
    5040:	4c 89 e6             	mov    %r12,%rsi
    5043:	bf 0b 00 00 00       	mov    $0xb,%edi
    5048:	e8 73 35 01 00       	call   185c0 <Hacl_Hash_SHA3_update_last_sha3>
    504d:	31 c0                	xor    %eax,%eax
    504f:	b9 20 00 00 00       	mov    $0x20,%ecx
    5054:	66 0f ef c0          	pxor   %xmm0,%xmm0
    5058:	ba c8 00 00 00       	mov    $0xc8,%edx
    505d:	48 8d bc 24 f0 02 00 	lea    0x2f0(%rsp),%rdi
    5064:	00 
    5065:	4c 8d b4 24 f0 02 00 	lea    0x2f0(%rsp),%r14
    506c:	00 
    506d:	4c 89 e6             	mov    %r12,%rsi
    5070:	0f 29 84 24 f0 01 00 	movaps %xmm0,0x1f0(%rsp)
    5077:	00 
    5078:	f3 48 ab             	rep stos %rax,%es:(%rdi)
    507b:	4c 89 f7             	mov    %r14,%rdi
    507e:	0f 29 84 24 00 02 00 	movaps %xmm0,0x200(%rsp)
    5085:	00 
    5086:	48 8d ac 24 f0 03 00 	lea    0x3f0(%rsp),%rbp
    508d:	00 
    508e:	0f 29 84 24 10 02 00 	movaps %xmm0,0x210(%rsp)
    5095:	00 
    5096:	48 8d 9c 24 f0 04 00 	lea    0x4f0(%rsp),%rbx
    509d:	00 
    509e:	0f 29 84 24 20 02 00 	movaps %xmm0,0x220(%rsp)
    50a5:	00 
    50a6:	0f 29 84 24 30 02 00 	movaps %xmm0,0x230(%rsp)
    50ad:	00 
    50ae:	0f 29 84 24 40 02 00 	movaps %xmm0,0x240(%rsp)
    50b5:	00 
    50b6:	0f 29 84 24 50 02 00 	movaps %xmm0,0x250(%rsp)
    50bd:	00 
    50be:	0f 29 84 24 60 02 00 	movaps %xmm0,0x260(%rsp)
    50c5:	00 
    50c6:	0f 29 84 24 70 02 00 	movaps %xmm0,0x270(%rsp)
    50cd:	00 
    50ce:	0f 29 84 24 80 02 00 	movaps %xmm0,0x280(%rsp)
    50d5:	00 
    50d6:	0f 29 84 24 90 02 00 	movaps %xmm0,0x290(%rsp)
    50dd:	00 
    50de:	0f 29 84 24 a0 02 00 	movaps %xmm0,0x2a0(%rsp)
    50e5:	00 
    50e6:	0f 29 84 24 b0 02 00 	movaps %xmm0,0x2b0(%rsp)
    50ed:	00 
    50ee:	0f 29 84 24 c0 02 00 	movaps %xmm0,0x2c0(%rsp)
    50f5:	00 
    50f6:	0f 29 84 24 d0 02 00 	movaps %xmm0,0x2d0(%rsp)
    50fd:	00 
    50fe:	0f 29 84 24 e0 02 00 	movaps %xmm0,0x2e0(%rsp)
    5105:	00 
    5106:	e8 b2 c2 ff ff       	call   13bd <memcpy>
    510b:	48 8d 84 24 f0 01 00 	lea    0x1f0(%rsp),%rax
    5112:	00 
    5113:	48 89 44 24 18       	mov    %rax,0x18(%rsp)
    5118:	49 89 c7             	mov    %rax,%r15
    511b:	0f 1f 44 00 00       	nopl   0x0(%rax,%rax,1)
    5120:	49 8b 06             	mov    (%r14),%rax
    5123:	4c 89 ff             	mov    %r15,%rdi
    5126:	ba 08 00 00 00       	mov    $0x8,%edx
    512b:	48 89 de             	mov    %rbx,%rsi
    512e:	49 83 c6 08          	add    $0x8,%r14
    5132:	49 83 c7 08          	add    $0x8,%r15
    5136:	48 89 84 24 f0 04 00 	mov    %rax,0x4f0(%rsp)
    513d:	00 
    513e:	e8 7a c2 ff ff       	call   13bd <memcpy>
    5143:	4c 39 f5             	cmp    %r14,%rbp
    5146:	75 d8                	jne    5120 <Hacl_HMAC_compute_sha3_512+0x2f0>
    5148:	48 8b 74 24 18       	mov    0x18(%rsp),%rsi
    514d:	ba 40 00 00 00       	mov    $0x40,%edx
    5152:	4c 89 ef             	mov    %r13,%rdi
    5155:	4c 8d b4 24 f0 05 00 	lea    0x5f0(%rsp),%r14
    515c:	00 
    515d:	e8 5b c2 ff ff       	call   13bd <memcpy>
    5162:	4c 89 e6             	mov    %r12,%rsi
    5165:	bf 0b 00 00 00       	mov    $0xb,%edi
    516a:	e8 11 33 01 00       	call   18480 <Hacl_Hash_SHA3_init_>
    516f:	48 8b 54 24 08       	mov    0x8(%rsp),%rdx
    5174:	4c 89 e6             	mov    %r12,%rsi
    5177:	b9 01 00 00 00       	mov    $0x1,%ecx
    517c:	bf 0b 00 00 00       	mov    $0xb,%edi
    5181:	e8 1a 33 01 00       	call   184a0 <Hacl_Hash_SHA3_update_multi_sha3>
    5186:	4c 89 ea             	mov    %r13,%rdx
    5189:	4c 89 e6             	mov    %r12,%rsi
    518c:	31 c9                	xor    %ecx,%ecx
    518e:	bf 0b 00 00 00       	mov    $0xb,%edi
    5193:	e8 08 33 01 00       	call   184a0 <Hacl_Hash_SHA3_update_multi_sha3>
    5198:	4c 89 ea             	mov    %r13,%rdx
    519b:	4c 89 e6             	mov    %r12,%rsi
    519e:	b9 40 00 00 00       	mov    $0x40,%ecx
    51a3:	bf 0b 00 00 00       	mov    $0xb,%edi
    51a8:	4c 8d 6c 24 28       	lea    0x28(%rsp),%r13
    51ad:	e8 0e 34 01 00       	call   185c0 <Hacl_Hash_SHA3_update_last_sha3>
    51b2:	31 c0                	xor    %eax,%eax
    51b4:	b9 20 00 00 00       	mov    $0x20,%ecx
    51b9:	48 89 df             	mov    %rbx,%rdi
    51bc:	f3 48 ab             	rep stos %rax,%es:(%rdi)
    51bf:	66 0f ef c0          	pxor   %xmm0,%xmm0
    51c3:	4c 89 e6             	mov    %r12,%rsi
    51c6:	ba c8 00 00 00       	mov    $0xc8,%edx
    51cb:	48 89 df             	mov    %rbx,%rdi
    51ce:	0f 29 84 24 f0 03 00 	movaps %xmm0,0x3f0(%rsp)
    51d5:	00 
    51d6:	49 89 ec             	mov    %rbp,%r12
    51d9:	0f 29 84 24 00 04 00 	movaps %xmm0,0x400(%rsp)
    51e0:	00 
    51e1:	0f 29 84 24 10 04 00 	movaps %xmm0,0x410(%rsp)
    51e8:	00 
    51e9:	0f 29 84 24 20 04 00 	movaps %xmm0,0x420(%rsp)
    51f0:	00 
    51f1:	0f 29 84 24 30 04 00 	movaps %xmm0,0x430(%rsp)
    51f8:	00 
    51f9:	0f 29 84 24 40 04 00 	movaps %xmm0,0x440(%rsp)
    5200:	00 
    5201:	0f 29 84 24 50 04 00 	movaps %xmm0,0x450(%rsp)
    5208:	00 
    5209:	0f 29 84 24 60 04 00 	movaps %xmm0,0x460(%rsp)
    5210:	00 
    5211:	0f 29 84 24 70 04 00 	movaps %xmm0,0x470(%rsp)
    5218:	00 
    5219:	0f 29 84 24 80 04 00 	movaps %xmm0,0x480(%rsp)
    5220:	00 
    5221:	0f 29 84 24 90 04 00 	movaps %xmm0,0x490(%rsp)
    5228:	00 
    5229:	0f 29 84 24 a0 04 00 	movaps %xmm0,0x4a0(%rsp)
    5230:	00 
    5231:	0f 29 84 24 b0 04 00 	movaps %xmm0,0x4b0(%rsp)
    5238:	00 
    5239:	0f 29 84 24 c0 04 00 	movaps %xmm0,0x4c0(%rsp)
    5240:	00 
    5241:	0f 29 84 24 d0 04 00 	movaps %xmm0,0x4d0(%rsp)
    5248:	00 
    5249:	0f 29 84 24 e0 04 00 	movaps %xmm0,0x4e0(%rsp)
    5250:	00 
    5251:	e8 67 c1 ff ff       	call   13bd <memcpy>
    5256:	66 2e 0f 1f 84 00 00 	cs nopw 0x0(%rax,%rax,1)
    525d:	00 00 00 
    5260:	48 8b 03             	mov    (%rbx),%rax
    5263:	4c 89 e7             	mov    %r12,%rdi
    5266:	ba 08 00 00 00       	mov    $0x8,%edx
    526b:	4c 89 ee             	mov    %r13,%rsi
    526e:	48 83 c3 08          	add    $0x8,%rbx
    5272:	49 83 c4 08          	add    $0x8,%r12
    5276:	48 89 44 24 28       	mov    %rax,0x28(%rsp)
    527b:	e8 3d c1 ff ff       	call   13bd <memcpy>
    5280:	4c 39 f3             	cmp    %r14,%rbx
    5283:	75 db                	jne    5260 <Hacl_HMAC_compute_sha3_512+0x430>
    5285:	48 8b 7c 24 10       	mov    0x10(%rsp),%rdi
    528a:	48 89 ee             	mov    %rbp,%rsi
    528d:	ba 40 00 00 00       	mov    $0x40,%edx
    5292:	e8 26 c1 ff ff       	call   13bd <memcpy>
    5297:	48 81 c4 f8 05 00 00 	add    $0x5f8,%rsp
    529e:	5b                   	pop    %rbx
    529f:	5d                   	pop    %rbp
    52a0:	41 5c                	pop    %r12
    52a2:	41 5d                	pop    %r13
    52a4:	41 5e                	pop    %r14
    52a6:	41 5f                	pop    %r15
    52a8:	c3                   	ret    
    52a9:	44 89 e2             	mov    %r12d,%edx
    52ac:	4c 89 ee             	mov    %r13,%rsi
    52af:	4c 89 f7             	mov    %r14,%rdi
    52b2:	e8 69 92 01 00       	call   1e520 <Hacl_Hash_SHA3_sha3_512>
    52b7:	e9 c6 fb ff ff       	jmp    4e82 <Hacl_HMAC_compute_sha3_512+0x52>
    52bc:	44 01 f8             	add    %r15d,%eax
    52bf:	c1 e0 03             	shl    $0x3,%eax
    52c2:	e9 46 fd ff ff       	jmp    500d <Hacl_HMAC_compute_sha3_512+0x1dd>
    52c7:	b9 48 00 00 00       	mov    $0x48,%ecx
    52cc:	4c 89 ea             	mov    %r13,%rdx
    52cf:	4c 89 e6             	mov    %r12,%rsi
    52d2:	bf 0b 00 00 00       	mov    $0xb,%edi
    52d7:	e8 e4 32 01 00       	call   185c0 <Hacl_Hash_SHA3_update_last_sha3>
    52dc:	e9 6c fd ff ff       	jmp    504d <Hacl_HMAC_compute_sha3_512+0x21d>
    52e1:	66 66 2e 0f 1f 84 00 	data16 cs nopw 0x0(%rax,%rax,1)
    52e8:	00 00 00 00 
    52ec:	0f 1f 40 00          	nopl   0x0(%rax)

00000000000052f0 <Hacl_HMAC_compute_blake2s_32>:
    52f0:	f3 0f 1e fa          	endbr64 
    52f4:	41 57                	push   %r15
    52f6:	41 56                	push   %r14
    52f8:	41 55                	push   %r13
    52fa:	49 89 cd             	mov    %rcx,%r13
    52fd:	41 54                	push   %r12
    52ff:	49 89 f4             	mov    %rsi,%r12
    5302:	31 f6                	xor    %esi,%esi
    5304:	55                   	push   %rbp
    5305:	44 89 c5             	mov    %r8d,%ebp
    5308:	53                   	push   %rbx
    5309:	89 d3                	mov    %edx,%ebx
    530b:	ba 40 00 00 00       	mov    $0x40,%edx
    5310:	48 81 ec f8 01 00 00 	sub    $0x1f8,%rsp
    5317:	4c 8d 74 24 30       	lea    0x30(%rsp),%r14
    531c:	48 89 7c 24 10       	mov    %rdi,0x10(%rsp)
    5321:	4c 89 f7             	mov    %r14,%rdi
    5324:	e8 b0 c0 ff ff       	call   13d9 <memset>
    5329:	83 fb 40             	cmp    $0x40,%ebx
    532c:	0f 87 6d 03 00 00    	ja     569f <Hacl_HMAC_compute_blake2s_32+0x3af>
    5332:	89 da                	mov    %ebx,%edx
    5334:	4c 89 e6             	mov    %r12,%rsi
    5337:	4c 89 f7             	mov    %r14,%rdi
    533a:	e8 7e c0 ff ff       	call   13bd <memcpy>
    533f:	4c 8d 64 24 70       	lea    0x70(%rsp),%r12
    5344:	ba 40 00 00 00       	mov    $0x40,%edx
    5349:	be 36 00 00 00       	mov    $0x36,%esi
    534e:	4c 89 e7             	mov    %r12,%rdi
    5351:	4c 8d b4 24 b0 00 00 	lea    0xb0(%rsp),%r14
    5358:	00 
    5359:	48 8d 9c 24 f0 00 00 	lea    0xf0(%rsp),%rbx
    5360:	00 
    5361:	e8 73 c0 ff ff       	call   13d9 <memset>
    5366:	66 0f 6f 44 24 70    	movdqa 0x70(%rsp),%xmm0
    536c:	ba 40 00 00 00       	mov    $0x40,%edx
    5371:	4c 89 f7             	mov    %r14,%rdi
    5374:	66 0f ef 44 24 30    	pxor   0x30(%rsp),%xmm0
    537a:	be 5c 00 00 00       	mov    $0x5c,%esi
    537f:	0f 29 44 24 70       	movaps %xmm0,0x70(%rsp)
    5384:	66 0f 6f 84 24 80 00 	movdqa 0x80(%rsp),%xmm0
    538b:	00 00 
    538d:	66 0f ef 44 24 40    	pxor   0x40(%rsp),%xmm0
    5393:	0f 29 84 24 80 00 00 	movaps %xmm0,0x80(%rsp)
    539a:	00 
    539b:	66 0f 6f 84 24 90 00 	movdqa 0x90(%rsp),%xmm0
    53a2:	00 00 
    53a4:	66 0f ef 44 24 50    	pxor   0x50(%rsp),%xmm0
    53aa:	0f 29 84 24 90 00 00 	movaps %xmm0,0x90(%rsp)
    53b1:	00 
    53b2:	66 0f 6f 84 24 a0 00 	movdqa 0xa0(%rsp),%xmm0
    53b9:	00 00 
    53bb:	66 0f ef 44 24 60    	pxor   0x60(%rsp),%xmm0
    53c1:	0f 29 84 24 a0 00 00 	movaps %xmm0,0xa0(%rsp)
    53c8:	00 
    53c9:	e8 0b c0 ff ff       	call   13d9 <memset>
    53ce:	31 f6                	xor    %esi,%esi
    53d0:	ba 20 00 00 00       	mov    $0x20,%edx
    53d5:	48 89 df             	mov    %rbx,%rdi
    53d8:	66 0f 6f 84 24 b0 00 	movdqa 0xb0(%rsp),%xmm0
    53df:	00 00 
    53e1:	66 0f ef 44 24 30    	pxor   0x30(%rsp),%xmm0
    53e7:	0f 29 84 24 b0 00 00 	movaps %xmm0,0xb0(%rsp)
    53ee:	00 
    53ef:	66 0f 6f 84 24 c0 00 	movdqa 0xc0(%rsp),%xmm0
    53f6:	00 00 
    53f8:	66 0f ef 44 24 40    	pxor   0x40(%rsp),%xmm0
    53fe:	0f 29 84 24 c0 00 00 	movaps %xmm0,0xc0(%rsp)
    5405:	00 
    5406:	66 0f 6f 84 24 d0 00 	movdqa 0xd0(%rsp),%xmm0
    540d:	00 00 
    540f:	66 0f ef 44 24 50    	pxor   0x50(%rsp),%xmm0
    5415:	0f 29 84 24 d0 00 00 	movaps %xmm0,0xd0(%rsp)
    541c:	00 
    541d:	66 0f 6f 84 24 e0 00 	movdqa 0xe0(%rsp),%xmm0
    5424:	00 00 
    5426:	66 0f ef 44 24 60    	pxor   0x60(%rsp),%xmm0
    542c:	0f 29 84 24 e0 00 00 	movaps %xmm0,0xe0(%rsp)
    5433:	00 
    5434:	66 0f ef c0          	pxor   %xmm0,%xmm0
    5438:	0f 29 84 24 f0 00 00 	movaps %xmm0,0xf0(%rsp)
    543f:	00 
    5440:	0f 29 84 24 00 01 00 	movaps %xmm0,0x100(%rsp)
    5447:	00 
    5448:	0f 29 84 24 10 01 00 	movaps %xmm0,0x110(%rsp)
    544f:	00 
    5450:	0f 29 84 24 20 01 00 	movaps %xmm0,0x120(%rsp)
    5457:	00 
    5458:	e8 93 5a 00 00       	call   aef0 <Hacl_Hash_Blake2s_init>
    545d:	85 ed                	test   %ebp,%ebp
    545f:	66 0f ef c0          	pxor   %xmm0,%xmm0
    5463:	0f 84 62 02 00 00    	je     56cb <Hacl_HMAC_compute_blake2s_32+0x3db>
    5469:	41 89 ea             	mov    %ebp,%r10d
    546c:	89 e8                	mov    %ebp,%eax
    546e:	41 c1 ea 06          	shr    $0x6,%r10d
    5472:	83 e0 3f             	and    $0x3f,%eax
    5475:	83 fd 3f             	cmp    $0x3f,%ebp
    5478:	0f 86 3e 02 00 00    	jbe    56bc <Hacl_HMAC_compute_blake2s_32+0x3cc>
    547e:	85 c0                	test   %eax,%eax
    5480:	0f 85 36 02 00 00    	jne    56bc <Hacl_HMAC_compute_blake2s_32+0x3cc>
    5486:	41 83 ea 01          	sub    $0x1,%r10d
    548a:	89 e8                	mov    %ebp,%eax
    548c:	44 89 d1             	mov    %r10d,%ecx
    548f:	c1 e1 06             	shl    $0x6,%ecx
    5492:	89 4c 24 0c          	mov    %ecx,0xc(%rsp)
    5496:	29 c8                	sub    %ecx,%eax
    5498:	44 8b 5c 24 0c       	mov    0xc(%rsp),%r11d
    549d:	66 0f ef c0          	pxor   %xmm0,%xmm0
    54a1:	4d 89 e0             	mov    %r12,%r8
    54a4:	48 89 da             	mov    %rbx,%rdx
    54a7:	41 b9 01 00 00 00    	mov    $0x1,%r9d
    54ad:	bf 40 00 00 00       	mov    $0x40,%edi
    54b2:	44 89 54 24 2c       	mov    %r10d,0x2c(%rsp)
    54b7:	4c 8d bc 24 30 01 00 	lea    0x130(%rsp),%r15
    54be:	00 
    54bf:	4b 8d 4c 1d 00       	lea    0x0(%r13,%r11,1),%rcx
    54c4:	4c 89 fe             	mov    %r15,%rsi
    54c7:	89 44 24 28          	mov    %eax,0x28(%rsp)
    54cb:	48 8d ac 24 70 01 00 	lea    0x170(%rsp),%rbp
    54d2:	00 
    54d3:	48 89 4c 24 18       	mov    %rcx,0x18(%rsp)
    54d8:	31 c9                	xor    %ecx,%ecx
    54da:	4c 89 5c 24 20       	mov    %r11,0x20(%rsp)
    54df:	0f 29 84 24 30 01 00 	movaps %xmm0,0x130(%rsp)
    54e6:	00 
    54e7:	0f 29 84 24 40 01 00 	movaps %xmm0,0x140(%rsp)
    54ee:	00 
    54ef:	0f 29 84 24 50 01 00 	movaps %xmm0,0x150(%rsp)
    54f6:	00 
    54f7:	0f 29 84 24 60 01 00 	movaps %xmm0,0x160(%rsp)
    54fe:	00 
    54ff:	e8 fc 5a 00 00       	call   b000 <Hacl_Hash_Blake2s_update_multi>
    5504:	44 8b 4c 24 2c       	mov    0x2c(%rsp),%r9d
    5509:	4d 89 e8             	mov    %r13,%r8
    550c:	48 89 da             	mov    %rbx,%rdx
    550f:	8b 7c 24 0c          	mov    0xc(%rsp),%edi
    5513:	66 0f ef c0          	pxor   %xmm0,%xmm0
    5517:	b9 40 00 00 00       	mov    $0x40,%ecx
    551c:	48 89 ee             	mov    %rbp,%rsi
    551f:	0f 29 84 24 70 01 00 	movaps %xmm0,0x170(%rsp)
    5526:	00 
    5527:	4c 8d ac 24 b0 01 00 	lea    0x1b0(%rsp),%r13
    552e:	00 
    552f:	0f 29 84 24 80 01 00 	movaps %xmm0,0x180(%rsp)
    5536:	00 
    5537:	0f 29 84 24 90 01 00 	movaps %xmm0,0x190(%rsp)
    553e:	00 
    553f:	0f 29 84 24 a0 01 00 	movaps %xmm0,0x1a0(%rsp)
    5546:	00 
    5547:	e8 b4 5a 00 00       	call   b000 <Hacl_Hash_Blake2s_update_multi>
    554c:	66 0f ef c0          	pxor   %xmm0,%xmm0
    5550:	48 83 ec 08          	sub    $0x8,%rsp
    5554:	48 89 da             	mov    %rbx,%rdx
    5557:	0f 29 84 24 b8 01 00 	movaps %xmm0,0x1b8(%rsp)
    555e:	00 
    555f:	31 c9                	xor    %ecx,%ecx
    5561:	4c 89 ee             	mov    %r13,%rsi
    5564:	0f 29 84 24 c8 01 00 	movaps %xmm0,0x1c8(%rsp)
    556b:	00 
    556c:	0f 29 84 24 d8 01 00 	movaps %xmm0,0x1d8(%rsp)
    5573:	00 
    5574:	0f 29 84 24 e8 01 00 	movaps %xmm0,0x1e8(%rsp)
    557b:	00 
    557c:	ff 74 24 20          	push   0x20(%rsp)
    5580:	8b 44 24 38          	mov    0x38(%rsp),%eax
    5584:	4c 8b 5c 24 30       	mov    0x30(%rsp),%r11
    5589:	41 89 c1             	mov    %eax,%r9d
    558c:	89 c7                	mov    %eax,%edi
    558e:	4d 8d 43 40          	lea    0x40(%r11),%r8
    5592:	e8 e9 5a 00 00       	call   b080 <Hacl_Hash_Blake2s_update_last>
    5597:	58                   	pop    %rax
    5598:	5a                   	pop    %rdx
    5599:	48 89 da             	mov    %rbx,%rdx
    559c:	4c 89 e6             	mov    %r12,%rsi
    559f:	bf 20 00 00 00       	mov    $0x20,%edi
    55a4:	e8 67 5b 00 00       	call   b110 <Hacl_Hash_Blake2s_finish>
    55a9:	48 89 df             	mov    %rbx,%rdi
    55ac:	ba 20 00 00 00       	mov    $0x20,%edx
    55b1:	31 f6                	xor    %esi,%esi
    55b3:	e8 38 59 00 00       	call   aef0 <Hacl_Hash_Blake2s_init>
    55b8:	66 0f ef c0          	pxor   %xmm0,%xmm0
    55bc:	4d 89 f0             	mov    %r14,%r8
    55bf:	48 89 da             	mov    %rbx,%rdx
    55c2:	4c 89 fe             	mov    %r15,%rsi
    55c5:	41 b9 01 00 00 00    	mov    $0x1,%r9d
    55cb:	31 c9                	xor    %ecx,%ecx
    55cd:	bf 40 00 00 00       	mov    $0x40,%edi
    55d2:	0f 29 84 24 30 01 00 	movaps %xmm0,0x130(%rsp)
    55d9:	00 
    55da:	0f 29 84 24 40 01 00 	movaps %xmm0,0x140(%rsp)
    55e1:	00 
    55e2:	0f 29 84 24 50 01 00 	movaps %xmm0,0x150(%rsp)
    55e9:	00 
    55ea:	0f 29 84 24 60 01 00 	movaps %xmm0,0x160(%rsp)
    55f1:	00 
    55f2:	e8 09 5a 00 00       	call   b000 <Hacl_Hash_Blake2s_update_multi>
    55f7:	66 0f ef c0          	pxor   %xmm0,%xmm0
    55fb:	4d 89 e0             	mov    %r12,%r8
    55fe:	48 89 da             	mov    %rbx,%rdx
    5601:	48 89 ee             	mov    %rbp,%rsi
    5604:	45 31 c9             	xor    %r9d,%r9d
    5607:	b9 40 00 00 00       	mov    $0x40,%ecx
    560c:	31 ff                	xor    %edi,%edi
    560e:	0f 29 84 24 70 01 00 	movaps %xmm0,0x170(%rsp)
    5615:	00 
    5616:	0f 29 84 24 80 01 00 	movaps %xmm0,0x180(%rsp)
    561d:	00 
    561e:	0f 29 84 24 90 01 00 	movaps %xmm0,0x190(%rsp)
    5625:	00 
    5626:	0f 29 84 24 a0 01 00 	movaps %xmm0,0x1a0(%rsp)
    562d:	00 
    562e:	e8 cd 59 00 00       	call   b000 <Hacl_Hash_Blake2s_update_multi>
    5633:	66 0f ef c0          	pxor   %xmm0,%xmm0
    5637:	48 83 ec 08          	sub    $0x8,%rsp
    563b:	48 89 da             	mov    %rbx,%rdx
    563e:	0f 29 84 24 b8 01 00 	movaps %xmm0,0x1b8(%rsp)
    5645:	00 
    5646:	4c 89 ee             	mov    %r13,%rsi
    5649:	41 b9 20 00 00 00    	mov    $0x20,%r9d
    564f:	41 b8 40 00 00 00    	mov    $0x40,%r8d
    5655:	0f 29 84 24 c8 01 00 	movaps %xmm0,0x1c8(%rsp)
    565c:	00 
    565d:	31 c9                	xor    %ecx,%ecx
    565f:	bf 20 00 00 00       	mov    $0x20,%edi
    5664:	0f 29 84 24 d8 01 00 	movaps %xmm0,0x1d8(%rsp)
    566b:	00 
    566c:	0f 29 84 24 e8 01 00 	movaps %xmm0,0x1e8(%rsp)
    5673:	00 
    5674:	41 54                	push   %r12
    5676:	e8 05 5a 00 00       	call   b080 <Hacl_Hash_Blake2s_update_last>
    567b:	48 8b 74 24 20       	mov    0x20(%rsp),%rsi
    5680:	48 89 da             	mov    %rbx,%rdx
    5683:	bf 20 00 00 00       	mov    $0x20,%edi
    5688:	e8 83 5a 00 00       	call   b110 <Hacl_Hash_Blake2s_finish>
    568d:	48 81 c4 08 02 00 00 	add    $0x208,%rsp
    5694:	5b                   	pop    %rbx
    5695:	5d                   	pop    %rbp
    5696:	41 5c                	pop    %r12
    5698:	41 5d                	pop    %r13
    569a:	41 5e                	pop    %r14
    569c:	41 5f                	pop    %r15
    569e:	c3                   	ret    
    569f:	45 31 c9             	xor    %r9d,%r9d
    56a2:	45 31 c0             	xor    %r8d,%r8d
    56a5:	89 d9                	mov    %ebx,%ecx
    56a7:	4c 89 e2             	mov    %r12,%rdx
    56aa:	be 20 00 00 00       	mov    $0x20,%esi
    56af:	4c 89 f7             	mov    %r14,%rdi
    56b2:	e8 39 65 00 00       	call   bbf0 <Hacl_Hash_Blake2s_hash_with_key>
    56b7:	e9 83 fc ff ff       	jmp    533f <Hacl_HMAC_compute_blake2s_32+0x4f>
    56bc:	44 89 d1             	mov    %r10d,%ecx
    56bf:	c1 e1 06             	shl    $0x6,%ecx
    56c2:	89 4c 24 0c          	mov    %ecx,0xc(%rsp)
    56c6:	e9 cd fd ff ff       	jmp    5498 <Hacl_HMAC_compute_blake2s_32+0x1a8>
    56cb:	0f 29 84 24 b0 01 00 	movaps %xmm0,0x1b0(%rsp)
    56d2:	00 
    56d3:	31 c9                	xor    %ecx,%ecx
    56d5:	45 31 c0             	xor    %r8d,%r8d
    56d8:	48 89 da             	mov    %rbx,%rdx
    56db:	0f 29 84 24 c0 01 00 	movaps %xmm0,0x1c0(%rsp)
    56e2:	00 
    56e3:	4c 8d ac 24 b0 01 00 	lea    0x1b0(%rsp),%r13
    56ea:	00 
    56eb:	48 83 ec 08          	sub    $0x8,%rsp
    56ef:	41 b9 40 00 00 00    	mov    $0x40,%r9d
    56f5:	0f 29 84 24 d8 01 00 	movaps %xmm0,0x1d8(%rsp)
    56fc:	00 
    56fd:	4c 89 ee             	mov    %r13,%rsi
    5700:	bf 40 00 00 00       	mov    $0x40,%edi
    5705:	0f 29 84 24 e8 01 00 	movaps %xmm0,0x1e8(%rsp)
    570c:	00 
    570d:	41 54                	push   %r12
    570f:	e8 6c 59 00 00       	call   b080 <Hacl_Hash_Blake2s_update_last>
    5714:	59                   	pop    %rcx
    5715:	5e                   	pop    %rsi
    5716:	4c 8d bc 24 30 01 00 	lea    0x130(%rsp),%r15
    571d:	00 
    571e:	48 8d ac 24 70 01 00 	lea    0x170(%rsp),%rbp
    5725:	00 
    5726:	e9 6e fe ff ff       	jmp    5599 <Hacl_HMAC_compute_blake2s_32+0x2a9>
    572b:	0f 1f 44 00 00       	nopl   0x0(%rax,%rax,1)

0000000000005730 <Hacl_HMAC_compute_blake2b_32>:
    5730:	f3 0f 1e fa          	endbr64 
    5734:	41 57                	push   %r15
    5736:	41 56                	push   %r14
    5738:	41 55                	push   %r13
    573a:	49 89 cd             	mov    %rcx,%r13
    573d:	41 54                	push   %r12
    573f:	49 89 f4             	mov    %rsi,%r12
    5742:	31 f6                	xor    %esi,%esi
    5744:	55                   	push   %rbp
    5745:	44 89 c5             	mov    %r8d,%ebp
    5748:	53                   	push   %rbx
    5749:	89 d3                	mov    %edx,%ebx
    574b:	ba 80 00 00 00       	mov    $0x80,%edx
    5750:	48 81 ec b8 03 00 00 	sub    $0x3b8,%rsp
    5757:	4c 8d 74 24 30       	lea    0x30(%rsp),%r14
    575c:	48 89 7c 24 08       	mov    %rdi,0x8(%rsp)
    5761:	4c 89 f7             	mov    %r14,%rdi
    5764:	e8 70 bc ff ff       	call   13d9 <memset>
    5769:	81 fb 80 00 00 00    	cmp    $0x80,%ebx
    576f:	0f 87 df 03 00 00    	ja     5b54 <Hacl_HMAC_compute_blake2b_32+0x424>
    5775:	89 da                	mov    %ebx,%edx
    5777:	4c 89 e6             	mov    %r12,%rsi
    577a:	4c 89 f7             	mov    %r14,%rdi
    577d:	e8 3b bc ff ff       	call   13bd <memcpy>
    5782:	4c 8d a4 24 b0 00 00 	lea    0xb0(%rsp),%r12
    5789:	00 
    578a:	ba 80 00 00 00       	mov    $0x80,%edx
    578f:	be 36 00 00 00       	mov    $0x36,%esi
    5794:	45 31 ff             	xor    %r15d,%r15d
    5797:	4c 89 e7             	mov    %r12,%rdi
    579a:	4c 8d b4 24 30 01 00 	lea    0x130(%rsp),%r14
    57a1:	00 
    57a2:	48 8d 9c 24 b0 01 00 	lea    0x1b0(%rsp),%rbx
    57a9:	00 
    57aa:	e8 2a bc ff ff       	call   13d9 <memset>
    57af:	ba 80 00 00 00       	mov    $0x80,%edx
    57b4:	be 5c 00 00 00       	mov    $0x5c,%esi
    57b9:	4c 89 f7             	mov    %r14,%rdi
    57bc:	66 0f 6f 84 24 b0 00 	movdqa 0xb0(%rsp),%xmm0
    57c3:	00 00 
    57c5:	66 0f ef 44 24 30    	pxor   0x30(%rsp),%xmm0
    57cb:	0f 29 84 24 b0 00 00 	movaps %xmm0,0xb0(%rsp)
    57d2:	00 
    57d3:	66 0f 6f 84 24 c0 00 	movdqa 0xc0(%rsp),%xmm0
    57da:	00 00 
    57dc:	66 0f ef 44 24 40    	pxor   0x40(%rsp),%xmm0
    57e2:	0f 29 84 24 c0 00 00 	movaps %xmm0,0xc0(%rsp)
    57e9:	00 
    57ea:	66 0f 6f 84 24 d0 00 	movdqa 0xd0(%rsp),%xmm0
    57f1:	00 00 
    57f3:	66 0f ef 44 24 50    	pxor   0x50(%rsp),%xmm0
    57f9:	0f 29 84 24 d0 00 00 	movaps %xmm0,0xd0(%rsp)
    5800:	00 
    5801:	66 0f 6f 84 24 e0 00 	movdqa 0xe0(%rsp),%xmm0
    5808:	00 00 
    580a:	66 0f ef 44 24 60    	pxor   0x60(%rsp),%xmm0
    5810:	0f 29 84 24 e0 00 00 	movaps %xmm0,0xe0(%rsp)
    5817:	00 
    5818:	66 0f 6f 84 24 f0 00 	movdqa 0xf0(%rsp),%xmm0
    581f:	00 00 
    5821:	66 0f ef 44 24 70    	pxor   0x70(%rsp),%xmm0
    5827:	0f 29 84 24 f0 00 00 	movaps %xmm0,0xf0(%rsp)
    582e:	00 
    582f:	66 0f 6f 84 24 00 01 	movdqa 0x100(%rsp),%xmm0
    5836:	00 00 
    5838:	66 0f ef 84 24 80 00 	pxor   0x80(%rsp),%xmm0
    583f:	00 00 
    5841:	0f 29 84 24 00 01 00 	movaps %xmm0,0x100(%rsp)
    5848:	00 
    5849:	66 0f 6f 84 24 10 01 	movdqa 0x110(%rsp),%xmm0
    5850:	00 00 
    5852:	66 0f ef 84 24 90 00 	pxor   0x90(%rsp),%xmm0
    5859:	00 00 
    585b:	0f 29 84 24 10 01 00 	movaps %xmm0,0x110(%rsp)
    5862:	00 
    5863:	66 0f 6f 84 24 20 01 	movdqa 0x120(%rsp),%xmm0
    586a:	00 00 
    586c:	66 0f ef 84 24 a0 00 	pxor   0xa0(%rsp),%xmm0
    5873:	00 00 
    5875:	0f 29 84 24 20 01 00 	movaps %xmm0,0x120(%rsp)
    587c:	00 
    587d:	e8 57 bb ff ff       	call   13d9 <memset>
    5882:	b9 10 00 00 00       	mov    $0x10,%ecx
    5887:	4c 89 f8             	mov    %r15,%rax
    588a:	31 f6                	xor    %esi,%esi
    588c:	66 0f 6f 84 24 30 01 	movdqa 0x130(%rsp),%xmm0
    5893:	00 00 
    5895:	66 0f ef 44 24 30    	pxor   0x30(%rsp),%xmm0
    589b:	ba 40 00 00 00       	mov    $0x40,%edx
    58a0:	48 8d bc 24 b0 01 00 	lea    0x1b0(%rsp),%rdi
    58a7:	00 
    58a8:	f3 48 ab             	rep stos %rax,%es:(%rdi)
    58ab:	48 89 df             	mov    %rbx,%rdi
    58ae:	0f 29 84 24 30 01 00 	movaps %xmm0,0x130(%rsp)
    58b5:	00 
    58b6:	66 0f 6f 84 24 40 01 	movdqa 0x140(%rsp),%xmm0
    58bd:	00 00 
    58bf:	66 0f ef 44 24 40    	pxor   0x40(%rsp),%xmm0
    58c5:	0f 29 84 24 40 01 00 	movaps %xmm0,0x140(%rsp)
    58cc:	00 
    58cd:	66 0f 6f 84 24 50 01 	movdqa 0x150(%rsp),%xmm0
    58d4:	00 00 
    58d6:	66 0f ef 44 24 50    	pxor   0x50(%rsp),%xmm0
    58dc:	0f 29 84 24 50 01 00 	movaps %xmm0,0x150(%rsp)
    58e3:	00 
    58e4:	66 0f 6f 84 24 60 01 	movdqa 0x160(%rsp),%xmm0
    58eb:	00 00 
    58ed:	66 0f ef 44 24 60    	pxor   0x60(%rsp),%xmm0
    58f3:	0f 29 84 24 60 01 00 	movaps %xmm0,0x160(%rsp)
    58fa:	00 
    58fb:	66 0f 6f 84 24 70 01 	movdqa 0x170(%rsp),%xmm0
    5902:	00 00 
    5904:	66 0f ef 44 24 70    	pxor   0x70(%rsp),%xmm0
    590a:	0f 29 84 24 70 01 00 	movaps %xmm0,0x170(%rsp)
    5911:	00 
    5912:	66 0f 6f 84 24 80 01 	movdqa 0x180(%rsp),%xmm0
    5919:	00 00 
    591b:	66 0f ef 84 24 80 00 	pxor   0x80(%rsp),%xmm0
    5922:	00 00 
    5924:	0f 29 84 24 80 01 00 	movaps %xmm0,0x180(%rsp)
    592b:	00 
    592c:	66 0f 6f 84 24 90 01 	movdqa 0x190(%rsp),%xmm0
    5933:	00 00 
    5935:	66 0f ef 84 24 90 00 	pxor   0x90(%rsp),%xmm0
    593c:	00 00 
    593e:	0f 29 84 24 90 01 00 	movaps %xmm0,0x190(%rsp)
    5945:	00 
    5946:	66 0f 6f 84 24 a0 01 	movdqa 0x1a0(%rsp),%xmm0
    594d:	00 00 
    594f:	66 0f ef 84 24 a0 00 	pxor   0xa0(%rsp),%xmm0
    5956:	00 00 
    5958:	0f 29 84 24 a0 01 00 	movaps %xmm0,0x1a0(%rsp)
    595f:	00 
    5960:	e8 0b 24 00 00       	call   7d70 <Hacl_Hash_Blake2b_init>
    5965:	85 ed                	test   %ebp,%ebp
    5967:	0f 84 10 02 00 00    	je     5b7d <Hacl_HMAC_compute_blake2b_32+0x44d>
    596d:	41 89 ea             	mov    %ebp,%r10d
    5970:	41 89 ef             	mov    %ebp,%r15d
    5973:	41 c1 ea 07          	shr    $0x7,%r10d
    5977:	41 83 e7 7f          	and    $0x7f,%r15d
    597b:	83 fd 7f             	cmp    $0x7f,%ebp
    597e:	0f 86 ed 01 00 00    	jbe    5b71 <Hacl_HMAC_compute_blake2b_32+0x441>
    5984:	45 85 ff             	test   %r15d,%r15d
    5987:	0f 85 e4 01 00 00    	jne    5b71 <Hacl_HMAC_compute_blake2b_32+0x441>
    598d:	41 83 ea 01          	sub    $0x1,%r10d
    5991:	41 89 ef             	mov    %ebp,%r15d
    5994:	45 89 d3             	mov    %r10d,%r11d
    5997:	41 c1 e3 07          	shl    $0x7,%r11d
    599b:	45 29 df             	sub    %r11d,%r15d
    599e:	44 89 d8             	mov    %r11d,%eax
    59a1:	b9 10 00 00 00       	mov    $0x10,%ecx
    59a6:	44 89 54 24 2c       	mov    %r10d,0x2c(%rsp)
    59ab:	45 31 c0             	xor    %r8d,%r8d
    59ae:	48 89 44 24 20       	mov    %rax,0x20(%rsp)
    59b3:	49 8d 54 05 00       	lea    0x0(%r13,%rax,1),%rdx
    59b8:	31 c0                	xor    %eax,%eax
    59ba:	4d 89 e1             	mov    %r12,%r9
    59bd:	48 8d bc 24 30 02 00 	lea    0x230(%rsp),%rdi
    59c4:	00 
    59c5:	48 89 54 24 18       	mov    %rdx,0x18(%rsp)
    59ca:	48 8d 94 24 30 02 00 	lea    0x230(%rsp),%rdx
    59d1:	00 
    59d2:	48 83 ec 08          	sub    $0x8,%rsp
    59d6:	f3 48 ab             	rep stos %rax,%es:(%rdi)
    59d9:	48 89 54 24 18       	mov    %rdx,0x18(%rsp)
    59de:	48 89 d6             	mov    %rdx,%rsi
    59e1:	bf 80 00 00 00       	mov    $0x80,%edi
    59e6:	44 89 5c 24 30       	mov    %r11d,0x30(%rsp)
    59eb:	48 89 da             	mov    %rbx,%rdx
    59ee:	6a 01                	push   $0x1
    59f0:	48 8d ac 24 c0 02 00 	lea    0x2c0(%rsp),%rbp
    59f7:	00 
    59f8:	e8 d3 24 00 00       	call   7ed0 <Hacl_Hash_Blake2b_update_multi>
    59fd:	31 c0                	xor    %eax,%eax
    59ff:	b9 10 00 00 00       	mov    $0x10,%ecx
    5a04:	4d 89 e9             	mov    %r13,%r9
    5a07:	44 8b 54 24 3c       	mov    0x3c(%rsp),%r10d
    5a0c:	45 31 c0             	xor    %r8d,%r8d
    5a0f:	48 89 da             	mov    %rbx,%rdx
    5a12:	48 89 ee             	mov    %rbp,%rsi
    5a15:	48 8d bc 24 c0 02 00 	lea    0x2c0(%rsp),%rdi
    5a1c:	00 
    5a1d:	4c 8d ac 24 40 03 00 	lea    0x340(%rsp),%r13
    5a24:	00 
    5a25:	f3 48 ab             	rep stos %rax,%es:(%rdi)
    5a28:	8b 7c 24 38          	mov    0x38(%rsp),%edi
    5a2c:	b9 80 00 00 00       	mov    $0x80,%ecx
    5a31:	44 89 14 24          	mov    %r10d,(%rsp)
    5a35:	e8 96 24 00 00       	call   7ed0 <Hacl_Hash_Blake2b_update_multi>
    5a3a:	31 c0                	xor    %eax,%eax
    5a3c:	b9 10 00 00 00       	mov    $0x10,%ecx
    5a41:	45 31 c9             	xor    %r9d,%r9d
    5a44:	48 8d bc 24 40 03 00 	lea    0x340(%rsp),%rdi
    5a4b:	00 
    5a4c:	4c 8b 44 24 30       	mov    0x30(%rsp),%r8
    5a51:	48 89 da             	mov    %rbx,%rdx
    5a54:	4c 89 ee             	mov    %r13,%rsi
    5a57:	f3 48 ab             	rep stos %rax,%es:(%rdi)
    5a5a:	ff 74 24 28          	push   0x28(%rsp)
    5a5e:	44 89 ff             	mov    %r15d,%edi
    5a61:	41 57                	push   %r15
    5a63:	49 81 c0 80 00 00 00 	add    $0x80,%r8
    5a6a:	49 83 d1 00          	adc    $0x0,%r9
    5a6e:	e8 dd 24 00 00       	call   7f50 <Hacl_Hash_Blake2b_update_last>
    5a73:	48 83 c4 20          	add    $0x20,%rsp
    5a77:	48 89 da             	mov    %rbx,%rdx
    5a7a:	4c 89 e6             	mov    %r12,%rsi
    5a7d:	bf 40 00 00 00       	mov    $0x40,%edi
    5a82:	45 31 ff             	xor    %r15d,%r15d
    5a85:	e8 96 25 00 00       	call   8020 <Hacl_Hash_Blake2b_finish>
    5a8a:	48 89 df             	mov    %rbx,%rdi
    5a8d:	ba 40 00 00 00       	mov    $0x40,%edx
    5a92:	31 f6                	xor    %esi,%esi
    5a94:	e8 d7 22 00 00       	call   7d70 <Hacl_Hash_Blake2b_init>
    5a99:	48 8b 7c 24 10       	mov    0x10(%rsp),%rdi
    5a9e:	4c 89 f8             	mov    %r15,%rax
    5aa1:	4d 89 f1             	mov    %r14,%r9
    5aa4:	b9 10 00 00 00       	mov    $0x10,%ecx
    5aa9:	48 8d b4 24 30 02 00 	lea    0x230(%rsp),%rsi
    5ab0:	00 
    5ab1:	48 83 ec 08          	sub    $0x8,%rsp
    5ab5:	48 89 da             	mov    %rbx,%rdx
    5ab8:	f3 48 ab             	rep stos %rax,%es:(%rdi)
    5abb:	6a 01                	push   $0x1
    5abd:	45 31 c0             	xor    %r8d,%r8d
    5ac0:	bf 80 00 00 00       	mov    $0x80,%edi
    5ac5:	e8 06 24 00 00       	call   7ed0 <Hacl_Hash_Blake2b_update_multi>
    5aca:	4c 89 f8             	mov    %r15,%rax
    5acd:	48 89 ef             	mov    %rbp,%rdi
    5ad0:	b9 10 00 00 00       	mov    $0x10,%ecx
    5ad5:	f3 48 ab             	rep stos %rax,%es:(%rdi)
    5ad8:	48 8d b4 24 c0 02 00 	lea    0x2c0(%rsp),%rsi
    5adf:	00 
    5ae0:	4d 89 e1             	mov    %r12,%r9
    5ae3:	31 ff                	xor    %edi,%edi
    5ae5:	48 89 da             	mov    %rbx,%rdx
    5ae8:	b9 80 00 00 00       	mov    $0x80,%ecx
    5aed:	45 31 c0             	xor    %r8d,%r8d
    5af0:	c7 04 24 00 00 00 00 	movl   $0x0,(%rsp)
    5af7:	e8 d4 23 00 00       	call   7ed0 <Hacl_Hash_Blake2b_update_multi>
    5afc:	4c 89 f8             	mov    %r15,%rax
    5aff:	4c 89 ef             	mov    %r13,%rdi
    5b02:	b9 10 00 00 00       	mov    $0x10,%ecx
    5b07:	f3 48 ab             	rep stos %rax,%es:(%rdi)
    5b0a:	48 89 da             	mov    %rbx,%rdx
    5b0d:	41 b8 80 00 00 00    	mov    $0x80,%r8d
    5b13:	45 31 c9             	xor    %r9d,%r9d
    5b16:	48 8d b4 24 40 03 00 	lea    0x340(%rsp),%rsi
    5b1d:	00 
    5b1e:	41 54                	push   %r12
    5b20:	bf 40 00 00 00       	mov    $0x40,%edi
    5b25:	6a 40                	push   $0x40
    5b27:	e8 24 24 00 00       	call   7f50 <Hacl_Hash_Blake2b_update_last>
    5b2c:	48 8b 74 24 28       	mov    0x28(%rsp),%rsi
    5b31:	48 83 c4 20          	add    $0x20,%rsp
    5b35:	48 89 da             	mov    %rbx,%rdx
    5b38:	bf 40 00 00 00       	mov    $0x40,%edi
    5b3d:	e8 de 24 00 00       	call   8020 <Hacl_Hash_Blake2b_finish>
    5b42:	48 81 c4 b8 03 00 00 	add    $0x3b8,%rsp
    5b49:	5b                   	pop    %rbx
    5b4a:	5d                   	pop    %rbp
    5b4b:	41 5c                	pop    %r12
    5b4d:	41 5d                	pop    %r13
    5b4f:	41 5e                	pop    %r14
    5b51:	41 5f                	pop    %r15
    5b53:	c3                   	ret    
    5b54:	45 31 c9             	xor    %r9d,%r9d
    5b57:	45 31 c0             	xor    %r8d,%r8d
    5b5a:	89 d9                	mov    %ebx,%ecx
    5b5c:	4c 89 e2             	mov    %r12,%rdx
    5b5f:	be 40 00 00 00       	mov    $0x40,%esi
    5b64:	4c 89 f7             	mov    %r14,%rdi
    5b67:	e8 74 33 00 00       	call   8ee0 <Hacl_Hash_Blake2b_hash_with_key>
    5b6c:	e9 11 fc ff ff       	jmp    5782 <Hacl_HMAC_compute_blake2b_32+0x52>
    5b71:	45 89 d3             	mov    %r10d,%r11d
    5b74:	41 c1 e3 07          	shl    $0x7,%r11d
    5b78:	e9 21 fe ff ff       	jmp    599e <Hacl_HMAC_compute_blake2b_32+0x26e>
    5b7d:	4c 89 f8             	mov    %r15,%rax
    5b80:	b9 10 00 00 00       	mov    $0x10,%ecx
    5b85:	48 89 da             	mov    %rbx,%rdx
    5b88:	45 31 c0             	xor    %r8d,%r8d
    5b8b:	48 8d bc 24 30 03 00 	lea    0x330(%rsp),%rdi
    5b92:	00 
    5b93:	4c 8d ac 24 30 03 00 	lea    0x330(%rsp),%r13
    5b9a:	00 
    5b9b:	45 31 c9             	xor    %r9d,%r9d
    5b9e:	f3 48 ab             	rep stos %rax,%es:(%rdi)
    5ba1:	41 54                	push   %r12
    5ba3:	4c 89 ee             	mov    %r13,%rsi
    5ba6:	bf 80 00 00 00       	mov    $0x80,%edi
    5bab:	68 80 00 00 00       	push   $0x80
    5bb0:	e8 9b 23 00 00       	call   7f50 <Hacl_Hash_Blake2b_update_last>
    5bb5:	58                   	pop    %rax
    5bb6:	5a                   	pop    %rdx
    5bb7:	48 8d 84 24 30 02 00 	lea    0x230(%rsp),%rax
    5bbe:	00 
    5bbf:	48 8d ac 24 b0 02 00 	lea    0x2b0(%rsp),%rbp
    5bc6:	00 
    5bc7:	48 89 44 24 10       	mov    %rax,0x10(%rsp)
    5bcc:	e9 a6 fe ff ff       	jmp    5a77 <Hacl_HMAC_compute_blake2b_32+0x347>
    5bd1:	66 2e 0f 1f 84 00 00 	cs nopw 0x0(%rax,%rax,1)
    5bd8:	00 00 00 
    5bdb:	0f 1f 44 00 00       	nopl   0x0(%rax,%rax,1)

0000000000005be0 <update_block>:
    5be0:	41 57                	push   %r15
    5be2:	41 89 cf             	mov    %ecx,%r15d
    5be5:	41 56                	push   %r14
    5be7:	41 89 d6             	mov    %edx,%r14d
    5bea:	ba 08 00 00 00       	mov    $0x8,%edx
    5bef:	45 0f b6 ff          	movzbl %r15b,%r15d
    5bf3:	41 55                	push   %r13
    5bf5:	4d 89 c5             	mov    %r8,%r13
    5bf8:	45 0f b6 f6          	movzbl %r14b,%r14d
    5bfc:	41 54                	push   %r12
    5bfe:	4d 89 cc             	mov    %r9,%r12
    5c01:	55                   	push   %rbp
    5c02:	53                   	push   %rbx
    5c03:	48 81 ec c8 00 00 00 	sub    $0xc8,%rsp
    5c0a:	48 8b 9c 24 00 01 00 	mov    0x100(%rsp),%rbx
    5c11:	00 
    5c12:	48 8d ac 24 b8 00 00 	lea    0xb8(%rsp),%rbp
    5c19:	00 
    5c1a:	48 89 bc 24 80 00 00 	mov    %rdi,0x80(%rsp)
    5c21:	00 
    5c22:	48 89 b4 24 98 00 00 	mov    %rsi,0x98(%rsp)
    5c29:	00 
    5c2a:	48 89 ef             	mov    %rbp,%rdi
    5c2d:	48 89 de             	mov    %rbx,%rsi
    5c30:	e8 88 b7 ff ff       	call   13bd <memcpy>
    5c35:	48 8b 84 24 b8 00 00 	mov    0xb8(%rsp),%rax
    5c3c:	00 
    5c3d:	48 8d 73 08          	lea    0x8(%rbx),%rsi
    5c41:	48 89 ef             	mov    %rbp,%rdi
    5c44:	ba 08 00 00 00       	mov    $0x8,%edx
    5c49:	48 89 04 24          	mov    %rax,(%rsp)
    5c4d:	e8 6b b7 ff ff       	call   13bd <memcpy>
    5c52:	48 8b 8c 24 b8 00 00 	mov    0xb8(%rsp),%rcx
    5c59:	00 
    5c5a:	48 8d 73 10          	lea    0x10(%rbx),%rsi
    5c5e:	48 89 ef             	mov    %rbp,%rdi
    5c61:	ba 08 00 00 00       	mov    $0x8,%edx
    5c66:	48 89 4c 24 08       	mov    %rcx,0x8(%rsp)
    5c6b:	e8 4d b7 ff ff       	call   13bd <memcpy>
    5c70:	48 8b 94 24 b8 00 00 	mov    0xb8(%rsp),%rdx
    5c77:	00 
    5c78:	48 8d 73 18          	lea    0x18(%rbx),%rsi
    5c7c:	48 89 ef             	mov    %rbp,%rdi
    5c7f:	48 89 54 24 10       	mov    %rdx,0x10(%rsp)
    5c84:	ba 08 00 00 00       	mov    $0x8,%edx
    5c89:	e8 2f b7 ff ff       	call   13bd <memcpy>
    5c8e:	4c 8b 8c 24 b8 00 00 	mov    0xb8(%rsp),%r9
    5c95:	00 
    5c96:	48 8d 73 20          	lea    0x20(%rbx),%rsi
    5c9a:	48 89 ef             	mov    %rbp,%rdi
    5c9d:	ba 08 00 00 00       	mov    $0x8,%edx
    5ca2:	4c 89 4c 24 18       	mov    %r9,0x18(%rsp)
    5ca7:	e8 11 b7 ff ff       	call   13bd <memcpy>
    5cac:	4c 8b 9c 24 b8 00 00 	mov    0xb8(%rsp),%r11
    5cb3:	00 
    5cb4:	48 8d 73 28          	lea    0x28(%rbx),%rsi
    5cb8:	48 89 ef             	mov    %rbp,%rdi
    5cbb:	ba 08 00 00 00       	mov    $0x8,%edx
    5cc0:	4c 89 5c 24 20       	mov    %r11,0x20(%rsp)
    5cc5:	e8 f3 b6 ff ff       	call   13bd <memcpy>
    5cca:	4c 8b 84 24 b8 00 00 	mov    0xb8(%rsp),%r8
    5cd1:	00 
    5cd2:	48 8d 73 30          	lea    0x30(%rbx),%rsi
    5cd6:	48 89 ef             	mov    %rbp,%rdi
    5cd9:	ba 08 00 00 00       	mov    $0x8,%edx
    5cde:	4c 89 44 24 28       	mov    %r8,0x28(%rsp)
    5ce3:	e8 d5 b6 ff ff       	call   13bd <memcpy>
    5ce8:	48 8b 8c 24 b8 00 00 	mov    0xb8(%rsp),%rcx
    5cef:	00 
    5cf0:	48 8d 73 38          	lea    0x38(%rbx),%rsi
    5cf4:	48 89 ef             	mov    %rbp,%rdi
    5cf7:	ba 08 00 00 00       	mov    $0x8,%edx
    5cfc:	48 89 4c 24 30       	mov    %rcx,0x30(%rsp)
    5d01:	e8 b7 b6 ff ff       	call   13bd <memcpy>
    5d06:	48 8b 94 24 b8 00 00 	mov    0xb8(%rsp),%rdx
    5d0d:	00 
    5d0e:	48 8d 73 40          	lea    0x40(%rbx),%rsi
    5d12:	48 89 ef             	mov    %rbp,%rdi
    5d15:	48 89 54 24 38       	mov    %rdx,0x38(%rsp)
    5d1a:	ba 08 00 00 00       	mov    $0x8,%edx
    5d1f:	e8 99 b6 ff ff       	call   13bd <memcpy>
    5d24:	4c 8b 9c 24 b8 00 00 	mov    0xb8(%rsp),%r11
    5d2b:	00 
    5d2c:	48 8d 73 48          	lea    0x48(%rbx),%rsi
    5d30:	48 89 ef             	mov    %rbp,%rdi
    5d33:	ba 08 00 00 00       	mov    $0x8,%edx
    5d38:	4c 89 5c 24 40       	mov    %r11,0x40(%rsp)
    5d3d:	e8 7b b6 ff ff       	call   13bd <memcpy>
    5d42:	48 8b 84 24 b8 00 00 	mov    0xb8(%rsp),%rax
    5d49:	00 
    5d4a:	48 8d 73 50          	lea    0x50(%rbx),%rsi
    5d4e:	48 89 ef             	mov    %rbp,%rdi
    5d51:	ba 08 00 00 00       	mov    $0x8,%edx
    5d56:	48 89 44 24 48       	mov    %rax,0x48(%rsp)
    5d5b:	e8 5d b6 ff ff       	call   13bd <memcpy>
    5d60:	4c 8b 84 24 b8 00 00 	mov    0xb8(%rsp),%r8
    5d67:	00 
    5d68:	48 8d 73 58          	lea    0x58(%rbx),%rsi
    5d6c:	48 89 ef             	mov    %rbp,%rdi
    5d6f:	ba 08 00 00 00       	mov    $0x8,%edx
    5d74:	4c 89 44 24 50       	mov    %r8,0x50(%rsp)
    5d79:	e8 3f b6 ff ff       	call   13bd <memcpy>
    5d7e:	48 8b b4 24 b8 00 00 	mov    0xb8(%rsp),%rsi
    5d85:	00 
    5d86:	48 89 ef             	mov    %rbp,%rdi
    5d89:	ba 08 00 00 00       	mov    $0x8,%edx
    5d8e:	48 89 74 24 58       	mov    %rsi,0x58(%rsp)
